
hackhathon.elf:     file format elf32-littlearm

Sections:
Idx Name          Size      VMA       LMA       File off  Algn
  0 .isr_vector   00000198  08000000  08000000  00001000  2**0
                  CONTENTS, ALLOC, LOAD, READONLY, DATA
  1 .text         00002414  08000198  08000198  00001198  2**2
                  CONTENTS, ALLOC, LOAD, READONLY, CODE
  2 .rodata       00000010  080025ac  080025ac  000035ac  2**2
                  CONTENTS, ALLOC, LOAD, READONLY, DATA
  3 .ARM.extab    00000000  080025bc  080025bc  0000400c  2**0
                  CONTENTS
  4 .ARM          00000008  080025bc  080025bc  000035bc  2**2
                  CONTENTS, ALLOC, LOAD, READONLY, DATA
  5 .preinit_array 00000000  080025c4  080025c4  0000400c  2**0
                  CONTENTS, ALLOC, LOAD, DATA
  6 .init_array   00000004  080025c4  080025c4  000035c4  2**2
                  CONTENTS, ALLOC, LOAD, READONLY, DATA
  7 .fini_array   00000004  080025c8  080025c8  000035c8  2**2
                  CONTENTS, ALLOC, LOAD, READONLY, DATA
  8 .data         0000000c  20000000  080025cc  00004000  2**2
                  CONTENTS, ALLOC, LOAD, DATA
  9 .bss          00000068  2000000c  080025d8  0000400c  2**2
                  ALLOC
 10 ._user_heap_stack 00000604  20000074  080025d8  00004074  2**0
                  ALLOC
 11 .ARM.attributes 00000030  00000000  00000000  0000400c  2**0
                  CONTENTS, READONLY
 12 .debug_info   00008290  00000000  00000000  0000403c  2**0
                  CONTENTS, READONLY, DEBUGGING, OCTETS
 13 .debug_abbrev 0000152a  00000000  00000000  0000c2cc  2**0
                  CONTENTS, READONLY, DEBUGGING, OCTETS
 14 .debug_aranges 00000970  00000000  00000000  0000d7f8  2**3
                  CONTENTS, READONLY, DEBUGGING, OCTETS
 15 .debug_rnglists 00000748  00000000  00000000  0000e168  2**0
                  CONTENTS, READONLY, DEBUGGING, OCTETS
 16 .debug_macro  000150d7  00000000  00000000  0000e8b0  2**0
                  CONTENTS, READONLY, DEBUGGING, OCTETS
 17 .debug_line   0000a050  00000000  00000000  00023987  2**0
                  CONTENTS, READONLY, DEBUGGING, OCTETS
 18 .debug_str    00087dce  00000000  00000000  0002d9d7  2**0
                  CONTENTS, READONLY, DEBUGGING, OCTETS
 19 .comment      00000043  00000000  00000000  000b57a5  2**0
                  CONTENTS, READONLY
 20 .debug_frame  0000275c  00000000  00000000  000b57e8  2**2
                  CONTENTS, READONLY, DEBUGGING, OCTETS
 21 .debug_line_str 0000005d  00000000  00000000  000b7f44  2**0
                  CONTENTS, READONLY, DEBUGGING, OCTETS

Disassembly of section .text:

08000198 <__do_global_dtors_aux>:
 8000198:	b510      	push	{r4, lr}
 800019a:	4c05      	ldr	r4, [pc, #20]	@ (80001b0 <__do_global_dtors_aux+0x18>)
 800019c:	7823      	ldrb	r3, [r4, #0]
 800019e:	b933      	cbnz	r3, 80001ae <__do_global_dtors_aux+0x16>
 80001a0:	4b04      	ldr	r3, [pc, #16]	@ (80001b4 <__do_global_dtors_aux+0x1c>)
 80001a2:	b113      	cbz	r3, 80001aa <__do_global_dtors_aux+0x12>
 80001a4:	4804      	ldr	r0, [pc, #16]	@ (80001b8 <__do_global_dtors_aux+0x20>)
 80001a6:	f3af 8000 	nop.w
 80001aa:	2301      	movs	r3, #1
 80001ac:	7023      	strb	r3, [r4, #0]
 80001ae:	bd10      	pop	{r4, pc}
 80001b0:	2000000c 	.word	0x2000000c
 80001b4:	00000000 	.word	0x00000000
 80001b8:	08002594 	.word	0x08002594

080001bc <frame_dummy>:
 80001bc:	b508      	push	{r3, lr}
 80001be:	4b03      	ldr	r3, [pc, #12]	@ (80001cc <frame_dummy+0x10>)
 80001c0:	b11b      	cbz	r3, 80001ca <frame_dummy+0xe>
 80001c2:	4903      	ldr	r1, [pc, #12]	@ (80001d0 <frame_dummy+0x14>)
 80001c4:	4803      	ldr	r0, [pc, #12]	@ (80001d4 <frame_dummy+0x18>)
 80001c6:	f3af 8000 	nop.w
 80001ca:	bd08      	pop	{r3, pc}
 80001cc:	00000000 	.word	0x00000000
 80001d0:	20000010 	.word	0x20000010
 80001d4:	08002594 	.word	0x08002594

080001d8 <__aeabi_uldivmod>:
 80001d8:	b953      	cbnz	r3, 80001f0 <__aeabi_uldivmod+0x18>
 80001da:	b94a      	cbnz	r2, 80001f0 <__aeabi_uldivmod+0x18>
 80001dc:	2900      	cmp	r1, #0
 80001de:	bf08      	it	eq
 80001e0:	2800      	cmpeq	r0, #0
 80001e2:	bf1c      	itt	ne
 80001e4:	f04f 31ff 	movne.w	r1, #4294967295
 80001e8:	f04f 30ff 	movne.w	r0, #4294967295
 80001ec:	f000 b96a 	b.w	80004c4 <__aeabi_idiv0>
 80001f0:	f1ad 0c08 	sub.w	ip, sp, #8
 80001f4:	e96d ce04 	strd	ip, lr, [sp, #-16]!
 80001f8:	f000 f806 	bl	8000208 <__udivmoddi4>
 80001fc:	f8dd e004 	ldr.w	lr, [sp, #4]
 8000200:	e9dd 2302 	ldrd	r2, r3, [sp, #8]
 8000204:	b004      	add	sp, #16
 8000206:	4770      	bx	lr

08000208 <__udivmoddi4>:
 8000208:	e92d 47f0 	stmdb	sp!, {r4, r5, r6, r7, r8, r9, sl, lr}
 800020c:	9d08      	ldr	r5, [sp, #32]
 800020e:	460c      	mov	r4, r1
 8000210:	2b00      	cmp	r3, #0
 8000212:	d14e      	bne.n	80002b2 <__udivmoddi4+0xaa>
 8000214:	4694      	mov	ip, r2
 8000216:	458c      	cmp	ip, r1
 8000218:	4686      	mov	lr, r0
 800021a:	fab2 f282 	clz	r2, r2
 800021e:	d962      	bls.n	80002e6 <__udivmoddi4+0xde>
 8000220:	b14a      	cbz	r2, 8000236 <__udivmoddi4+0x2e>
 8000222:	f1c2 0320 	rsb	r3, r2, #32
 8000226:	4091      	lsls	r1, r2
 8000228:	fa20 f303 	lsr.w	r3, r0, r3
 800022c:	fa0c fc02 	lsl.w	ip, ip, r2
 8000230:	4319      	orrs	r1, r3
 8000232:	fa00 fe02 	lsl.w	lr, r0, r2
 8000236:	ea4f 471c 	mov.w	r7, ip, lsr #16
 800023a:	fa1f f68c 	uxth.w	r6, ip
 800023e:	fbb1 f4f7 	udiv	r4, r1, r7
 8000242:	ea4f 431e 	mov.w	r3, lr, lsr #16
 8000246:	fb07 1114 	mls	r1, r7, r4, r1
 800024a:	ea43 4301 	orr.w	r3, r3, r1, lsl #16
 800024e:	fb04 f106 	mul.w	r1, r4, r6
 8000252:	4299      	cmp	r1, r3
 8000254:	d90a      	bls.n	800026c <__udivmoddi4+0x64>
 8000256:	eb1c 0303 	adds.w	r3, ip, r3
 800025a:	f104 30ff 	add.w	r0, r4, #4294967295
 800025e:	f080 8112 	bcs.w	8000486 <__udivmoddi4+0x27e>
 8000262:	4299      	cmp	r1, r3
 8000264:	f240 810f 	bls.w	8000486 <__udivmoddi4+0x27e>
 8000268:	3c02      	subs	r4, #2
 800026a:	4463      	add	r3, ip
 800026c:	1a59      	subs	r1, r3, r1
 800026e:	fa1f f38e 	uxth.w	r3, lr
 8000272:	fbb1 f0f7 	udiv	r0, r1, r7
 8000276:	fb07 1110 	mls	r1, r7, r0, r1
 800027a:	ea43 4301 	orr.w	r3, r3, r1, lsl #16
 800027e:	fb00 f606 	mul.w	r6, r0, r6
 8000282:	429e      	cmp	r6, r3
 8000284:	d90a      	bls.n	800029c <__udivmoddi4+0x94>
 8000286:	eb1c 0303 	adds.w	r3, ip, r3
 800028a:	f100 31ff 	add.w	r1, r0, #4294967295
 800028e:	f080 80fc 	bcs.w	800048a <__udivmoddi4+0x282>
 8000292:	429e      	cmp	r6, r3
 8000294:	f240 80f9 	bls.w	800048a <__udivmoddi4+0x282>
 8000298:	4463      	add	r3, ip
 800029a:	3802      	subs	r0, #2
 800029c:	1b9b      	subs	r3, r3, r6
 800029e:	ea40 4004 	orr.w	r0, r0, r4, lsl #16
 80002a2:	2100      	movs	r1, #0
 80002a4:	b11d      	cbz	r5, 80002ae <__udivmoddi4+0xa6>
 80002a6:	40d3      	lsrs	r3, r2
 80002a8:	2200      	movs	r2, #0
 80002aa:	e9c5 3200 	strd	r3, r2, [r5]
 80002ae:	e8bd 87f0 	ldmia.w	sp!, {r4, r5, r6, r7, r8, r9, sl, pc}
 80002b2:	428b      	cmp	r3, r1
 80002b4:	d905      	bls.n	80002c2 <__udivmoddi4+0xba>
 80002b6:	b10d      	cbz	r5, 80002bc <__udivmoddi4+0xb4>
 80002b8:	e9c5 0100 	strd	r0, r1, [r5]
 80002bc:	2100      	movs	r1, #0
 80002be:	4608      	mov	r0, r1
 80002c0:	e7f5      	b.n	80002ae <__udivmoddi4+0xa6>
 80002c2:	fab3 f183 	clz	r1, r3
 80002c6:	2900      	cmp	r1, #0
 80002c8:	d146      	bne.n	8000358 <__udivmoddi4+0x150>
 80002ca:	42a3      	cmp	r3, r4
 80002cc:	d302      	bcc.n	80002d4 <__udivmoddi4+0xcc>
 80002ce:	4290      	cmp	r0, r2
 80002d0:	f0c0 80f0 	bcc.w	80004b4 <__udivmoddi4+0x2ac>
 80002d4:	1a86      	subs	r6, r0, r2
 80002d6:	eb64 0303 	sbc.w	r3, r4, r3
 80002da:	2001      	movs	r0, #1
 80002dc:	2d00      	cmp	r5, #0
 80002de:	d0e6      	beq.n	80002ae <__udivmoddi4+0xa6>
 80002e0:	e9c5 6300 	strd	r6, r3, [r5]
 80002e4:	e7e3      	b.n	80002ae <__udivmoddi4+0xa6>
 80002e6:	2a00      	cmp	r2, #0
 80002e8:	f040 8090 	bne.w	800040c <__udivmoddi4+0x204>
 80002ec:	eba1 040c 	sub.w	r4, r1, ip
 80002f0:	ea4f 481c 	mov.w	r8, ip, lsr #16
 80002f4:	fa1f f78c 	uxth.w	r7, ip
 80002f8:	2101      	movs	r1, #1
 80002fa:	fbb4 f6f8 	udiv	r6, r4, r8
 80002fe:	ea4f 431e 	mov.w	r3, lr, lsr #16
 8000302:	fb08 4416 	mls	r4, r8, r6, r4
 8000306:	ea43 4304 	orr.w	r3, r3, r4, lsl #16
 800030a:	fb07 f006 	mul.w	r0, r7, r6
 800030e:	4298      	cmp	r0, r3
 8000310:	d908      	bls.n	8000324 <__udivmoddi4+0x11c>
 8000312:	eb1c 0303 	adds.w	r3, ip, r3
 8000316:	f106 34ff 	add.w	r4, r6, #4294967295
 800031a:	d202      	bcs.n	8000322 <__udivmoddi4+0x11a>
 800031c:	4298      	cmp	r0, r3
 800031e:	f200 80cd 	bhi.w	80004bc <__udivmoddi4+0x2b4>
 8000322:	4626      	mov	r6, r4
 8000324:	1a1c      	subs	r4, r3, r0
 8000326:	fa1f f38e 	uxth.w	r3, lr
 800032a:	fbb4 f0f8 	udiv	r0, r4, r8
 800032e:	fb08 4410 	mls	r4, r8, r0, r4
 8000332:	ea43 4304 	orr.w	r3, r3, r4, lsl #16
 8000336:	fb00 f707 	mul.w	r7, r0, r7
 800033a:	429f      	cmp	r7, r3
 800033c:	d908      	bls.n	8000350 <__udivmoddi4+0x148>
 800033e:	eb1c 0303 	adds.w	r3, ip, r3
 8000342:	f100 34ff 	add.w	r4, r0, #4294967295
 8000346:	d202      	bcs.n	800034e <__udivmoddi4+0x146>
 8000348:	429f      	cmp	r7, r3
 800034a:	f200 80b0 	bhi.w	80004ae <__udivmoddi4+0x2a6>
 800034e:	4620      	mov	r0, r4
 8000350:	1bdb      	subs	r3, r3, r7
 8000352:	ea40 4006 	orr.w	r0, r0, r6, lsl #16
 8000356:	e7a5      	b.n	80002a4 <__udivmoddi4+0x9c>
 8000358:	f1c1 0620 	rsb	r6, r1, #32
 800035c:	408b      	lsls	r3, r1
 800035e:	fa22 f706 	lsr.w	r7, r2, r6
 8000362:	431f      	orrs	r7, r3
 8000364:	fa20 fc06 	lsr.w	ip, r0, r6
 8000368:	fa04 f301 	lsl.w	r3, r4, r1
 800036c:	ea43 030c 	orr.w	r3, r3, ip
 8000370:	40f4      	lsrs	r4, r6
 8000372:	fa00 f801 	lsl.w	r8, r0, r1
 8000376:	0c38      	lsrs	r0, r7, #16
 8000378:	ea4f 4913 	mov.w	r9, r3, lsr #16
 800037c:	fbb4 fef0 	udiv	lr, r4, r0
 8000380:	fa1f fc87 	uxth.w	ip, r7
 8000384:	fb00 441e 	mls	r4, r0, lr, r4
 8000388:	ea49 4404 	orr.w	r4, r9, r4, lsl #16
 800038c:	fb0e f90c 	mul.w	r9, lr, ip
 8000390:	45a1      	cmp	r9, r4
 8000392:	fa02 f201 	lsl.w	r2, r2, r1
 8000396:	d90a      	bls.n	80003ae <__udivmoddi4+0x1a6>
 8000398:	193c      	adds	r4, r7, r4
 800039a:	f10e 3aff 	add.w	sl, lr, #4294967295
 800039e:	f080 8084 	bcs.w	80004aa <__udivmoddi4+0x2a2>
 80003a2:	45a1      	cmp	r9, r4
 80003a4:	f240 8081 	bls.w	80004aa <__udivmoddi4+0x2a2>
 80003a8:	f1ae 0e02 	sub.w	lr, lr, #2
 80003ac:	443c      	add	r4, r7
 80003ae:	eba4 0409 	sub.w	r4, r4, r9
 80003b2:	fa1f f983 	uxth.w	r9, r3
 80003b6:	fbb4 f3f0 	udiv	r3, r4, r0
 80003ba:	fb00 4413 	mls	r4, r0, r3, r4
 80003be:	ea49 4404 	orr.w	r4, r9, r4, lsl #16
 80003c2:	fb03 fc0c 	mul.w	ip, r3, ip
 80003c6:	45a4      	cmp	ip, r4
 80003c8:	d907      	bls.n	80003da <__udivmoddi4+0x1d2>
 80003ca:	193c      	adds	r4, r7, r4
 80003cc:	f103 30ff 	add.w	r0, r3, #4294967295
 80003d0:	d267      	bcs.n	80004a2 <__udivmoddi4+0x29a>
 80003d2:	45a4      	cmp	ip, r4
 80003d4:	d965      	bls.n	80004a2 <__udivmoddi4+0x29a>
 80003d6:	3b02      	subs	r3, #2
 80003d8:	443c      	add	r4, r7
 80003da:	ea43 400e 	orr.w	r0, r3, lr, lsl #16
 80003de:	fba0 9302 	umull	r9, r3, r0, r2
 80003e2:	eba4 040c 	sub.w	r4, r4, ip
 80003e6:	429c      	cmp	r4, r3
 80003e8:	46ce      	mov	lr, r9
 80003ea:	469c      	mov	ip, r3
 80003ec:	d351      	bcc.n	8000492 <__udivmoddi4+0x28a>
 80003ee:	d04e      	beq.n	800048e <__udivmoddi4+0x286>
 80003f0:	b155      	cbz	r5, 8000408 <__udivmoddi4+0x200>
 80003f2:	ebb8 030e 	subs.w	r3, r8, lr
 80003f6:	eb64 040c 	sbc.w	r4, r4, ip
 80003fa:	fa04 f606 	lsl.w	r6, r4, r6
 80003fe:	40cb      	lsrs	r3, r1
 8000400:	431e      	orrs	r6, r3
 8000402:	40cc      	lsrs	r4, r1
 8000404:	e9c5 6400 	strd	r6, r4, [r5]
 8000408:	2100      	movs	r1, #0
 800040a:	e750      	b.n	80002ae <__udivmoddi4+0xa6>
 800040c:	f1c2 0320 	rsb	r3, r2, #32
 8000410:	fa20 f103 	lsr.w	r1, r0, r3
 8000414:	fa0c fc02 	lsl.w	ip, ip, r2
 8000418:	fa24 f303 	lsr.w	r3, r4, r3
 800041c:	4094      	lsls	r4, r2
 800041e:	430c      	orrs	r4, r1
 8000420:	ea4f 481c 	mov.w	r8, ip, lsr #16
 8000424:	fa00 fe02 	lsl.w	lr, r0, r2
 8000428:	fa1f f78c 	uxth.w	r7, ip
 800042c:	fbb3 f0f8 	udiv	r0, r3, r8
 8000430:	fb08 3110 	mls	r1, r8, r0, r3
 8000434:	0c23      	lsrs	r3, r4, #16
 8000436:	ea43 4301 	orr.w	r3, r3, r1, lsl #16
 800043a:	fb00 f107 	mul.w	r1, r0, r7
 800043e:	4299      	cmp	r1, r3
 8000440:	d908      	bls.n	8000454 <__udivmoddi4+0x24c>
 8000442:	eb1c 0303 	adds.w	r3, ip, r3
 8000446:	f100 36ff 	add.w	r6, r0, #4294967295
 800044a:	d22c      	bcs.n	80004a6 <__udivmoddi4+0x29e>
 800044c:	4299      	cmp	r1, r3
 800044e:	d92a      	bls.n	80004a6 <__udivmoddi4+0x29e>
 8000450:	3802      	subs	r0, #2
 8000452:	4463      	add	r3, ip
 8000454:	1a5b      	subs	r3, r3, r1
 8000456:	b2a4      	uxth	r4, r4
 8000458:	fbb3 f1f8 	udiv	r1, r3, r8
 800045c:	fb08 3311 	mls	r3, r8, r1, r3
 8000460:	ea44 4403 	orr.w	r4, r4, r3, lsl #16
 8000464:	fb01 f307 	mul.w	r3, r1, r7
 8000468:	42a3      	cmp	r3, r4
 800046a:	d908      	bls.n	800047e <__udivmoddi4+0x276>
 800046c:	eb1c 0404 	adds.w	r4, ip, r4
 8000470:	f101 36ff 	add.w	r6, r1, #4294967295
 8000474:	d213      	bcs.n	800049e <__udivmoddi4+0x296>
 8000476:	42a3      	cmp	r3, r4
 8000478:	d911      	bls.n	800049e <__udivmoddi4+0x296>
 800047a:	3902      	subs	r1, #2
 800047c:	4464      	add	r4, ip
 800047e:	1ae4      	subs	r4, r4, r3
 8000480:	ea41 4100 	orr.w	r1, r1, r0, lsl #16
 8000484:	e739      	b.n	80002fa <__udivmoddi4+0xf2>
 8000486:	4604      	mov	r4, r0
 8000488:	e6f0      	b.n	800026c <__udivmoddi4+0x64>
 800048a:	4608      	mov	r0, r1
 800048c:	e706      	b.n	800029c <__udivmoddi4+0x94>
 800048e:	45c8      	cmp	r8, r9
 8000490:	d2ae      	bcs.n	80003f0 <__udivmoddi4+0x1e8>
 8000492:	ebb9 0e02 	subs.w	lr, r9, r2
 8000496:	eb63 0c07 	sbc.w	ip, r3, r7
 800049a:	3801      	subs	r0, #1
 800049c:	e7a8      	b.n	80003f0 <__udivmoddi4+0x1e8>
 800049e:	4631      	mov	r1, r6
 80004a0:	e7ed      	b.n	800047e <__udivmoddi4+0x276>
 80004a2:	4603      	mov	r3, r0
 80004a4:	e799      	b.n	80003da <__udivmoddi4+0x1d2>
 80004a6:	4630      	mov	r0, r6
 80004a8:	e7d4      	b.n	8000454 <__udivmoddi4+0x24c>
 80004aa:	46d6      	mov	lr, sl
 80004ac:	e77f      	b.n	80003ae <__udivmoddi4+0x1a6>
 80004ae:	4463      	add	r3, ip
 80004b0:	3802      	subs	r0, #2
 80004b2:	e74d      	b.n	8000350 <__udivmoddi4+0x148>
 80004b4:	4606      	mov	r6, r0
 80004b6:	4623      	mov	r3, r4
 80004b8:	4608      	mov	r0, r1
 80004ba:	e70f      	b.n	80002dc <__udivmoddi4+0xd4>
 80004bc:	3e02      	subs	r6, #2
 80004be:	4463      	add	r3, ip
 80004c0:	e730      	b.n	8000324 <__udivmoddi4+0x11c>
 80004c2:	bf00      	nop

080004c4 <__aeabi_idiv0>:
 80004c4:	4770      	bx	lr
 80004c6:	bf00      	nop

080004c8 <set_buzzer_tone>:
void SystemClock_Config(void);
static void MX_GPIO_Init(void);
static void MX_TIM5_Init(void);
/* USER CODE BEGIN PFP */

void set_buzzer_tone(uint16_t tone){
 80004c8:	b580      	push	{r7, lr}
 80004ca:	b082      	sub	sp, #8
 80004cc:	af00      	add	r7, sp, #0
 80004ce:	4603      	mov	r3, r0
 80004d0:	80fb      	strh	r3, [r7, #6]
	if(tone==0){
 80004d2:	88fb      	ldrh	r3, [r7, #6]
 80004d4:	2b00      	cmp	r3, #0
 80004d6:	d104      	bne.n	80004e2 <set_buzzer_tone+0x1a>
		__HAL_TIM_SET_COMPARE(&htim5, TIM_CHANNEL_1, 30000);
 80004d8:	4b07      	ldr	r3, [pc, #28]	@ (80004f8 <set_buzzer_tone+0x30>)
 80004da:	681b      	ldr	r3, [r3, #0]
 80004dc:	f247 5230 	movw	r2, #30000	@ 0x7530
 80004e0:	635a      	str	r2, [r3, #52]	@ 0x34
	}
	if(tone>0){
 80004e2:	88fb      	ldrh	r3, [r7, #6]
 80004e4:	2b00      	cmp	r3, #0
 80004e6:	d003      	beq.n	80004f0 <set_buzzer_tone+0x28>
		set_pwm_frequency(tone);
 80004e8:	88fb      	ldrh	r3, [r7, #6]
 80004ea:	4618      	mov	r0, r3
 80004ec:	f000 f806 	bl	80004fc <set_pwm_frequency>
	}

}
 80004f0:	bf00      	nop
 80004f2:	3708      	adds	r7, #8
 80004f4:	46bd      	mov	sp, r7
 80004f6:	bd80      	pop	{r7, pc}
 80004f8:	20000028 	.word	0x20000028

080004fc <set_pwm_frequency>:
void set_pwm_frequency(uint32_t frequency) {
 80004fc:	b580      	push	{r7, lr}
 80004fe:	b086      	sub	sp, #24
 8000500:	af00      	add	r7, sp, #0
 8000502:	6078      	str	r0, [r7, #4]
    uint32_t timer_clock = 100000000; // Main timer clock frequency (100 MHz)
 8000504:	4b22      	ldr	r3, [pc, #136]	@ (8000590 <set_pwm_frequency+0x94>)
 8000506:	613b      	str	r3, [r7, #16]
    uint32_t prescaler = 0;
 8000508:	2300      	movs	r3, #0
 800050a:	60fb      	str	r3, [r7, #12]
    uint32_t auto_reload = 0;
 800050c:	2300      	movs	r3, #0
 800050e:	617b      	str	r3, [r7, #20]

    // Stop the timer to safely reconfigure
    HAL_TIM_PWM_Stop(&htim5, TIM_CHANNEL_1);
 8000510:	2100      	movs	r1, #0
 8000512:	4820      	ldr	r0, [pc, #128]	@ (8000594 <set_pwm_frequency+0x98>)
 8000514:	f001 fade 	bl	8001ad4 <HAL_TIM_PWM_Stop>

    // Calculate the appropriate prescaler and auto-reload value
    if (frequency > 0 && frequency <= 20000) {
 8000518:	687b      	ldr	r3, [r7, #4]
 800051a:	2b00      	cmp	r3, #0
 800051c:	d030      	beq.n	8000580 <set_pwm_frequency+0x84>
 800051e:	687b      	ldr	r3, [r7, #4]
 8000520:	f644 6220 	movw	r2, #20000	@ 0x4e20
 8000524:	4293      	cmp	r3, r2
 8000526:	d82b      	bhi.n	8000580 <set_pwm_frequency+0x84>
        // Calculate total timer division factor needed to achieve the desired frequency
        uint32_t division_factor = timer_clock / frequency;
 8000528:	693a      	ldr	r2, [r7, #16]
 800052a:	687b      	ldr	r3, [r7, #4]
 800052c:	fbb2 f3f3 	udiv	r3, r2, r3
 8000530:	60bb      	str	r3, [r7, #8]

        // Split division factor into prescaler and ARR
        // Prescaler should be <= 65535, so limit accordingly
        prescaler = (division_factor - 1) / 20000; // Keep ARR <= 20000
 8000532:	68bb      	ldr	r3, [r7, #8]
 8000534:	3b01      	subs	r3, #1
 8000536:	4a18      	ldr	r2, [pc, #96]	@ (8000598 <set_pwm_frequency+0x9c>)
 8000538:	fba2 2303 	umull	r2, r3, r2, r3
 800053c:	0b9b      	lsrs	r3, r3, #14
 800053e:	60fb      	str	r3, [r7, #12]
        auto_reload = (division_factor / (prescaler + 1)) - 1;
 8000540:	68fb      	ldr	r3, [r7, #12]
 8000542:	3301      	adds	r3, #1
 8000544:	68ba      	ldr	r2, [r7, #8]
 8000546:	fbb2 f3f3 	udiv	r3, r2, r3
 800054a:	3b01      	subs	r3, #1
 800054c:	617b      	str	r3, [r7, #20]

        if (auto_reload > 20000) {
 800054e:	697b      	ldr	r3, [r7, #20]
 8000550:	f644 6220 	movw	r2, #20000	@ 0x4e20
 8000554:	4293      	cmp	r3, r2
 8000556:	d902      	bls.n	800055e <set_pwm_frequency+0x62>
            auto_reload = 20000 - 1; // Limit ARR to 20000 max
 8000558:	f644 631f 	movw	r3, #19999	@ 0x4e1f
 800055c:	617b      	str	r3, [r7, #20]
        }

        // Update timer settings
        __HAL_TIM_SET_PRESCALER(&htim5, prescaler);
 800055e:	4b0d      	ldr	r3, [pc, #52]	@ (8000594 <set_pwm_frequency+0x98>)
 8000560:	681b      	ldr	r3, [r3, #0]
 8000562:	68fa      	ldr	r2, [r7, #12]
 8000564:	629a      	str	r2, [r3, #40]	@ 0x28
        __HAL_TIM_SET_AUTORELOAD(&htim5, auto_reload);
 8000566:	4b0b      	ldr	r3, [pc, #44]	@ (8000594 <set_pwm_frequency+0x98>)
 8000568:	681b      	ldr	r3, [r3, #0]
 800056a:	697a      	ldr	r2, [r7, #20]
 800056c:	62da      	str	r2, [r3, #44]	@ 0x2c
 800056e:	4a09      	ldr	r2, [pc, #36]	@ (8000594 <set_pwm_frequency+0x98>)
 8000570:	697b      	ldr	r3, [r7, #20]
 8000572:	60d3      	str	r3, [r2, #12]

        // Set Compare value for 50% duty cycle
        __HAL_TIM_SET_COMPARE(&htim5, TIM_CHANNEL_1, (auto_reload + 1) / 2);
 8000574:	697b      	ldr	r3, [r7, #20]
 8000576:	1c5a      	adds	r2, r3, #1
 8000578:	4b06      	ldr	r3, [pc, #24]	@ (8000594 <set_pwm_frequency+0x98>)
 800057a:	681b      	ldr	r3, [r3, #0]
 800057c:	0852      	lsrs	r2, r2, #1
 800057e:	635a      	str	r2, [r3, #52]	@ 0x34
    }

    // Restart the timer
    HAL_TIM_PWM_Start(&htim5, TIM_CHANNEL_1);
 8000580:	2100      	movs	r1, #0
 8000582:	4804      	ldr	r0, [pc, #16]	@ (8000594 <set_pwm_frequency+0x98>)
 8000584:	f001 f9f6 	bl	8001974 <HAL_TIM_PWM_Start>
}
 8000588:	bf00      	nop
 800058a:	3718      	adds	r7, #24
 800058c:	46bd      	mov	sp, r7
 800058e:	bd80      	pop	{r7, pc}
 8000590:	05f5e100 	.word	0x05f5e100
 8000594:	20000028 	.word	0x20000028
 8000598:	d1b71759 	.word	0xd1b71759

0800059c <main>:
/**
  * @brief  The application entry point.
  * @retval int
  */
int main(void)
{
 800059c:	b580      	push	{r7, lr}
 800059e:	af00      	add	r7, sp, #0
  /* USER CODE END 1 */

  /* MCU Configuration--------------------------------------------------------*/

  /* Reset of all peripherals, Initializes the Flash interface and the Systick. */
  HAL_Init();
 80005a0:	f000 fa1c 	bl	80009dc <HAL_Init>
  /* USER CODE BEGIN Init */

  /* USER CODE END Init */

  /* Configure the system clock */
  SystemClock_Config();
 80005a4:	f000 f82c 	bl	8000600 <SystemClock_Config>
  /* USER CODE BEGIN SysInit */

  /* USER CODE END SysInit */

  /* Initialize all configured peripherals */
  MX_GPIO_Init();
 80005a8:	f000 f908 	bl	80007bc <MX_GPIO_Init>
  MX_TIM5_Init();
 80005ac:	f000 f890 	bl	80006d0 <MX_TIM5_Init>
  /* USER CODE BEGIN 2 */

  MX_TIM5_Init();
 80005b0:	f000 f88e 	bl	80006d0 <MX_TIM5_Init>
  while (1)

  {


	 HAL_Delay(1000);
 80005b4:	f44f 707a 	mov.w	r0, #1000	@ 0x3e8
 80005b8:	f000 fa82 	bl	8000ac0 <HAL_Delay>
	 set_buzzer_tone(0);
 80005bc:	2000      	movs	r0, #0
 80005be:	f7ff ff83 	bl	80004c8 <set_buzzer_tone>
	 HAL_Delay(5000);
 80005c2:	f241 3088 	movw	r0, #5000	@ 0x1388
 80005c6:	f000 fa7b 	bl	8000ac0 <HAL_Delay>
	 set_buzzer_tone(1);
 80005ca:	2001      	movs	r0, #1
 80005cc:	f7ff ff7c 	bl	80004c8 <set_buzzer_tone>
	 HAL_Delay(1000);
 80005d0:	f44f 707a 	mov.w	r0, #1000	@ 0x3e8
 80005d4:	f000 fa74 	bl	8000ac0 <HAL_Delay>
	 set_buzzer_tone(2);
 80005d8:	2002      	movs	r0, #2
 80005da:	f7ff ff75 	bl	80004c8 <set_buzzer_tone>
	 HAL_Delay(1000);
 80005de:	f44f 707a 	mov.w	r0, #1000	@ 0x3e8
 80005e2:	f000 fa6d 	bl	8000ac0 <HAL_Delay>
	 set_buzzer_tone(15);
 80005e6:	200f      	movs	r0, #15
 80005e8:	f7ff ff6e 	bl	80004c8 <set_buzzer_tone>
	 HAL_Delay(1000);
 80005ec:	f44f 707a 	mov.w	r0, #1000	@ 0x3e8
 80005f0:	f000 fa66 	bl	8000ac0 <HAL_Delay>
	 set_buzzer_tone(25);
 80005f4:	2019      	movs	r0, #25
 80005f6:	f7ff ff67 	bl	80004c8 <set_buzzer_tone>
	 HAL_Delay(1000);
 80005fa:	bf00      	nop
 80005fc:	e7da      	b.n	80005b4 <main+0x18>
	...

08000600 <SystemClock_Config>:
/**
  * @brief System Clock Configuration
  * @retval None
  */
void SystemClock_Config(void)
{
 8000600:	b580      	push	{r7, lr}
 8000602:	b094      	sub	sp, #80	@ 0x50
 8000604:	af00      	add	r7, sp, #0
  RCC_OscInitTypeDef RCC_OscInitStruct = {0};
 8000606:	f107 0320 	add.w	r3, r7, #32
 800060a:	2230      	movs	r2, #48	@ 0x30
 800060c:	2100      	movs	r1, #0
 800060e:	4618      	mov	r0, r3
 8000610:	f001 ff94 	bl	800253c <memset>
  RCC_ClkInitTypeDef RCC_ClkInitStruct = {0};
 8000614:	f107 030c 	add.w	r3, r7, #12
 8000618:	2200      	movs	r2, #0
 800061a:	601a      	str	r2, [r3, #0]
 800061c:	605a      	str	r2, [r3, #4]
 800061e:	609a      	str	r2, [r3, #8]
 8000620:	60da      	str	r2, [r3, #12]
 8000622:	611a      	str	r2, [r3, #16]

  /** Configure the main internal regulator output voltage
  */
  __HAL_RCC_PWR_CLK_ENABLE();
 8000624:	2300      	movs	r3, #0
 8000626:	60bb      	str	r3, [r7, #8]
 8000628:	4b27      	ldr	r3, [pc, #156]	@ (80006c8 <SystemClock_Config+0xc8>)
 800062a:	6c1b      	ldr	r3, [r3, #64]	@ 0x40
 800062c:	4a26      	ldr	r2, [pc, #152]	@ (80006c8 <SystemClock_Config+0xc8>)
 800062e:	f043 5380 	orr.w	r3, r3, #268435456	@ 0x10000000
 8000632:	6413      	str	r3, [r2, #64]	@ 0x40
 8000634:	4b24      	ldr	r3, [pc, #144]	@ (80006c8 <SystemClock_Config+0xc8>)
 8000636:	6c1b      	ldr	r3, [r3, #64]	@ 0x40
 8000638:	f003 5380 	and.w	r3, r3, #268435456	@ 0x10000000
 800063c:	60bb      	str	r3, [r7, #8]
 800063e:	68bb      	ldr	r3, [r7, #8]
  __HAL_PWR_VOLTAGESCALING_CONFIG(PWR_REGULATOR_VOLTAGE_SCALE1);
 8000640:	2300      	movs	r3, #0
 8000642:	607b      	str	r3, [r7, #4]
 8000644:	4b21      	ldr	r3, [pc, #132]	@ (80006cc <SystemClock_Config+0xcc>)
 8000646:	681b      	ldr	r3, [r3, #0]
 8000648:	4a20      	ldr	r2, [pc, #128]	@ (80006cc <SystemClock_Config+0xcc>)
 800064a:	f443 4340 	orr.w	r3, r3, #49152	@ 0xc000
 800064e:	6013      	str	r3, [r2, #0]
 8000650:	4b1e      	ldr	r3, [pc, #120]	@ (80006cc <SystemClock_Config+0xcc>)
 8000652:	681b      	ldr	r3, [r3, #0]
 8000654:	f403 4340 	and.w	r3, r3, #49152	@ 0xc000
 8000658:	607b      	str	r3, [r7, #4]
 800065a:	687b      	ldr	r3, [r7, #4]

  /** Initializes the RCC Oscillators according to the specified parameters
  * in the RCC_OscInitTypeDef structure.
  */
  RCC_OscInitStruct.OscillatorType = RCC_OSCILLATORTYPE_HSI;
 800065c:	2302      	movs	r3, #2
 800065e:	623b      	str	r3, [r7, #32]
  RCC_OscInitStruct.HSIState = RCC_HSI_ON;
 8000660:	2301      	movs	r3, #1
 8000662:	62fb      	str	r3, [r7, #44]	@ 0x2c
  RCC_OscInitStruct.HSICalibrationValue = RCC_HSICALIBRATION_DEFAULT;
 8000664:	2310      	movs	r3, #16
 8000666:	633b      	str	r3, [r7, #48]	@ 0x30
  RCC_OscInitStruct.PLL.PLLState = RCC_PLL_ON;
 8000668:	2302      	movs	r3, #2
 800066a:	63bb      	str	r3, [r7, #56]	@ 0x38
  RCC_OscInitStruct.PLL.PLLSource = RCC_PLLSOURCE_HSI;
 800066c:	2300      	movs	r3, #0
 800066e:	63fb      	str	r3, [r7, #60]	@ 0x3c
  RCC_OscInitStruct.PLL.PLLM = 8;
 8000670:	2308      	movs	r3, #8
 8000672:	643b      	str	r3, [r7, #64]	@ 0x40
  RCC_OscInitStruct.PLL.PLLN = 100;
 8000674:	2364      	movs	r3, #100	@ 0x64
 8000676:	647b      	str	r3, [r7, #68]	@ 0x44
  RCC_OscInitStruct.PLL.PLLP = RCC_PLLP_DIV2;
 8000678:	2302      	movs	r3, #2
 800067a:	64bb      	str	r3, [r7, #72]	@ 0x48
  RCC_OscInitStruct.PLL.PLLQ = 4;
 800067c:	2304      	movs	r3, #4
 800067e:	64fb      	str	r3, [r7, #76]	@ 0x4c
  if (HAL_RCC_OscConfig(&RCC_OscInitStruct) != HAL_OK)
 8000680:	f107 0320 	add.w	r3, r7, #32
 8000684:	4618      	mov	r0, r3
 8000686:	f000 fca9 	bl	8000fdc <HAL_RCC_OscConfig>
 800068a:	4603      	mov	r3, r0
 800068c:	2b00      	cmp	r3, #0
 800068e:	d001      	beq.n	8000694 <SystemClock_Config+0x94>
  {
    Error_Handler();
 8000690:	f000 f8ae 	bl	80007f0 <Error_Handler>
  }

  /** Initializes the CPU, AHB and APB buses clocks
  */
  RCC_ClkInitStruct.ClockType = RCC_CLOCKTYPE_HCLK|RCC_CLOCKTYPE_SYSCLK
 8000694:	230f      	movs	r3, #15
 8000696:	60fb      	str	r3, [r7, #12]
                              |RCC_CLOCKTYPE_PCLK1|RCC_CLOCKTYPE_PCLK2;
  RCC_ClkInitStruct.SYSCLKSource = RCC_SYSCLKSOURCE_PLLCLK;
 8000698:	2302      	movs	r3, #2
 800069a:	613b      	str	r3, [r7, #16]
  RCC_ClkInitStruct.AHBCLKDivider = RCC_SYSCLK_DIV1;
 800069c:	2300      	movs	r3, #0
 800069e:	617b      	str	r3, [r7, #20]
  RCC_ClkInitStruct.APB1CLKDivider = RCC_HCLK_DIV2;
 80006a0:	f44f 5380 	mov.w	r3, #4096	@ 0x1000
 80006a4:	61bb      	str	r3, [r7, #24]
  RCC_ClkInitStruct.APB2CLKDivider = RCC_HCLK_DIV1;
 80006a6:	2300      	movs	r3, #0
 80006a8:	61fb      	str	r3, [r7, #28]

  if (HAL_RCC_ClockConfig(&RCC_ClkInitStruct, FLASH_LATENCY_3) != HAL_OK)
 80006aa:	f107 030c 	add.w	r3, r7, #12
 80006ae:	2103      	movs	r1, #3
 80006b0:	4618      	mov	r0, r3
 80006b2:	f000 ff0b 	bl	80014cc <HAL_RCC_ClockConfig>
 80006b6:	4603      	mov	r3, r0
 80006b8:	2b00      	cmp	r3, #0
 80006ba:	d001      	beq.n	80006c0 <SystemClock_Config+0xc0>
  {
    Error_Handler();
 80006bc:	f000 f898 	bl	80007f0 <Error_Handler>
  }
}
 80006c0:	bf00      	nop
 80006c2:	3750      	adds	r7, #80	@ 0x50
 80006c4:	46bd      	mov	sp, r7
 80006c6:	bd80      	pop	{r7, pc}
 80006c8:	40023800 	.word	0x40023800
 80006cc:	40007000 	.word	0x40007000

080006d0 <MX_TIM5_Init>:
  * @brief TIM5 Initialization Function
  * @param None
  * @retval None
  */
static void MX_TIM5_Init(void)
{
 80006d0:	b580      	push	{r7, lr}
 80006d2:	b08e      	sub	sp, #56	@ 0x38
 80006d4:	af00      	add	r7, sp, #0

  /* USER CODE BEGIN TIM5_Init 0 */

  /* USER CODE END TIM5_Init 0 */

  TIM_ClockConfigTypeDef sClockSourceConfig = {0};
 80006d6:	f107 0328 	add.w	r3, r7, #40	@ 0x28
 80006da:	2200      	movs	r2, #0
 80006dc:	601a      	str	r2, [r3, #0]
 80006de:	605a      	str	r2, [r3, #4]
 80006e0:	609a      	str	r2, [r3, #8]
 80006e2:	60da      	str	r2, [r3, #12]
  TIM_MasterConfigTypeDef sMasterConfig = {0};
 80006e4:	f107 0320 	add.w	r3, r7, #32
 80006e8:	2200      	movs	r2, #0
 80006ea:	601a      	str	r2, [r3, #0]
 80006ec:	605a      	str	r2, [r3, #4]
  TIM_OC_InitTypeDef sConfigOC = {0};
 80006ee:	1d3b      	adds	r3, r7, #4
 80006f0:	2200      	movs	r2, #0
 80006f2:	601a      	str	r2, [r3, #0]
 80006f4:	605a      	str	r2, [r3, #4]
 80006f6:	609a      	str	r2, [r3, #8]
 80006f8:	60da      	str	r2, [r3, #12]
 80006fa:	611a      	str	r2, [r3, #16]
 80006fc:	615a      	str	r2, [r3, #20]
 80006fe:	619a      	str	r2, [r3, #24]

  /* USER CODE BEGIN TIM5_Init 1 */

  /* USER CODE END TIM5_Init 1 */
  htim5.Instance = TIM5;
 8000700:	4b2c      	ldr	r3, [pc, #176]	@ (80007b4 <MX_TIM5_Init+0xe4>)
 8000702:	4a2d      	ldr	r2, [pc, #180]	@ (80007b8 <MX_TIM5_Init+0xe8>)
 8000704:	601a      	str	r2, [r3, #0]
  htim5.Init.Prescaler = 49999;
 8000706:	4b2b      	ldr	r3, [pc, #172]	@ (80007b4 <MX_TIM5_Init+0xe4>)
 8000708:	f24c 324f 	movw	r2, #49999	@ 0xc34f
 800070c:	605a      	str	r2, [r3, #4]
  htim5.Init.CounterMode = TIM_COUNTERMODE_UP;
 800070e:	4b29      	ldr	r3, [pc, #164]	@ (80007b4 <MX_TIM5_Init+0xe4>)
 8000710:	2200      	movs	r2, #0
 8000712:	609a      	str	r2, [r3, #8]
  htim5.Init.Period = 3;
 8000714:	4b27      	ldr	r3, [pc, #156]	@ (80007b4 <MX_TIM5_Init+0xe4>)
 8000716:	2203      	movs	r2, #3
 8000718:	60da      	str	r2, [r3, #12]
  htim5.Init.ClockDivision = TIM_CLOCKDIVISION_DIV1;
 800071a:	4b26      	ldr	r3, [pc, #152]	@ (80007b4 <MX_TIM5_Init+0xe4>)
 800071c:	2200      	movs	r2, #0
 800071e:	611a      	str	r2, [r3, #16]
  htim5.Init.AutoReloadPreload = TIM_AUTORELOAD_PRELOAD_DISABLE;
 8000720:	4b24      	ldr	r3, [pc, #144]	@ (80007b4 <MX_TIM5_Init+0xe4>)
 8000722:	2200      	movs	r2, #0
 8000724:	619a      	str	r2, [r3, #24]
  if (HAL_TIM_Base_Init(&htim5) != HAL_OK)
 8000726:	4823      	ldr	r0, [pc, #140]	@ (80007b4 <MX_TIM5_Init+0xe4>)
 8000728:	f001 f87c 	bl	8001824 <HAL_TIM_Base_Init>
 800072c:	4603      	mov	r3, r0
 800072e:	2b00      	cmp	r3, #0
 8000730:	d001      	beq.n	8000736 <MX_TIM5_Init+0x66>
  {
    Error_Handler();
 8000732:	f000 f85d 	bl	80007f0 <Error_Handler>
  }
  sClockSourceConfig.ClockSource = TIM_CLOCKSOURCE_INTERNAL;
 8000736:	f44f 5380 	mov.w	r3, #4096	@ 0x1000
 800073a:	62bb      	str	r3, [r7, #40]	@ 0x28
  if (HAL_TIM_ConfigClockSource(&htim5, &sClockSourceConfig) != HAL_OK)
 800073c:	f107 0328 	add.w	r3, r7, #40	@ 0x28
 8000740:	4619      	mov	r1, r3
 8000742:	481c      	ldr	r0, [pc, #112]	@ (80007b4 <MX_TIM5_Init+0xe4>)
 8000744:	f001 faec 	bl	8001d20 <HAL_TIM_ConfigClockSource>
 8000748:	4603      	mov	r3, r0
 800074a:	2b00      	cmp	r3, #0
 800074c:	d001      	beq.n	8000752 <MX_TIM5_Init+0x82>
  {
    Error_Handler();
 800074e:	f000 f84f 	bl	80007f0 <Error_Handler>
  }
  if (HAL_TIM_PWM_Init(&htim5) != HAL_OK)
 8000752:	4818      	ldr	r0, [pc, #96]	@ (80007b4 <MX_TIM5_Init+0xe4>)
 8000754:	f001 f8b5 	bl	80018c2 <HAL_TIM_PWM_Init>
 8000758:	4603      	mov	r3, r0
 800075a:	2b00      	cmp	r3, #0
 800075c:	d001      	beq.n	8000762 <MX_TIM5_Init+0x92>
  {
    Error_Handler();
 800075e:	f000 f847 	bl	80007f0 <Error_Handler>
  }
  sMasterConfig.MasterOutputTrigger = TIM_TRGO_RESET;
 8000762:	2300      	movs	r3, #0
 8000764:	623b      	str	r3, [r7, #32]
  sMasterConfig.MasterSlaveMode = TIM_MASTERSLAVEMODE_DISABLE;
 8000766:	2300      	movs	r3, #0
 8000768:	627b      	str	r3, [r7, #36]	@ 0x24
  if (HAL_TIMEx_MasterConfigSynchronization(&htim5, &sMasterConfig) != HAL_OK)
 800076a:	f107 0320 	add.w	r3, r7, #32
 800076e:	4619      	mov	r1, r3
 8000770:	4810      	ldr	r0, [pc, #64]	@ (80007b4 <MX_TIM5_Init+0xe4>)
 8000772:	f001 fe75 	bl	8002460 <HAL_TIMEx_MasterConfigSynchronization>
 8000776:	4603      	mov	r3, r0
 8000778:	2b00      	cmp	r3, #0
 800077a:	d001      	beq.n	8000780 <MX_TIM5_Init+0xb0>
  {
    Error_Handler();
 800077c:	f000 f838 	bl	80007f0 <Error_Handler>
  }
  sConfigOC.OCMode = TIM_OCMODE_PWM1;
 8000780:	2360      	movs	r3, #96	@ 0x60
 8000782:	607b      	str	r3, [r7, #4]
  sConfigOC.Pulse = 0;
 8000784:	2300      	movs	r3, #0
 8000786:	60bb      	str	r3, [r7, #8]
  sConfigOC.OCPolarity = TIM_OCPOLARITY_HIGH;
 8000788:	2300      	movs	r3, #0
 800078a:	60fb      	str	r3, [r7, #12]
  sConfigOC.OCFastMode = TIM_OCFAST_DISABLE;
 800078c:	2300      	movs	r3, #0
 800078e:	617b      	str	r3, [r7, #20]
  if (HAL_TIM_PWM_ConfigChannel(&htim5, &sConfigOC, TIM_CHANNEL_1) != HAL_OK)
 8000790:	1d3b      	adds	r3, r7, #4
 8000792:	2200      	movs	r2, #0
 8000794:	4619      	mov	r1, r3
 8000796:	4807      	ldr	r0, [pc, #28]	@ (80007b4 <MX_TIM5_Init+0xe4>)
 8000798:	f001 fa00 	bl	8001b9c <HAL_TIM_PWM_ConfigChannel>
 800079c:	4603      	mov	r3, r0
 800079e:	2b00      	cmp	r3, #0
 80007a0:	d001      	beq.n	80007a6 <MX_TIM5_Init+0xd6>
  {
    Error_Handler();
 80007a2:	f000 f825 	bl	80007f0 <Error_Handler>
  }
  /* USER CODE BEGIN TIM5_Init 2 */

  /* USER CODE END TIM5_Init 2 */
  HAL_TIM_MspPostInit(&htim5);
 80007a6:	4803      	ldr	r0, [pc, #12]	@ (80007b4 <MX_TIM5_Init+0xe4>)
 80007a8:	f000 f872 	bl	8000890 <HAL_TIM_MspPostInit>

}
 80007ac:	bf00      	nop
 80007ae:	3738      	adds	r7, #56	@ 0x38
 80007b0:	46bd      	mov	sp, r7
 80007b2:	bd80      	pop	{r7, pc}
 80007b4:	20000028 	.word	0x20000028
 80007b8:	40000c00 	.word	0x40000c00

080007bc <MX_GPIO_Init>:
  * @brief GPIO Initialization Function
  * @param None
  * @retval None
  */
static void MX_GPIO_Init(void)
{
 80007bc:	b480      	push	{r7}
 80007be:	b083      	sub	sp, #12
 80007c0:	af00      	add	r7, sp, #0
/* USER CODE BEGIN MX_GPIO_Init_1 */
/* USER CODE END MX_GPIO_Init_1 */

  /* GPIO Ports Clock Enable */
  __HAL_RCC_GPIOA_CLK_ENABLE();
 80007c2:	2300      	movs	r3, #0
 80007c4:	607b      	str	r3, [r7, #4]
 80007c6:	4b09      	ldr	r3, [pc, #36]	@ (80007ec <MX_GPIO_Init+0x30>)
 80007c8:	6b1b      	ldr	r3, [r3, #48]	@ 0x30
 80007ca:	4a08      	ldr	r2, [pc, #32]	@ (80007ec <MX_GPIO_Init+0x30>)
 80007cc:	f043 0301 	orr.w	r3, r3, #1
 80007d0:	6313      	str	r3, [r2, #48]	@ 0x30
 80007d2:	4b06      	ldr	r3, [pc, #24]	@ (80007ec <MX_GPIO_Init+0x30>)
 80007d4:	6b1b      	ldr	r3, [r3, #48]	@ 0x30
 80007d6:	f003 0301 	and.w	r3, r3, #1
 80007da:	607b      	str	r3, [r7, #4]
 80007dc:	687b      	ldr	r3, [r7, #4]

/* USER CODE BEGIN MX_GPIO_Init_2 */
/* USER CODE END MX_GPIO_Init_2 */
}
 80007de:	bf00      	nop
 80007e0:	370c      	adds	r7, #12
 80007e2:	46bd      	mov	sp, r7
 80007e4:	f85d 7b04 	ldr.w	r7, [sp], #4
 80007e8:	4770      	bx	lr
 80007ea:	bf00      	nop
 80007ec:	40023800 	.word	0x40023800

080007f0 <Error_Handler>:
/**
  * @brief  This function is executed in case of error occurrence.
  * @retval None
  */
void Error_Handler(void)
{
 80007f0:	b480      	push	{r7}
 80007f2:	af00      	add	r7, sp, #0
  \details Disables IRQ interrupts by setting special-purpose register PRIMASK.
           Can only be executed in Privileged modes.
 */
__STATIC_FORCEINLINE void __disable_irq(void)
{
  __ASM volatile ("cpsid i" : : : "memory");
 80007f4:	b672      	cpsid	i
}
 80007f6:	bf00      	nop
  /* USER CODE BEGIN Error_Handler_Debug */
  /* User can add his own implementation to report the HAL error return state */
  __disable_irq();
  while (1)
 80007f8:	bf00      	nop
 80007fa:	e7fd      	b.n	80007f8 <Error_Handler+0x8>

080007fc <HAL_MspInit>:
void HAL_TIM_MspPostInit(TIM_HandleTypeDef *htim);
                    /**
  * Initializes the Global MSP.
  */
void HAL_MspInit(void)
{
 80007fc:	b480      	push	{r7}
 80007fe:	b083      	sub	sp, #12
 8000800:	af00      	add	r7, sp, #0

  /* USER CODE BEGIN MspInit 0 */

  /* USER CODE END MspInit 0 */

  __HAL_RCC_SYSCFG_CLK_ENABLE();
 8000802:	2300      	movs	r3, #0
 8000804:	607b      	str	r3, [r7, #4]
 8000806:	4b10      	ldr	r3, [pc, #64]	@ (8000848 <HAL_MspInit+0x4c>)
 8000808:	6c5b      	ldr	r3, [r3, #68]	@ 0x44
 800080a:	4a0f      	ldr	r2, [pc, #60]	@ (8000848 <HAL_MspInit+0x4c>)
 800080c:	f443 4380 	orr.w	r3, r3, #16384	@ 0x4000
 8000810:	6453      	str	r3, [r2, #68]	@ 0x44
 8000812:	4b0d      	ldr	r3, [pc, #52]	@ (8000848 <HAL_MspInit+0x4c>)
 8000814:	6c5b      	ldr	r3, [r3, #68]	@ 0x44
 8000816:	f403 4380 	and.w	r3, r3, #16384	@ 0x4000
 800081a:	607b      	str	r3, [r7, #4]
 800081c:	687b      	ldr	r3, [r7, #4]
  __HAL_RCC_PWR_CLK_ENABLE();
 800081e:	2300      	movs	r3, #0
 8000820:	603b      	str	r3, [r7, #0]
 8000822:	4b09      	ldr	r3, [pc, #36]	@ (8000848 <HAL_MspInit+0x4c>)
 8000824:	6c1b      	ldr	r3, [r3, #64]	@ 0x40
 8000826:	4a08      	ldr	r2, [pc, #32]	@ (8000848 <HAL_MspInit+0x4c>)
 8000828:	f043 5380 	orr.w	r3, r3, #268435456	@ 0x10000000
 800082c:	6413      	str	r3, [r2, #64]	@ 0x40
 800082e:	4b06      	ldr	r3, [pc, #24]	@ (8000848 <HAL_MspInit+0x4c>)
 8000830:	6c1b      	ldr	r3, [r3, #64]	@ 0x40
 8000832:	f003 5380 	and.w	r3, r3, #268435456	@ 0x10000000
 8000836:	603b      	str	r3, [r7, #0]
 8000838:	683b      	ldr	r3, [r7, #0]
  /* System interrupt init*/

  /* USER CODE BEGIN MspInit 1 */

  /* USER CODE END MspInit 1 */
}
 800083a:	bf00      	nop
 800083c:	370c      	adds	r7, #12
 800083e:	46bd      	mov	sp, r7
 8000840:	f85d 7b04 	ldr.w	r7, [sp], #4
 8000844:	4770      	bx	lr
 8000846:	bf00      	nop
 8000848:	40023800 	.word	0x40023800

0800084c <HAL_TIM_Base_MspInit>:
* This function configures the hardware resources used in this example
* @param htim_base: TIM_Base handle pointer
* @retval None
*/
void HAL_TIM_Base_MspInit(TIM_HandleTypeDef* htim_base)
{
 800084c:	b480      	push	{r7}
 800084e:	b085      	sub	sp, #20
 8000850:	af00      	add	r7, sp, #0
 8000852:	6078      	str	r0, [r7, #4]
  if(htim_base->Instance==TIM5)
 8000854:	687b      	ldr	r3, [r7, #4]
 8000856:	681b      	ldr	r3, [r3, #0]
 8000858:	4a0b      	ldr	r2, [pc, #44]	@ (8000888 <HAL_TIM_Base_MspInit+0x3c>)
 800085a:	4293      	cmp	r3, r2
 800085c:	d10d      	bne.n	800087a <HAL_TIM_Base_MspInit+0x2e>
  {
  /* USER CODE BEGIN TIM5_MspInit 0 */

  /* USER CODE END TIM5_MspInit 0 */
    /* Peripheral clock enable */
    __HAL_RCC_TIM5_CLK_ENABLE();
 800085e:	2300      	movs	r3, #0
 8000860:	60fb      	str	r3, [r7, #12]
 8000862:	4b0a      	ldr	r3, [pc, #40]	@ (800088c <HAL_TIM_Base_MspInit+0x40>)
 8000864:	6c1b      	ldr	r3, [r3, #64]	@ 0x40
 8000866:	4a09      	ldr	r2, [pc, #36]	@ (800088c <HAL_TIM_Base_MspInit+0x40>)
 8000868:	f043 0308 	orr.w	r3, r3, #8
 800086c:	6413      	str	r3, [r2, #64]	@ 0x40
 800086e:	4b07      	ldr	r3, [pc, #28]	@ (800088c <HAL_TIM_Base_MspInit+0x40>)
 8000870:	6c1b      	ldr	r3, [r3, #64]	@ 0x40
 8000872:	f003 0308 	and.w	r3, r3, #8
 8000876:	60fb      	str	r3, [r7, #12]
 8000878:	68fb      	ldr	r3, [r7, #12]

  /* USER CODE END TIM5_MspInit 1 */

  }

}
 800087a:	bf00      	nop
 800087c:	3714      	adds	r7, #20
 800087e:	46bd      	mov	sp, r7
 8000880:	f85d 7b04 	ldr.w	r7, [sp], #4
 8000884:	4770      	bx	lr
 8000886:	bf00      	nop
 8000888:	40000c00 	.word	0x40000c00
 800088c:	40023800 	.word	0x40023800

08000890 <HAL_TIM_MspPostInit>:

void HAL_TIM_MspPostInit(TIM_HandleTypeDef* htim)
{
 8000890:	b580      	push	{r7, lr}
 8000892:	b088      	sub	sp, #32
 8000894:	af00      	add	r7, sp, #0
 8000896:	6078      	str	r0, [r7, #4]
  GPIO_InitTypeDef GPIO_InitStruct = {0};
 8000898:	f107 030c 	add.w	r3, r7, #12
 800089c:	2200      	movs	r2, #0
 800089e:	601a      	str	r2, [r3, #0]
 80008a0:	605a      	str	r2, [r3, #4]
 80008a2:	609a      	str	r2, [r3, #8]
 80008a4:	60da      	str	r2, [r3, #12]
 80008a6:	611a      	str	r2, [r3, #16]
  if(htim->Instance==TIM5)
 80008a8:	687b      	ldr	r3, [r7, #4]
 80008aa:	681b      	ldr	r3, [r3, #0]
 80008ac:	4a12      	ldr	r2, [pc, #72]	@ (80008f8 <HAL_TIM_MspPostInit+0x68>)
 80008ae:	4293      	cmp	r3, r2
 80008b0:	d11d      	bne.n	80008ee <HAL_TIM_MspPostInit+0x5e>
  {
  /* USER CODE BEGIN TIM5_MspPostInit 0 */

  /* USER CODE END TIM5_MspPostInit 0 */

    __HAL_RCC_GPIOA_CLK_ENABLE();
 80008b2:	2300      	movs	r3, #0
 80008b4:	60bb      	str	r3, [r7, #8]
 80008b6:	4b11      	ldr	r3, [pc, #68]	@ (80008fc <HAL_TIM_MspPostInit+0x6c>)
 80008b8:	6b1b      	ldr	r3, [r3, #48]	@ 0x30
 80008ba:	4a10      	ldr	r2, [pc, #64]	@ (80008fc <HAL_TIM_MspPostInit+0x6c>)
 80008bc:	f043 0301 	orr.w	r3, r3, #1
 80008c0:	6313      	str	r3, [r2, #48]	@ 0x30
 80008c2:	4b0e      	ldr	r3, [pc, #56]	@ (80008fc <HAL_TIM_MspPostInit+0x6c>)
 80008c4:	6b1b      	ldr	r3, [r3, #48]	@ 0x30
 80008c6:	f003 0301 	and.w	r3, r3, #1
 80008ca:	60bb      	str	r3, [r7, #8]
 80008cc:	68bb      	ldr	r3, [r7, #8]
    /**TIM5 GPIO Configuration
    PA0-WKUP     ------> TIM5_CH1
    */
    GPIO_InitStruct.Pin = GPIO_PIN_0;
 80008ce:	2301      	movs	r3, #1
 80008d0:	60fb      	str	r3, [r7, #12]
    GPIO_InitStruct.Mode = GPIO_MODE_AF_PP;
 80008d2:	2302      	movs	r3, #2
 80008d4:	613b      	str	r3, [r7, #16]
    GPIO_InitStruct.Pull = GPIO_NOPULL;
 80008d6:	2300      	movs	r3, #0
 80008d8:	617b      	str	r3, [r7, #20]
    GPIO_InitStruct.Speed = GPIO_SPEED_FREQ_LOW;
 80008da:	2300      	movs	r3, #0
 80008dc:	61bb      	str	r3, [r7, #24]
    GPIO_InitStruct.Alternate = GPIO_AF2_TIM5;
 80008de:	2302      	movs	r3, #2
 80008e0:	61fb      	str	r3, [r7, #28]
    HAL_GPIO_Init(GPIOA, &GPIO_InitStruct);
 80008e2:	f107 030c 	add.w	r3, r7, #12
 80008e6:	4619      	mov	r1, r3
 80008e8:	4805      	ldr	r0, [pc, #20]	@ (8000900 <HAL_TIM_MspPostInit+0x70>)
 80008ea:	f000 f9f3 	bl	8000cd4 <HAL_GPIO_Init>
  /* USER CODE BEGIN TIM5_MspPostInit 1 */

  /* USER CODE END TIM5_MspPostInit 1 */
  }

}
 80008ee:	bf00      	nop
 80008f0:	3720      	adds	r7, #32
 80008f2:	46bd      	mov	sp, r7
 80008f4:	bd80      	pop	{r7, pc}
 80008f6:	bf00      	nop
 80008f8:	40000c00 	.word	0x40000c00
 80008fc:	40023800 	.word	0x40023800
 8000900:	40020000 	.word	0x40020000

08000904 <NMI_Handler>:
/******************************************************************************/
/**
  * @brief This function handles Non maskable interrupt.
  */
void NMI_Handler(void)
{
 8000904:	b480      	push	{r7}
 8000906:	af00      	add	r7, sp, #0
  /* USER CODE BEGIN NonMaskableInt_IRQn 0 */

  /* USER CODE END NonMaskableInt_IRQn 0 */
  /* USER CODE BEGIN NonMaskableInt_IRQn 1 */
   while (1)
 8000908:	bf00      	nop
 800090a:	e7fd      	b.n	8000908 <NMI_Handler+0x4>

0800090c <HardFault_Handler>:

/**
  * @brief This function handles Hard fault interrupt.
  */
void HardFault_Handler(void)
{
 800090c:	b480      	push	{r7}
 800090e:	af00      	add	r7, sp, #0
  /* USER CODE BEGIN HardFault_IRQn 0 */

  /* USER CODE END HardFault_IRQn 0 */
  while (1)
 8000910:	bf00      	nop
 8000912:	e7fd      	b.n	8000910 <HardFault_Handler+0x4>

08000914 <MemManage_Handler>:

/**
  * @brief This function handles Memory management fault.
  */
void MemManage_Handler(void)
{
 8000914:	b480      	push	{r7}
 8000916:	af00      	add	r7, sp, #0
  /* USER CODE BEGIN MemoryManagement_IRQn 0 */

  /* USER CODE END MemoryManagement_IRQn 0 */
  while (1)
 8000918:	bf00      	nop
 800091a:	e7fd      	b.n	8000918 <MemManage_Handler+0x4>

0800091c <BusFault_Handler>:

/**
  * @brief This function handles Pre-fetch fault, memory access fault.
  */
void BusFault_Handler(void)
{
 800091c:	b480      	push	{r7}
 800091e:	af00      	add	r7, sp, #0
  /* USER CODE BEGIN BusFault_IRQn 0 */

  /* USER CODE END BusFault_IRQn 0 */
  while (1)
 8000920:	bf00      	nop
 8000922:	e7fd      	b.n	8000920 <BusFault_Handler+0x4>

08000924 <UsageFault_Handler>:

/**
  * @brief This function handles Undefined instruction or illegal state.
  */
void UsageFault_Handler(void)
{
 8000924:	b480      	push	{r7}
 8000926:	af00      	add	r7, sp, #0
  /* USER CODE BEGIN UsageFault_IRQn 0 */

  /* USER CODE END UsageFault_IRQn 0 */
  while (1)
 8000928:	bf00      	nop
 800092a:	e7fd      	b.n	8000928 <UsageFault_Handler+0x4>

0800092c <SVC_Handler>:

/**
  * @brief This function handles System service call via SWI instruction.
  */
void SVC_Handler(void)
{
 800092c:	b480      	push	{r7}
 800092e:	af00      	add	r7, sp, #0

  /* USER CODE END SVCall_IRQn 0 */
  /* USER CODE BEGIN SVCall_IRQn 1 */

  /* USER CODE END SVCall_IRQn 1 */
}
 8000930:	bf00      	nop
 8000932:	46bd      	mov	sp, r7
 8000934:	f85d 7b04 	ldr.w	r7, [sp], #4
 8000938:	4770      	bx	lr

0800093a <DebugMon_Handler>:

/**
  * @brief This function handles Debug monitor.
  */
void DebugMon_Handler(void)
{
 800093a:	b480      	push	{r7}
 800093c:	af00      	add	r7, sp, #0

  /* USER CODE END DebugMonitor_IRQn 0 */
  /* USER CODE BEGIN DebugMonitor_IRQn 1 */

  /* USER CODE END DebugMonitor_IRQn 1 */
}
 800093e:	bf00      	nop
 8000940:	46bd      	mov	sp, r7
 8000942:	f85d 7b04 	ldr.w	r7, [sp], #4
 8000946:	4770      	bx	lr

08000948 <PendSV_Handler>:

/**
  * @brief This function handles Pendable request for system service.
  */
void PendSV_Handler(void)
{
 8000948:	b480      	push	{r7}
 800094a:	af00      	add	r7, sp, #0

  /* USER CODE END PendSV_IRQn 0 */
  /* USER CODE BEGIN PendSV_IRQn 1 */

  /* USER CODE END PendSV_IRQn 1 */
}
 800094c:	bf00      	nop
 800094e:	46bd      	mov	sp, r7
 8000950:	f85d 7b04 	ldr.w	r7, [sp], #4
 8000954:	4770      	bx	lr

08000956 <SysTick_Handler>:

/**
  * @brief This function handles System tick timer.
  */
void SysTick_Handler(void)
{
 8000956:	b580      	push	{r7, lr}
 8000958:	af00      	add	r7, sp, #0
  /* USER CODE BEGIN SysTick_IRQn 0 */

  /* USER CODE END SysTick_IRQn 0 */
  HAL_IncTick();
 800095a:	f000 f891 	bl	8000a80 <HAL_IncTick>
  /* USER CODE BEGIN SysTick_IRQn 1 */

  /* USER CODE END SysTick_IRQn 1 */
}
 800095e:	bf00      	nop
 8000960:	bd80      	pop	{r7, pc}
	...

08000964 <SystemInit>:
  *         configuration.
  * @param  None
  * @retval None
  */
void SystemInit(void)
{
 8000964:	b480      	push	{r7}
 8000966:	af00      	add	r7, sp, #0
  /* FPU settings ------------------------------------------------------------*/
  #if (__FPU_PRESENT == 1) && (__FPU_USED == 1)
    SCB->CPACR |= ((3UL << 10*2)|(3UL << 11*2));  /* set CP10 and CP11 Full Access */
 8000968:	4b06      	ldr	r3, [pc, #24]	@ (8000984 <SystemInit+0x20>)
 800096a:	f8d3 3088 	ldr.w	r3, [r3, #136]	@ 0x88
 800096e:	4a05      	ldr	r2, [pc, #20]	@ (8000984 <SystemInit+0x20>)
 8000970:	f443 0370 	orr.w	r3, r3, #15728640	@ 0xf00000
 8000974:	f8c2 3088 	str.w	r3, [r2, #136]	@ 0x88

  /* Configure the Vector Table location -------------------------------------*/
#if defined(USER_VECT_TAB_ADDRESS)
  SCB->VTOR = VECT_TAB_BASE_ADDRESS | VECT_TAB_OFFSET; /* Vector Table Relocation in Internal SRAM */
#endif /* USER_VECT_TAB_ADDRESS */
}
 8000978:	bf00      	nop
 800097a:	46bd      	mov	sp, r7
 800097c:	f85d 7b04 	ldr.w	r7, [sp], #4
 8000980:	4770      	bx	lr
 8000982:	bf00      	nop
 8000984:	e000ed00 	.word	0xe000ed00

08000988 <Reset_Handler>:

    .section  .text.Reset_Handler
  .weak  Reset_Handler
  .type  Reset_Handler, %function
Reset_Handler:  
  ldr   sp, =_estack    		 /* set stack pointer */
 8000988:	f8df d034 	ldr.w	sp, [pc, #52]	@ 80009c0 <LoopFillZerobss+0xe>

/* Call the clock system initialization function.*/
  bl  SystemInit   
 800098c:	f7ff ffea 	bl	8000964 <SystemInit>

/* Copy the data segment initializers from flash to SRAM */  
  ldr r0, =_sdata
 8000990:	480c      	ldr	r0, [pc, #48]	@ (80009c4 <LoopFillZerobss+0x12>)
  ldr r1, =_edata
 8000992:	490d      	ldr	r1, [pc, #52]	@ (80009c8 <LoopFillZerobss+0x16>)
  ldr r2, =_sidata
 8000994:	4a0d      	ldr	r2, [pc, #52]	@ (80009cc <LoopFillZerobss+0x1a>)
  movs r3, #0
 8000996:	2300      	movs	r3, #0
  b LoopCopyDataInit
 8000998:	e002      	b.n	80009a0 <LoopCopyDataInit>

0800099a <CopyDataInit>:

CopyDataInit:
  ldr r4, [r2, r3]
 800099a:	58d4      	ldr	r4, [r2, r3]
  str r4, [r0, r3]
 800099c:	50c4      	str	r4, [r0, r3]
  adds r3, r3, #4
 800099e:	3304      	adds	r3, #4

080009a0 <LoopCopyDataInit>:

LoopCopyDataInit:
  adds r4, r0, r3
 80009a0:	18c4      	adds	r4, r0, r3
  cmp r4, r1
 80009a2:	428c      	cmp	r4, r1
  bcc CopyDataInit
 80009a4:	d3f9      	bcc.n	800099a <CopyDataInit>
  
/* Zero fill the bss segment. */
  ldr r2, =_sbss
 80009a6:	4a0a      	ldr	r2, [pc, #40]	@ (80009d0 <LoopFillZerobss+0x1e>)
  ldr r4, =_ebss
 80009a8:	4c0a      	ldr	r4, [pc, #40]	@ (80009d4 <LoopFillZerobss+0x22>)
  movs r3, #0
 80009aa:	2300      	movs	r3, #0
  b LoopFillZerobss
 80009ac:	e001      	b.n	80009b2 <LoopFillZerobss>

080009ae <FillZerobss>:

FillZerobss:
  str  r3, [r2]
 80009ae:	6013      	str	r3, [r2, #0]
  adds r2, r2, #4
 80009b0:	3204      	adds	r2, #4

080009b2 <LoopFillZerobss>:

LoopFillZerobss:
  cmp r2, r4
 80009b2:	42a2      	cmp	r2, r4
  bcc FillZerobss
 80009b4:	d3fb      	bcc.n	80009ae <FillZerobss>

/* Call static constructors */
    bl __libc_init_array
 80009b6:	f001 fdc9 	bl	800254c <__libc_init_array>
/* Call the application's entry point.*/
  bl  main
 80009ba:	f7ff fdef 	bl	800059c <main>
  bx  lr    
 80009be:	4770      	bx	lr
  ldr   sp, =_estack    		 /* set stack pointer */
 80009c0:	20020000 	.word	0x20020000
  ldr r0, =_sdata
 80009c4:	20000000 	.word	0x20000000
  ldr r1, =_edata
 80009c8:	2000000c 	.word	0x2000000c
  ldr r2, =_sidata
 80009cc:	080025cc 	.word	0x080025cc
  ldr r2, =_sbss
 80009d0:	2000000c 	.word	0x2000000c
  ldr r4, =_ebss
 80009d4:	20000074 	.word	0x20000074

080009d8 <ADC_IRQHandler>:
 * @retval None       
*/
    .section  .text.Default_Handler,"ax",%progbits
Default_Handler:
Infinite_Loop:
  b  Infinite_Loop
 80009d8:	e7fe      	b.n	80009d8 <ADC_IRQHandler>
	...

080009dc <HAL_Init>:
  *         need to ensure that the SysTick time base is always set to 1 millisecond
  *         to have correct HAL operation.
  * @retval HAL status
  */
HAL_StatusTypeDef HAL_Init(void)
{
 80009dc:	b580      	push	{r7, lr}
 80009de:	af00      	add	r7, sp, #0
  /* Configure Flash prefetch, Instruction cache, Data cache */ 
#if (INSTRUCTION_CACHE_ENABLE != 0U)
  __HAL_FLASH_INSTRUCTION_CACHE_ENABLE();
 80009e0:	4b0e      	ldr	r3, [pc, #56]	@ (8000a1c <HAL_Init+0x40>)
 80009e2:	681b      	ldr	r3, [r3, #0]
 80009e4:	4a0d      	ldr	r2, [pc, #52]	@ (8000a1c <HAL_Init+0x40>)
 80009e6:	f443 7300 	orr.w	r3, r3, #512	@ 0x200
 80009ea:	6013      	str	r3, [r2, #0]
#endif /* INSTRUCTION_CACHE_ENABLE */

#if (DATA_CACHE_ENABLE != 0U)
  __HAL_FLASH_DATA_CACHE_ENABLE();
 80009ec:	4b0b      	ldr	r3, [pc, #44]	@ (8000a1c <HAL_Init+0x40>)
 80009ee:	681b      	ldr	r3, [r3, #0]
 80009f0:	4a0a      	ldr	r2, [pc, #40]	@ (8000a1c <HAL_Init+0x40>)
 80009f2:	f443 6380 	orr.w	r3, r3, #1024	@ 0x400
 80009f6:	6013      	str	r3, [r2, #0]
#endif /* DATA_CACHE_ENABLE */

#if (PREFETCH_ENABLE != 0U)
  __HAL_FLASH_PREFETCH_BUFFER_ENABLE();
 80009f8:	4b08      	ldr	r3, [pc, #32]	@ (8000a1c <HAL_Init+0x40>)
 80009fa:	681b      	ldr	r3, [r3, #0]
 80009fc:	4a07      	ldr	r2, [pc, #28]	@ (8000a1c <HAL_Init+0x40>)
 80009fe:	f443 7380 	orr.w	r3, r3, #256	@ 0x100
 8000a02:	6013      	str	r3, [r2, #0]
#endif /* PREFETCH_ENABLE */

  /* Set Interrupt Group Priority */
  HAL_NVIC_SetPriorityGrouping(NVIC_PRIORITYGROUP_4);
 8000a04:	2003      	movs	r0, #3
 8000a06:	f000 f931 	bl	8000c6c <HAL_NVIC_SetPriorityGrouping>

  /* Use systick as time base source and configure 1ms tick (default clock after Reset is HSI) */
  HAL_InitTick(TICK_INT_PRIORITY);
 8000a0a:	200f      	movs	r0, #15
 8000a0c:	f000 f808 	bl	8000a20 <HAL_InitTick>

  /* Init the low level hardware */
  HAL_MspInit();
 8000a10:	f7ff fef4 	bl	80007fc <HAL_MspInit>

  /* Return function status */
  return HAL_OK;
 8000a14:	2300      	movs	r3, #0
}
 8000a16:	4618      	mov	r0, r3
 8000a18:	bd80      	pop	{r7, pc}
 8000a1a:	bf00      	nop
 8000a1c:	40023c00 	.word	0x40023c00

08000a20 <HAL_InitTick>:
  *       implementation  in user file.
  * @param TickPriority Tick interrupt priority.
  * @retval HAL status
  */
__weak HAL_StatusTypeDef HAL_InitTick(uint32_t TickPriority)
{
 8000a20:	b580      	push	{r7, lr}
 8000a22:	b082      	sub	sp, #8
 8000a24:	af00      	add	r7, sp, #0
 8000a26:	6078      	str	r0, [r7, #4]
  /* Configure the SysTick to have interrupt in 1ms time basis*/
  if (HAL_SYSTICK_Config(SystemCoreClock / (1000U / uwTickFreq)) > 0U)
 8000a28:	4b12      	ldr	r3, [pc, #72]	@ (8000a74 <HAL_InitTick+0x54>)
 8000a2a:	681a      	ldr	r2, [r3, #0]
 8000a2c:	4b12      	ldr	r3, [pc, #72]	@ (8000a78 <HAL_InitTick+0x58>)
 8000a2e:	781b      	ldrb	r3, [r3, #0]
 8000a30:	4619      	mov	r1, r3
 8000a32:	f44f 737a 	mov.w	r3, #1000	@ 0x3e8
 8000a36:	fbb3 f3f1 	udiv	r3, r3, r1
 8000a3a:	fbb2 f3f3 	udiv	r3, r2, r3
 8000a3e:	4618      	mov	r0, r3
 8000a40:	f000 f93b 	bl	8000cba <HAL_SYSTICK_Config>
 8000a44:	4603      	mov	r3, r0
 8000a46:	2b00      	cmp	r3, #0
 8000a48:	d001      	beq.n	8000a4e <HAL_InitTick+0x2e>
  {
    return HAL_ERROR;
 8000a4a:	2301      	movs	r3, #1
 8000a4c:	e00e      	b.n	8000a6c <HAL_InitTick+0x4c>
  }

  /* Configure the SysTick IRQ priority */
  if (TickPriority < (1UL << __NVIC_PRIO_BITS))
 8000a4e:	687b      	ldr	r3, [r7, #4]
 8000a50:	2b0f      	cmp	r3, #15
 8000a52:	d80a      	bhi.n	8000a6a <HAL_InitTick+0x4a>
  {
    HAL_NVIC_SetPriority(SysTick_IRQn, TickPriority, 0U);
 8000a54:	2200      	movs	r2, #0
 8000a56:	6879      	ldr	r1, [r7, #4]
 8000a58:	f04f 30ff 	mov.w	r0, #4294967295
 8000a5c:	f000 f911 	bl	8000c82 <HAL_NVIC_SetPriority>
    uwTickPrio = TickPriority;
 8000a60:	4a06      	ldr	r2, [pc, #24]	@ (8000a7c <HAL_InitTick+0x5c>)
 8000a62:	687b      	ldr	r3, [r7, #4]
 8000a64:	6013      	str	r3, [r2, #0]
  {
    return HAL_ERROR;
  }

  /* Return function status */
  return HAL_OK;
 8000a66:	2300      	movs	r3, #0
 8000a68:	e000      	b.n	8000a6c <HAL_InitTick+0x4c>
    return HAL_ERROR;
 8000a6a:	2301      	movs	r3, #1
}
 8000a6c:	4618      	mov	r0, r3
 8000a6e:	3708      	adds	r7, #8
 8000a70:	46bd      	mov	sp, r7
 8000a72:	bd80      	pop	{r7, pc}
 8000a74:	20000000 	.word	0x20000000
 8000a78:	20000008 	.word	0x20000008
 8000a7c:	20000004 	.word	0x20000004

08000a80 <HAL_IncTick>:
 * @note This function is declared as __weak to be overwritten in case of other 
  *      implementations in user file.
  * @retval None
  */
__weak void HAL_IncTick(void)
{
 8000a80:	b480      	push	{r7}
 8000a82:	af00      	add	r7, sp, #0
  uwTick += uwTickFreq;
 8000a84:	4b06      	ldr	r3, [pc, #24]	@ (8000aa0 <HAL_IncTick+0x20>)
 8000a86:	781b      	ldrb	r3, [r3, #0]
 8000a88:	461a      	mov	r2, r3
 8000a8a:	4b06      	ldr	r3, [pc, #24]	@ (8000aa4 <HAL_IncTick+0x24>)
 8000a8c:	681b      	ldr	r3, [r3, #0]
 8000a8e:	4413      	add	r3, r2
 8000a90:	4a04      	ldr	r2, [pc, #16]	@ (8000aa4 <HAL_IncTick+0x24>)
 8000a92:	6013      	str	r3, [r2, #0]
}
 8000a94:	bf00      	nop
 8000a96:	46bd      	mov	sp, r7
 8000a98:	f85d 7b04 	ldr.w	r7, [sp], #4
 8000a9c:	4770      	bx	lr
 8000a9e:	bf00      	nop
 8000aa0:	20000008 	.word	0x20000008
 8000aa4:	20000070 	.word	0x20000070

08000aa8 <HAL_GetTick>:
  * @note This function is declared as __weak to be overwritten in case of other 
  *       implementations in user file.
  * @retval tick value
  */
__weak uint32_t HAL_GetTick(void)
{
 8000aa8:	b480      	push	{r7}
 8000aaa:	af00      	add	r7, sp, #0
  return uwTick;
 8000aac:	4b03      	ldr	r3, [pc, #12]	@ (8000abc <HAL_GetTick+0x14>)
 8000aae:	681b      	ldr	r3, [r3, #0]
}
 8000ab0:	4618      	mov	r0, r3
 8000ab2:	46bd      	mov	sp, r7
 8000ab4:	f85d 7b04 	ldr.w	r7, [sp], #4
 8000ab8:	4770      	bx	lr
 8000aba:	bf00      	nop
 8000abc:	20000070 	.word	0x20000070

08000ac0 <HAL_Delay>:
  *       implementations in user file.
  * @param Delay specifies the delay time length, in milliseconds.
  * @retval None
  */
__weak void HAL_Delay(uint32_t Delay)
{
 8000ac0:	b580      	push	{r7, lr}
 8000ac2:	b084      	sub	sp, #16
 8000ac4:	af00      	add	r7, sp, #0
 8000ac6:	6078      	str	r0, [r7, #4]
  uint32_t tickstart = HAL_GetTick();
 8000ac8:	f7ff ffee 	bl	8000aa8 <HAL_GetTick>
 8000acc:	60b8      	str	r0, [r7, #8]
  uint32_t wait = Delay;
 8000ace:	687b      	ldr	r3, [r7, #4]
 8000ad0:	60fb      	str	r3, [r7, #12]

  /* Add a freq to guarantee minimum wait */
  if (wait < HAL_MAX_DELAY)
 8000ad2:	68fb      	ldr	r3, [r7, #12]
 8000ad4:	f1b3 3fff 	cmp.w	r3, #4294967295
 8000ad8:	d005      	beq.n	8000ae6 <HAL_Delay+0x26>
  {
    wait += (uint32_t)(uwTickFreq);
 8000ada:	4b0a      	ldr	r3, [pc, #40]	@ (8000b04 <HAL_Delay+0x44>)
 8000adc:	781b      	ldrb	r3, [r3, #0]
 8000ade:	461a      	mov	r2, r3
 8000ae0:	68fb      	ldr	r3, [r7, #12]
 8000ae2:	4413      	add	r3, r2
 8000ae4:	60fb      	str	r3, [r7, #12]
  }

  while((HAL_GetTick() - tickstart) < wait)
 8000ae6:	bf00      	nop
 8000ae8:	f7ff ffde 	bl	8000aa8 <HAL_GetTick>
 8000aec:	4602      	mov	r2, r0
 8000aee:	68bb      	ldr	r3, [r7, #8]
 8000af0:	1ad3      	subs	r3, r2, r3
 8000af2:	68fa      	ldr	r2, [r7, #12]
 8000af4:	429a      	cmp	r2, r3
 8000af6:	d8f7      	bhi.n	8000ae8 <HAL_Delay+0x28>
  {
  }
}
 8000af8:	bf00      	nop
 8000afa:	bf00      	nop
 8000afc:	3710      	adds	r7, #16
 8000afe:	46bd      	mov	sp, r7
 8000b00:	bd80      	pop	{r7, pc}
 8000b02:	bf00      	nop
 8000b04:	20000008 	.word	0x20000008

08000b08 <__NVIC_SetPriorityGrouping>:
           In case of a conflict between priority grouping and available
           priority bits (__NVIC_PRIO_BITS), the smallest possible priority group is set.
  \param [in]      PriorityGroup  Priority grouping field.
 */
__STATIC_INLINE void __NVIC_SetPriorityGrouping(uint32_t PriorityGroup)
{
 8000b08:	b480      	push	{r7}
 8000b0a:	b085      	sub	sp, #20
 8000b0c:	af00      	add	r7, sp, #0
 8000b0e:	6078      	str	r0, [r7, #4]
  uint32_t reg_value;
  uint32_t PriorityGroupTmp = (PriorityGroup & (uint32_t)0x07UL);             /* only values 0..7 are used          */
 8000b10:	687b      	ldr	r3, [r7, #4]
 8000b12:	f003 0307 	and.w	r3, r3, #7
 8000b16:	60fb      	str	r3, [r7, #12]

  reg_value  =  SCB->AIRCR;                                                   /* read old register configuration    */
 8000b18:	4b0c      	ldr	r3, [pc, #48]	@ (8000b4c <__NVIC_SetPriorityGrouping+0x44>)
 8000b1a:	68db      	ldr	r3, [r3, #12]
 8000b1c:	60bb      	str	r3, [r7, #8]
  reg_value &= ~((uint32_t)(SCB_AIRCR_VECTKEY_Msk | SCB_AIRCR_PRIGROUP_Msk)); /* clear bits to change               */
 8000b1e:	68ba      	ldr	r2, [r7, #8]
 8000b20:	f64f 03ff 	movw	r3, #63743	@ 0xf8ff
 8000b24:	4013      	ands	r3, r2
 8000b26:	60bb      	str	r3, [r7, #8]
  reg_value  =  (reg_value                                   |
                ((uint32_t)0x5FAUL << SCB_AIRCR_VECTKEY_Pos) |
                (PriorityGroupTmp << SCB_AIRCR_PRIGROUP_Pos)  );              /* Insert write key and priority group */
 8000b28:	68fb      	ldr	r3, [r7, #12]
 8000b2a:	021a      	lsls	r2, r3, #8
                ((uint32_t)0x5FAUL << SCB_AIRCR_VECTKEY_Pos) |
 8000b2c:	68bb      	ldr	r3, [r7, #8]
 8000b2e:	4313      	orrs	r3, r2
  reg_value  =  (reg_value                                   |
 8000b30:	f043 63bf 	orr.w	r3, r3, #100139008	@ 0x5f80000
 8000b34:	f443 3300 	orr.w	r3, r3, #131072	@ 0x20000
 8000b38:	60bb      	str	r3, [r7, #8]
  SCB->AIRCR =  reg_value;
 8000b3a:	4a04      	ldr	r2, [pc, #16]	@ (8000b4c <__NVIC_SetPriorityGrouping+0x44>)
 8000b3c:	68bb      	ldr	r3, [r7, #8]
 8000b3e:	60d3      	str	r3, [r2, #12]
}
 8000b40:	bf00      	nop
 8000b42:	3714      	adds	r7, #20
 8000b44:	46bd      	mov	sp, r7
 8000b46:	f85d 7b04 	ldr.w	r7, [sp], #4
 8000b4a:	4770      	bx	lr
 8000b4c:	e000ed00 	.word	0xe000ed00

08000b50 <__NVIC_GetPriorityGrouping>:
  \brief   Get Priority Grouping
  \details Reads the priority grouping field from the NVIC Interrupt Controller.
  \return                Priority grouping field (SCB->AIRCR [10:8] PRIGROUP field).
 */
__STATIC_INLINE uint32_t __NVIC_GetPriorityGrouping(void)
{
 8000b50:	b480      	push	{r7}
 8000b52:	af00      	add	r7, sp, #0
  return ((uint32_t)((SCB->AIRCR & SCB_AIRCR_PRIGROUP_Msk) >> SCB_AIRCR_PRIGROUP_Pos));
 8000b54:	4b04      	ldr	r3, [pc, #16]	@ (8000b68 <__NVIC_GetPriorityGrouping+0x18>)
 8000b56:	68db      	ldr	r3, [r3, #12]
 8000b58:	0a1b      	lsrs	r3, r3, #8
 8000b5a:	f003 0307 	and.w	r3, r3, #7
}
 8000b5e:	4618      	mov	r0, r3
 8000b60:	46bd      	mov	sp, r7
 8000b62:	f85d 7b04 	ldr.w	r7, [sp], #4
 8000b66:	4770      	bx	lr
 8000b68:	e000ed00 	.word	0xe000ed00

08000b6c <__NVIC_SetPriority>:
  \param [in]      IRQn  Interrupt number.
  \param [in]  priority  Priority to set.
  \note    The priority cannot be set for every processor exception.
 */
__STATIC_INLINE void __NVIC_SetPriority(IRQn_Type IRQn, uint32_t priority)
{
 8000b6c:	b480      	push	{r7}
 8000b6e:	b083      	sub	sp, #12
 8000b70:	af00      	add	r7, sp, #0
 8000b72:	4603      	mov	r3, r0
 8000b74:	6039      	str	r1, [r7, #0]
 8000b76:	71fb      	strb	r3, [r7, #7]
  if ((int32_t)(IRQn) >= 0)
 8000b78:	f997 3007 	ldrsb.w	r3, [r7, #7]
 8000b7c:	2b00      	cmp	r3, #0
 8000b7e:	db0a      	blt.n	8000b96 <__NVIC_SetPriority+0x2a>
  {
    NVIC->IP[((uint32_t)IRQn)]               = (uint8_t)((priority << (8U - __NVIC_PRIO_BITS)) & (uint32_t)0xFFUL);
 8000b80:	683b      	ldr	r3, [r7, #0]
 8000b82:	b2da      	uxtb	r2, r3
 8000b84:	490c      	ldr	r1, [pc, #48]	@ (8000bb8 <__NVIC_SetPriority+0x4c>)
 8000b86:	f997 3007 	ldrsb.w	r3, [r7, #7]
 8000b8a:	0112      	lsls	r2, r2, #4
 8000b8c:	b2d2      	uxtb	r2, r2
 8000b8e:	440b      	add	r3, r1
 8000b90:	f883 2300 	strb.w	r2, [r3, #768]	@ 0x300
  }
  else
  {
    SCB->SHP[(((uint32_t)IRQn) & 0xFUL)-4UL] = (uint8_t)((priority << (8U - __NVIC_PRIO_BITS)) & (uint32_t)0xFFUL);
  }
}
 8000b94:	e00a      	b.n	8000bac <__NVIC_SetPriority+0x40>
    SCB->SHP[(((uint32_t)IRQn) & 0xFUL)-4UL] = (uint8_t)((priority << (8U - __NVIC_PRIO_BITS)) & (uint32_t)0xFFUL);
 8000b96:	683b      	ldr	r3, [r7, #0]
 8000b98:	b2da      	uxtb	r2, r3
 8000b9a:	4908      	ldr	r1, [pc, #32]	@ (8000bbc <__NVIC_SetPriority+0x50>)
 8000b9c:	79fb      	ldrb	r3, [r7, #7]
 8000b9e:	f003 030f 	and.w	r3, r3, #15
 8000ba2:	3b04      	subs	r3, #4
 8000ba4:	0112      	lsls	r2, r2, #4
 8000ba6:	b2d2      	uxtb	r2, r2
 8000ba8:	440b      	add	r3, r1
 8000baa:	761a      	strb	r2, [r3, #24]
}
 8000bac:	bf00      	nop
 8000bae:	370c      	adds	r7, #12
 8000bb0:	46bd      	mov	sp, r7
 8000bb2:	f85d 7b04 	ldr.w	r7, [sp], #4
 8000bb6:	4770      	bx	lr
 8000bb8:	e000e100 	.word	0xe000e100
 8000bbc:	e000ed00 	.word	0xe000ed00

08000bc0 <NVIC_EncodePriority>:
  \param [in]   PreemptPriority  Preemptive priority value (starting from 0).
  \param [in]       SubPriority  Subpriority value (starting from 0).
  \return                        Encoded priority. Value can be used in the function \ref NVIC_SetPriority().
 */
__STATIC_INLINE uint32_t NVIC_EncodePriority (uint32_t PriorityGroup, uint32_t PreemptPriority, uint32_t SubPriority)
{
 8000bc0:	b480      	push	{r7}
 8000bc2:	b089      	sub	sp, #36	@ 0x24
 8000bc4:	af00      	add	r7, sp, #0
 8000bc6:	60f8      	str	r0, [r7, #12]
 8000bc8:	60b9      	str	r1, [r7, #8]
 8000bca:	607a      	str	r2, [r7, #4]
  uint32_t PriorityGroupTmp = (PriorityGroup & (uint32_t)0x07UL);   /* only values 0..7 are used          */
 8000bcc:	68fb      	ldr	r3, [r7, #12]
 8000bce:	f003 0307 	and.w	r3, r3, #7
 8000bd2:	61fb      	str	r3, [r7, #28]
  uint32_t PreemptPriorityBits;
  uint32_t SubPriorityBits;

  PreemptPriorityBits = ((7UL - PriorityGroupTmp) > (uint32_t)(__NVIC_PRIO_BITS)) ? (uint32_t)(__NVIC_PRIO_BITS) : (uint32_t)(7UL - PriorityGroupTmp);
 8000bd4:	69fb      	ldr	r3, [r7, #28]
 8000bd6:	f1c3 0307 	rsb	r3, r3, #7
 8000bda:	2b04      	cmp	r3, #4
 8000bdc:	bf28      	it	cs
 8000bde:	2304      	movcs	r3, #4
 8000be0:	61bb      	str	r3, [r7, #24]
  SubPriorityBits     = ((PriorityGroupTmp + (uint32_t)(__NVIC_PRIO_BITS)) < (uint32_t)7UL) ? (uint32_t)0UL : (uint32_t)((PriorityGroupTmp - 7UL) + (uint32_t)(__NVIC_PRIO_BITS));
 8000be2:	69fb      	ldr	r3, [r7, #28]
 8000be4:	3304      	adds	r3, #4
 8000be6:	2b06      	cmp	r3, #6
 8000be8:	d902      	bls.n	8000bf0 <NVIC_EncodePriority+0x30>
 8000bea:	69fb      	ldr	r3, [r7, #28]
 8000bec:	3b03      	subs	r3, #3
 8000bee:	e000      	b.n	8000bf2 <NVIC_EncodePriority+0x32>
 8000bf0:	2300      	movs	r3, #0
 8000bf2:	617b      	str	r3, [r7, #20]

  return (
           ((PreemptPriority & (uint32_t)((1UL << (PreemptPriorityBits)) - 1UL)) << SubPriorityBits) |
 8000bf4:	f04f 32ff 	mov.w	r2, #4294967295
 8000bf8:	69bb      	ldr	r3, [r7, #24]
 8000bfa:	fa02 f303 	lsl.w	r3, r2, r3
 8000bfe:	43da      	mvns	r2, r3
 8000c00:	68bb      	ldr	r3, [r7, #8]
 8000c02:	401a      	ands	r2, r3
 8000c04:	697b      	ldr	r3, [r7, #20]
 8000c06:	409a      	lsls	r2, r3
           ((SubPriority     & (uint32_t)((1UL << (SubPriorityBits    )) - 1UL)))
 8000c08:	f04f 31ff 	mov.w	r1, #4294967295
 8000c0c:	697b      	ldr	r3, [r7, #20]
 8000c0e:	fa01 f303 	lsl.w	r3, r1, r3
 8000c12:	43d9      	mvns	r1, r3
 8000c14:	687b      	ldr	r3, [r7, #4]
 8000c16:	400b      	ands	r3, r1
           ((PreemptPriority & (uint32_t)((1UL << (PreemptPriorityBits)) - 1UL)) << SubPriorityBits) |
 8000c18:	4313      	orrs	r3, r2
         );
}
 8000c1a:	4618      	mov	r0, r3
 8000c1c:	3724      	adds	r7, #36	@ 0x24
 8000c1e:	46bd      	mov	sp, r7
 8000c20:	f85d 7b04 	ldr.w	r7, [sp], #4
 8000c24:	4770      	bx	lr
	...

08000c28 <SysTick_Config>:
  \note    When the variable <b>__Vendor_SysTickConfig</b> is set to 1, then the
           function <b>SysTick_Config</b> is not included. In this case, the file <b><i>device</i>.h</b>
           must contain a vendor-specific implementation of this function.
 */
__STATIC_INLINE uint32_t SysTick_Config(uint32_t ticks)
{
 8000c28:	b580      	push	{r7, lr}
 8000c2a:	b082      	sub	sp, #8
 8000c2c:	af00      	add	r7, sp, #0
 8000c2e:	6078      	str	r0, [r7, #4]
  if ((ticks - 1UL) > SysTick_LOAD_RELOAD_Msk)
 8000c30:	687b      	ldr	r3, [r7, #4]
 8000c32:	3b01      	subs	r3, #1
 8000c34:	f1b3 7f80 	cmp.w	r3, #16777216	@ 0x1000000
 8000c38:	d301      	bcc.n	8000c3e <SysTick_Config+0x16>
  {
    return (1UL);                                                   /* Reload value impossible */
 8000c3a:	2301      	movs	r3, #1
 8000c3c:	e00f      	b.n	8000c5e <SysTick_Config+0x36>
  }

  SysTick->LOAD  = (uint32_t)(ticks - 1UL);                         /* set reload register */
 8000c3e:	4a0a      	ldr	r2, [pc, #40]	@ (8000c68 <SysTick_Config+0x40>)
 8000c40:	687b      	ldr	r3, [r7, #4]
 8000c42:	3b01      	subs	r3, #1
 8000c44:	6053      	str	r3, [r2, #4]
  NVIC_SetPriority (SysTick_IRQn, (1UL << __NVIC_PRIO_BITS) - 1UL); /* set Priority for Systick Interrupt */
 8000c46:	210f      	movs	r1, #15
 8000c48:	f04f 30ff 	mov.w	r0, #4294967295
 8000c4c:	f7ff ff8e 	bl	8000b6c <__NVIC_SetPriority>
  SysTick->VAL   = 0UL;                                             /* Load the SysTick Counter Value */
 8000c50:	4b05      	ldr	r3, [pc, #20]	@ (8000c68 <SysTick_Config+0x40>)
 8000c52:	2200      	movs	r2, #0
 8000c54:	609a      	str	r2, [r3, #8]
  SysTick->CTRL  = SysTick_CTRL_CLKSOURCE_Msk |
 8000c56:	4b04      	ldr	r3, [pc, #16]	@ (8000c68 <SysTick_Config+0x40>)
 8000c58:	2207      	movs	r2, #7
 8000c5a:	601a      	str	r2, [r3, #0]
                   SysTick_CTRL_TICKINT_Msk   |
                   SysTick_CTRL_ENABLE_Msk;                         /* Enable SysTick IRQ and SysTick Timer */
  return (0UL);                                                     /* Function successful */
 8000c5c:	2300      	movs	r3, #0
}
 8000c5e:	4618      	mov	r0, r3
 8000c60:	3708      	adds	r7, #8
 8000c62:	46bd      	mov	sp, r7
 8000c64:	bd80      	pop	{r7, pc}
 8000c66:	bf00      	nop
 8000c68:	e000e010 	.word	0xe000e010

08000c6c <HAL_NVIC_SetPriorityGrouping>:
  * @note   When the NVIC_PriorityGroup_0 is selected, IRQ preemption is no more possible. 
  *         The pending IRQ priority will be managed only by the subpriority. 
  * @retval None
  */
void HAL_NVIC_SetPriorityGrouping(uint32_t PriorityGroup)
{
 8000c6c:	b580      	push	{r7, lr}
 8000c6e:	b082      	sub	sp, #8
 8000c70:	af00      	add	r7, sp, #0
 8000c72:	6078      	str	r0, [r7, #4]
  /* Check the parameters */
  assert_param(IS_NVIC_PRIORITY_GROUP(PriorityGroup));
  
  /* Set the PRIGROUP[10:8] bits according to the PriorityGroup parameter value */
  NVIC_SetPriorityGrouping(PriorityGroup);
 8000c74:	6878      	ldr	r0, [r7, #4]
 8000c76:	f7ff ff47 	bl	8000b08 <__NVIC_SetPriorityGrouping>
}
 8000c7a:	bf00      	nop
 8000c7c:	3708      	adds	r7, #8
 8000c7e:	46bd      	mov	sp, r7
 8000c80:	bd80      	pop	{r7, pc}

08000c82 <HAL_NVIC_SetPriority>:
  *         This parameter can be a value between 0 and 15
  *         A lower priority value indicates a higher priority.          
  * @retval None
  */
void HAL_NVIC_SetPriority(IRQn_Type IRQn, uint32_t PreemptPriority, uint32_t SubPriority)
{ 
 8000c82:	b580      	push	{r7, lr}
 8000c84:	b086      	sub	sp, #24
 8000c86:	af00      	add	r7, sp, #0
 8000c88:	4603      	mov	r3, r0
 8000c8a:	60b9      	str	r1, [r7, #8]
 8000c8c:	607a      	str	r2, [r7, #4]
 8000c8e:	73fb      	strb	r3, [r7, #15]
  uint32_t prioritygroup = 0x00U;
 8000c90:	2300      	movs	r3, #0
 8000c92:	617b      	str	r3, [r7, #20]
  
  /* Check the parameters */
  assert_param(IS_NVIC_SUB_PRIORITY(SubPriority));
  assert_param(IS_NVIC_PREEMPTION_PRIORITY(PreemptPriority));
  
  prioritygroup = NVIC_GetPriorityGrouping();
 8000c94:	f7ff ff5c 	bl	8000b50 <__NVIC_GetPriorityGrouping>
 8000c98:	6178      	str	r0, [r7, #20]
  
  NVIC_SetPriority(IRQn, NVIC_EncodePriority(prioritygroup, PreemptPriority, SubPriority));
 8000c9a:	687a      	ldr	r2, [r7, #4]
 8000c9c:	68b9      	ldr	r1, [r7, #8]
 8000c9e:	6978      	ldr	r0, [r7, #20]
 8000ca0:	f7ff ff8e 	bl	8000bc0 <NVIC_EncodePriority>
 8000ca4:	4602      	mov	r2, r0
 8000ca6:	f997 300f 	ldrsb.w	r3, [r7, #15]
 8000caa:	4611      	mov	r1, r2
 8000cac:	4618      	mov	r0, r3
 8000cae:	f7ff ff5d 	bl	8000b6c <__NVIC_SetPriority>
}
 8000cb2:	bf00      	nop
 8000cb4:	3718      	adds	r7, #24
 8000cb6:	46bd      	mov	sp, r7
 8000cb8:	bd80      	pop	{r7, pc}

08000cba <HAL_SYSTICK_Config>:
  * @param  TicksNumb Specifies the ticks Number of ticks between two interrupts.
  * @retval status:  - 0  Function succeeded.
  *                  - 1  Function failed.
  */
uint32_t HAL_SYSTICK_Config(uint32_t TicksNumb)
{
 8000cba:	b580      	push	{r7, lr}
 8000cbc:	b082      	sub	sp, #8
 8000cbe:	af00      	add	r7, sp, #0
 8000cc0:	6078      	str	r0, [r7, #4]
   return SysTick_Config(TicksNumb);
 8000cc2:	6878      	ldr	r0, [r7, #4]
 8000cc4:	f7ff ffb0 	bl	8000c28 <SysTick_Config>
 8000cc8:	4603      	mov	r3, r0
}
 8000cca:	4618      	mov	r0, r3
 8000ccc:	3708      	adds	r7, #8
 8000cce:	46bd      	mov	sp, r7
 8000cd0:	bd80      	pop	{r7, pc}
	...

08000cd4 <HAL_GPIO_Init>:
  * @param  GPIO_Init pointer to a GPIO_InitTypeDef structure that contains
  *         the configuration information for the specified GPIO peripheral.
  * @retval None
  */
void HAL_GPIO_Init(GPIO_TypeDef  *GPIOx, GPIO_InitTypeDef *GPIO_Init)
{
 8000cd4:	b480      	push	{r7}
 8000cd6:	b089      	sub	sp, #36	@ 0x24
 8000cd8:	af00      	add	r7, sp, #0
 8000cda:	6078      	str	r0, [r7, #4]
 8000cdc:	6039      	str	r1, [r7, #0]
  uint32_t position;
  uint32_t ioposition = 0x00U;
 8000cde:	2300      	movs	r3, #0
 8000ce0:	617b      	str	r3, [r7, #20]
  uint32_t iocurrent = 0x00U;
 8000ce2:	2300      	movs	r3, #0
 8000ce4:	613b      	str	r3, [r7, #16]
  uint32_t temp = 0x00U;
 8000ce6:	2300      	movs	r3, #0
 8000ce8:	61bb      	str	r3, [r7, #24]
  assert_param(IS_GPIO_ALL_INSTANCE(GPIOx));
  assert_param(IS_GPIO_PIN(GPIO_Init->Pin));
  assert_param(IS_GPIO_MODE(GPIO_Init->Mode));

  /* Configure the port pins */
  for(position = 0U; position < GPIO_NUMBER; position++)
 8000cea:	2300      	movs	r3, #0
 8000cec:	61fb      	str	r3, [r7, #28]
 8000cee:	e159      	b.n	8000fa4 <HAL_GPIO_Init+0x2d0>
  {
    /* Get the IO position */
    ioposition = 0x01U << position;
 8000cf0:	2201      	movs	r2, #1
 8000cf2:	69fb      	ldr	r3, [r7, #28]
 8000cf4:	fa02 f303 	lsl.w	r3, r2, r3
 8000cf8:	617b      	str	r3, [r7, #20]
    /* Get the current IO position */
    iocurrent = (uint32_t)(GPIO_Init->Pin) & ioposition;
 8000cfa:	683b      	ldr	r3, [r7, #0]
 8000cfc:	681b      	ldr	r3, [r3, #0]
 8000cfe:	697a      	ldr	r2, [r7, #20]
 8000d00:	4013      	ands	r3, r2
 8000d02:	613b      	str	r3, [r7, #16]

    if(iocurrent == ioposition)
 8000d04:	693a      	ldr	r2, [r7, #16]
 8000d06:	697b      	ldr	r3, [r7, #20]
 8000d08:	429a      	cmp	r2, r3
 8000d0a:	f040 8148 	bne.w	8000f9e <HAL_GPIO_Init+0x2ca>
    {
      /*--------------------- GPIO Mode Configuration ------------------------*/
      /* In case of Output or Alternate function mode selection */
      if(((GPIO_Init->Mode & GPIO_MODE) == MODE_OUTPUT) || \
 8000d0e:	683b      	ldr	r3, [r7, #0]
 8000d10:	685b      	ldr	r3, [r3, #4]
 8000d12:	f003 0303 	and.w	r3, r3, #3
 8000d16:	2b01      	cmp	r3, #1
 8000d18:	d005      	beq.n	8000d26 <HAL_GPIO_Init+0x52>
          (GPIO_Init->Mode & GPIO_MODE) == MODE_AF)
 8000d1a:	683b      	ldr	r3, [r7, #0]
 8000d1c:	685b      	ldr	r3, [r3, #4]
 8000d1e:	f003 0303 	and.w	r3, r3, #3
      if(((GPIO_Init->Mode & GPIO_MODE) == MODE_OUTPUT) || \
 8000d22:	2b02      	cmp	r3, #2
 8000d24:	d130      	bne.n	8000d88 <HAL_GPIO_Init+0xb4>
      {
        /* Check the Speed parameter */
        assert_param(IS_GPIO_SPEED(GPIO_Init->Speed));
        /* Configure the IO Speed */
        temp = GPIOx->OSPEEDR; 
 8000d26:	687b      	ldr	r3, [r7, #4]
 8000d28:	689b      	ldr	r3, [r3, #8]
 8000d2a:	61bb      	str	r3, [r7, #24]
        temp &= ~(GPIO_OSPEEDER_OSPEEDR0 << (position * 2U));
 8000d2c:	69fb      	ldr	r3, [r7, #28]
 8000d2e:	005b      	lsls	r3, r3, #1
 8000d30:	2203      	movs	r2, #3
 8000d32:	fa02 f303 	lsl.w	r3, r2, r3
 8000d36:	43db      	mvns	r3, r3
 8000d38:	69ba      	ldr	r2, [r7, #24]
 8000d3a:	4013      	ands	r3, r2
 8000d3c:	61bb      	str	r3, [r7, #24]
        temp |= (GPIO_Init->Speed << (position * 2U));
 8000d3e:	683b      	ldr	r3, [r7, #0]
 8000d40:	68da      	ldr	r2, [r3, #12]
 8000d42:	69fb      	ldr	r3, [r7, #28]
 8000d44:	005b      	lsls	r3, r3, #1
 8000d46:	fa02 f303 	lsl.w	r3, r2, r3
 8000d4a:	69ba      	ldr	r2, [r7, #24]
 8000d4c:	4313      	orrs	r3, r2
 8000d4e:	61bb      	str	r3, [r7, #24]
        GPIOx->OSPEEDR = temp;
 8000d50:	687b      	ldr	r3, [r7, #4]
 8000d52:	69ba      	ldr	r2, [r7, #24]
 8000d54:	609a      	str	r2, [r3, #8]

        /* Configure the IO Output Type */
        temp = GPIOx->OTYPER;
 8000d56:	687b      	ldr	r3, [r7, #4]
 8000d58:	685b      	ldr	r3, [r3, #4]
 8000d5a:	61bb      	str	r3, [r7, #24]
        temp &= ~(GPIO_OTYPER_OT_0 << position) ;
 8000d5c:	2201      	movs	r2, #1
 8000d5e:	69fb      	ldr	r3, [r7, #28]
 8000d60:	fa02 f303 	lsl.w	r3, r2, r3
 8000d64:	43db      	mvns	r3, r3
 8000d66:	69ba      	ldr	r2, [r7, #24]
 8000d68:	4013      	ands	r3, r2
 8000d6a:	61bb      	str	r3, [r7, #24]
        temp |= (((GPIO_Init->Mode & OUTPUT_TYPE) >> OUTPUT_TYPE_Pos) << position);
 8000d6c:	683b      	ldr	r3, [r7, #0]
 8000d6e:	685b      	ldr	r3, [r3, #4]
 8000d70:	091b      	lsrs	r3, r3, #4
 8000d72:	f003 0201 	and.w	r2, r3, #1
 8000d76:	69fb      	ldr	r3, [r7, #28]
 8000d78:	fa02 f303 	lsl.w	r3, r2, r3
 8000d7c:	69ba      	ldr	r2, [r7, #24]
 8000d7e:	4313      	orrs	r3, r2
 8000d80:	61bb      	str	r3, [r7, #24]
        GPIOx->OTYPER = temp;
 8000d82:	687b      	ldr	r3, [r7, #4]
 8000d84:	69ba      	ldr	r2, [r7, #24]
 8000d86:	605a      	str	r2, [r3, #4]
       }

      if((GPIO_Init->Mode & GPIO_MODE) != MODE_ANALOG)
 8000d88:	683b      	ldr	r3, [r7, #0]
 8000d8a:	685b      	ldr	r3, [r3, #4]
 8000d8c:	f003 0303 	and.w	r3, r3, #3
 8000d90:	2b03      	cmp	r3, #3
 8000d92:	d017      	beq.n	8000dc4 <HAL_GPIO_Init+0xf0>
      {
        /* Check the parameters */
        assert_param(IS_GPIO_PULL(GPIO_Init->Pull));
        
        /* Activate the Pull-up or Pull down resistor for the current IO */
        temp = GPIOx->PUPDR;
 8000d94:	687b      	ldr	r3, [r7, #4]
 8000d96:	68db      	ldr	r3, [r3, #12]
 8000d98:	61bb      	str	r3, [r7, #24]
        temp &= ~(GPIO_PUPDR_PUPDR0 << (position * 2U));
 8000d9a:	69fb      	ldr	r3, [r7, #28]
 8000d9c:	005b      	lsls	r3, r3, #1
 8000d9e:	2203      	movs	r2, #3
 8000da0:	fa02 f303 	lsl.w	r3, r2, r3
 8000da4:	43db      	mvns	r3, r3
 8000da6:	69ba      	ldr	r2, [r7, #24]
 8000da8:	4013      	ands	r3, r2
 8000daa:	61bb      	str	r3, [r7, #24]
        temp |= ((GPIO_Init->Pull) << (position * 2U));
 8000dac:	683b      	ldr	r3, [r7, #0]
 8000dae:	689a      	ldr	r2, [r3, #8]
 8000db0:	69fb      	ldr	r3, [r7, #28]
 8000db2:	005b      	lsls	r3, r3, #1
 8000db4:	fa02 f303 	lsl.w	r3, r2, r3
 8000db8:	69ba      	ldr	r2, [r7, #24]
 8000dba:	4313      	orrs	r3, r2
 8000dbc:	61bb      	str	r3, [r7, #24]
        GPIOx->PUPDR = temp;
 8000dbe:	687b      	ldr	r3, [r7, #4]
 8000dc0:	69ba      	ldr	r2, [r7, #24]
 8000dc2:	60da      	str	r2, [r3, #12]
      }

      /* In case of Alternate function mode selection */
      if((GPIO_Init->Mode & GPIO_MODE) == MODE_AF)
 8000dc4:	683b      	ldr	r3, [r7, #0]
 8000dc6:	685b      	ldr	r3, [r3, #4]
 8000dc8:	f003 0303 	and.w	r3, r3, #3
 8000dcc:	2b02      	cmp	r3, #2
 8000dce:	d123      	bne.n	8000e18 <HAL_GPIO_Init+0x144>
      {
        /* Check the Alternate function parameter */
        assert_param(IS_GPIO_AF(GPIO_Init->Alternate));
        /* Configure Alternate function mapped with the current IO */
        temp = GPIOx->AFR[position >> 3U];
 8000dd0:	69fb      	ldr	r3, [r7, #28]
 8000dd2:	08da      	lsrs	r2, r3, #3
 8000dd4:	687b      	ldr	r3, [r7, #4]
 8000dd6:	3208      	adds	r2, #8
 8000dd8:	f853 3022 	ldr.w	r3, [r3, r2, lsl #2]
 8000ddc:	61bb      	str	r3, [r7, #24]
        temp &= ~(0xFU << ((uint32_t)(position & 0x07U) * 4U)) ;
 8000dde:	69fb      	ldr	r3, [r7, #28]
 8000de0:	f003 0307 	and.w	r3, r3, #7
 8000de4:	009b      	lsls	r3, r3, #2
 8000de6:	220f      	movs	r2, #15
 8000de8:	fa02 f303 	lsl.w	r3, r2, r3
 8000dec:	43db      	mvns	r3, r3
 8000dee:	69ba      	ldr	r2, [r7, #24]
 8000df0:	4013      	ands	r3, r2
 8000df2:	61bb      	str	r3, [r7, #24]
        temp |= ((uint32_t)(GPIO_Init->Alternate) << (((uint32_t)position & 0x07U) * 4U));
 8000df4:	683b      	ldr	r3, [r7, #0]
 8000df6:	691a      	ldr	r2, [r3, #16]
 8000df8:	69fb      	ldr	r3, [r7, #28]
 8000dfa:	f003 0307 	and.w	r3, r3, #7
 8000dfe:	009b      	lsls	r3, r3, #2
 8000e00:	fa02 f303 	lsl.w	r3, r2, r3
 8000e04:	69ba      	ldr	r2, [r7, #24]
 8000e06:	4313      	orrs	r3, r2
 8000e08:	61bb      	str	r3, [r7, #24]
        GPIOx->AFR[position >> 3U] = temp;
 8000e0a:	69fb      	ldr	r3, [r7, #28]
 8000e0c:	08da      	lsrs	r2, r3, #3
 8000e0e:	687b      	ldr	r3, [r7, #4]
 8000e10:	3208      	adds	r2, #8
 8000e12:	69b9      	ldr	r1, [r7, #24]
 8000e14:	f843 1022 	str.w	r1, [r3, r2, lsl #2]
      }

      /* Configure IO Direction mode (Input, Output, Alternate or Analog) */
      temp = GPIOx->MODER;
 8000e18:	687b      	ldr	r3, [r7, #4]
 8000e1a:	681b      	ldr	r3, [r3, #0]
 8000e1c:	61bb      	str	r3, [r7, #24]
      temp &= ~(GPIO_MODER_MODER0 << (position * 2U));
 8000e1e:	69fb      	ldr	r3, [r7, #28]
 8000e20:	005b      	lsls	r3, r3, #1
 8000e22:	2203      	movs	r2, #3
 8000e24:	fa02 f303 	lsl.w	r3, r2, r3
 8000e28:	43db      	mvns	r3, r3
 8000e2a:	69ba      	ldr	r2, [r7, #24]
 8000e2c:	4013      	ands	r3, r2
 8000e2e:	61bb      	str	r3, [r7, #24]
      temp |= ((GPIO_Init->Mode & GPIO_MODE) << (position * 2U));
 8000e30:	683b      	ldr	r3, [r7, #0]
 8000e32:	685b      	ldr	r3, [r3, #4]
 8000e34:	f003 0203 	and.w	r2, r3, #3
 8000e38:	69fb      	ldr	r3, [r7, #28]
 8000e3a:	005b      	lsls	r3, r3, #1
 8000e3c:	fa02 f303 	lsl.w	r3, r2, r3
 8000e40:	69ba      	ldr	r2, [r7, #24]
 8000e42:	4313      	orrs	r3, r2
 8000e44:	61bb      	str	r3, [r7, #24]
      GPIOx->MODER = temp;
 8000e46:	687b      	ldr	r3, [r7, #4]
 8000e48:	69ba      	ldr	r2, [r7, #24]
 8000e4a:	601a      	str	r2, [r3, #0]

      /*--------------------- EXTI Mode Configuration ------------------------*/
      /* Configure the External Interrupt or event for the current IO */
      if((GPIO_Init->Mode & EXTI_MODE) != 0x00U)
 8000e4c:	683b      	ldr	r3, [r7, #0]
 8000e4e:	685b      	ldr	r3, [r3, #4]
 8000e50:	f403 3340 	and.w	r3, r3, #196608	@ 0x30000
 8000e54:	2b00      	cmp	r3, #0
 8000e56:	f000 80a2 	beq.w	8000f9e <HAL_GPIO_Init+0x2ca>
      {
        /* Enable SYSCFG Clock */
        __HAL_RCC_SYSCFG_CLK_ENABLE();
 8000e5a:	2300      	movs	r3, #0
 8000e5c:	60fb      	str	r3, [r7, #12]
 8000e5e:	4b57      	ldr	r3, [pc, #348]	@ (8000fbc <HAL_GPIO_Init+0x2e8>)
 8000e60:	6c5b      	ldr	r3, [r3, #68]	@ 0x44
 8000e62:	4a56      	ldr	r2, [pc, #344]	@ (8000fbc <HAL_GPIO_Init+0x2e8>)
 8000e64:	f443 4380 	orr.w	r3, r3, #16384	@ 0x4000
 8000e68:	6453      	str	r3, [r2, #68]	@ 0x44
 8000e6a:	4b54      	ldr	r3, [pc, #336]	@ (8000fbc <HAL_GPIO_Init+0x2e8>)
 8000e6c:	6c5b      	ldr	r3, [r3, #68]	@ 0x44
 8000e6e:	f403 4380 	and.w	r3, r3, #16384	@ 0x4000
 8000e72:	60fb      	str	r3, [r7, #12]
 8000e74:	68fb      	ldr	r3, [r7, #12]

        temp = SYSCFG->EXTICR[position >> 2U];
 8000e76:	4a52      	ldr	r2, [pc, #328]	@ (8000fc0 <HAL_GPIO_Init+0x2ec>)
 8000e78:	69fb      	ldr	r3, [r7, #28]
 8000e7a:	089b      	lsrs	r3, r3, #2
 8000e7c:	3302      	adds	r3, #2
 8000e7e:	f852 3023 	ldr.w	r3, [r2, r3, lsl #2]
 8000e82:	61bb      	str	r3, [r7, #24]
        temp &= ~(0x0FU << (4U * (position & 0x03U)));
 8000e84:	69fb      	ldr	r3, [r7, #28]
 8000e86:	f003 0303 	and.w	r3, r3, #3
 8000e8a:	009b      	lsls	r3, r3, #2
 8000e8c:	220f      	movs	r2, #15
 8000e8e:	fa02 f303 	lsl.w	r3, r2, r3
 8000e92:	43db      	mvns	r3, r3
 8000e94:	69ba      	ldr	r2, [r7, #24]
 8000e96:	4013      	ands	r3, r2
 8000e98:	61bb      	str	r3, [r7, #24]
        temp |= ((uint32_t)(GPIO_GET_INDEX(GPIOx)) << (4U * (position & 0x03U)));
 8000e9a:	687b      	ldr	r3, [r7, #4]
 8000e9c:	4a49      	ldr	r2, [pc, #292]	@ (8000fc4 <HAL_GPIO_Init+0x2f0>)
 8000e9e:	4293      	cmp	r3, r2
 8000ea0:	d019      	beq.n	8000ed6 <HAL_GPIO_Init+0x202>
 8000ea2:	687b      	ldr	r3, [r7, #4]
 8000ea4:	4a48      	ldr	r2, [pc, #288]	@ (8000fc8 <HAL_GPIO_Init+0x2f4>)
 8000ea6:	4293      	cmp	r3, r2
 8000ea8:	d013      	beq.n	8000ed2 <HAL_GPIO_Init+0x1fe>
 8000eaa:	687b      	ldr	r3, [r7, #4]
 8000eac:	4a47      	ldr	r2, [pc, #284]	@ (8000fcc <HAL_GPIO_Init+0x2f8>)
 8000eae:	4293      	cmp	r3, r2
 8000eb0:	d00d      	beq.n	8000ece <HAL_GPIO_Init+0x1fa>
 8000eb2:	687b      	ldr	r3, [r7, #4]
 8000eb4:	4a46      	ldr	r2, [pc, #280]	@ (8000fd0 <HAL_GPIO_Init+0x2fc>)
 8000eb6:	4293      	cmp	r3, r2
 8000eb8:	d007      	beq.n	8000eca <HAL_GPIO_Init+0x1f6>
 8000eba:	687b      	ldr	r3, [r7, #4]
 8000ebc:	4a45      	ldr	r2, [pc, #276]	@ (8000fd4 <HAL_GPIO_Init+0x300>)
 8000ebe:	4293      	cmp	r3, r2
 8000ec0:	d101      	bne.n	8000ec6 <HAL_GPIO_Init+0x1f2>
 8000ec2:	2304      	movs	r3, #4
 8000ec4:	e008      	b.n	8000ed8 <HAL_GPIO_Init+0x204>
 8000ec6:	2307      	movs	r3, #7
 8000ec8:	e006      	b.n	8000ed8 <HAL_GPIO_Init+0x204>
 8000eca:	2303      	movs	r3, #3
 8000ecc:	e004      	b.n	8000ed8 <HAL_GPIO_Init+0x204>
 8000ece:	2302      	movs	r3, #2
 8000ed0:	e002      	b.n	8000ed8 <HAL_GPIO_Init+0x204>
 8000ed2:	2301      	movs	r3, #1
 8000ed4:	e000      	b.n	8000ed8 <HAL_GPIO_Init+0x204>
 8000ed6:	2300      	movs	r3, #0
 8000ed8:	69fa      	ldr	r2, [r7, #28]
 8000eda:	f002 0203 	and.w	r2, r2, #3
 8000ede:	0092      	lsls	r2, r2, #2
 8000ee0:	4093      	lsls	r3, r2
 8000ee2:	69ba      	ldr	r2, [r7, #24]
 8000ee4:	4313      	orrs	r3, r2
 8000ee6:	61bb      	str	r3, [r7, #24]
        SYSCFG->EXTICR[position >> 2U] = temp;
 8000ee8:	4935      	ldr	r1, [pc, #212]	@ (8000fc0 <HAL_GPIO_Init+0x2ec>)
 8000eea:	69fb      	ldr	r3, [r7, #28]
 8000eec:	089b      	lsrs	r3, r3, #2
 8000eee:	3302      	adds	r3, #2
 8000ef0:	69ba      	ldr	r2, [r7, #24]
 8000ef2:	f841 2023 	str.w	r2, [r1, r3, lsl #2]

        /* Clear Rising Falling edge configuration */
        temp = EXTI->RTSR;
 8000ef6:	4b38      	ldr	r3, [pc, #224]	@ (8000fd8 <HAL_GPIO_Init+0x304>)
 8000ef8:	689b      	ldr	r3, [r3, #8]
 8000efa:	61bb      	str	r3, [r7, #24]
        temp &= ~((uint32_t)iocurrent);
 8000efc:	693b      	ldr	r3, [r7, #16]
 8000efe:	43db      	mvns	r3, r3
 8000f00:	69ba      	ldr	r2, [r7, #24]
 8000f02:	4013      	ands	r3, r2
 8000f04:	61bb      	str	r3, [r7, #24]
        if((GPIO_Init->Mode & TRIGGER_RISING) != 0x00U)
 8000f06:	683b      	ldr	r3, [r7, #0]
 8000f08:	685b      	ldr	r3, [r3, #4]
 8000f0a:	f403 1380 	and.w	r3, r3, #1048576	@ 0x100000
 8000f0e:	2b00      	cmp	r3, #0
 8000f10:	d003      	beq.n	8000f1a <HAL_GPIO_Init+0x246>
        {
          temp |= iocurrent;
 8000f12:	69ba      	ldr	r2, [r7, #24]
 8000f14:	693b      	ldr	r3, [r7, #16]
 8000f16:	4313      	orrs	r3, r2
 8000f18:	61bb      	str	r3, [r7, #24]
        }
        EXTI->RTSR = temp;
 8000f1a:	4a2f      	ldr	r2, [pc, #188]	@ (8000fd8 <HAL_GPIO_Init+0x304>)
 8000f1c:	69bb      	ldr	r3, [r7, #24]
 8000f1e:	6093      	str	r3, [r2, #8]

        temp = EXTI->FTSR;
 8000f20:	4b2d      	ldr	r3, [pc, #180]	@ (8000fd8 <HAL_GPIO_Init+0x304>)
 8000f22:	68db      	ldr	r3, [r3, #12]
 8000f24:	61bb      	str	r3, [r7, #24]
        temp &= ~((uint32_t)iocurrent);
 8000f26:	693b      	ldr	r3, [r7, #16]
 8000f28:	43db      	mvns	r3, r3
 8000f2a:	69ba      	ldr	r2, [r7, #24]
 8000f2c:	4013      	ands	r3, r2
 8000f2e:	61bb      	str	r3, [r7, #24]
        if((GPIO_Init->Mode & TRIGGER_FALLING) != 0x00U)
 8000f30:	683b      	ldr	r3, [r7, #0]
 8000f32:	685b      	ldr	r3, [r3, #4]
 8000f34:	f403 1300 	and.w	r3, r3, #2097152	@ 0x200000
 8000f38:	2b00      	cmp	r3, #0
 8000f3a:	d003      	beq.n	8000f44 <HAL_GPIO_Init+0x270>
        {
          temp |= iocurrent;
 8000f3c:	69ba      	ldr	r2, [r7, #24]
 8000f3e:	693b      	ldr	r3, [r7, #16]
 8000f40:	4313      	orrs	r3, r2
 8000f42:	61bb      	str	r3, [r7, #24]
        }
        EXTI->FTSR = temp;
 8000f44:	4a24      	ldr	r2, [pc, #144]	@ (8000fd8 <HAL_GPIO_Init+0x304>)
 8000f46:	69bb      	ldr	r3, [r7, #24]
 8000f48:	60d3      	str	r3, [r2, #12]

        temp = EXTI->EMR;
 8000f4a:	4b23      	ldr	r3, [pc, #140]	@ (8000fd8 <HAL_GPIO_Init+0x304>)
 8000f4c:	685b      	ldr	r3, [r3, #4]
 8000f4e:	61bb      	str	r3, [r7, #24]
        temp &= ~((uint32_t)iocurrent);
 8000f50:	693b      	ldr	r3, [r7, #16]
 8000f52:	43db      	mvns	r3, r3
 8000f54:	69ba      	ldr	r2, [r7, #24]
 8000f56:	4013      	ands	r3, r2
 8000f58:	61bb      	str	r3, [r7, #24]
        if((GPIO_Init->Mode & EXTI_EVT) != 0x00U)
 8000f5a:	683b      	ldr	r3, [r7, #0]
 8000f5c:	685b      	ldr	r3, [r3, #4]
 8000f5e:	f403 3300 	and.w	r3, r3, #131072	@ 0x20000
 8000f62:	2b00      	cmp	r3, #0
 8000f64:	d003      	beq.n	8000f6e <HAL_GPIO_Init+0x29a>
        {
          temp |= iocurrent;
 8000f66:	69ba      	ldr	r2, [r7, #24]
 8000f68:	693b      	ldr	r3, [r7, #16]
 8000f6a:	4313      	orrs	r3, r2
 8000f6c:	61bb      	str	r3, [r7, #24]
        }
        EXTI->EMR = temp;
 8000f6e:	4a1a      	ldr	r2, [pc, #104]	@ (8000fd8 <HAL_GPIO_Init+0x304>)
 8000f70:	69bb      	ldr	r3, [r7, #24]
 8000f72:	6053      	str	r3, [r2, #4]

        /* Clear EXTI line configuration */
        temp = EXTI->IMR;
 8000f74:	4b18      	ldr	r3, [pc, #96]	@ (8000fd8 <HAL_GPIO_Init+0x304>)
 8000f76:	681b      	ldr	r3, [r3, #0]
 8000f78:	61bb      	str	r3, [r7, #24]
        temp &= ~((uint32_t)iocurrent);
 8000f7a:	693b      	ldr	r3, [r7, #16]
 8000f7c:	43db      	mvns	r3, r3
 8000f7e:	69ba      	ldr	r2, [r7, #24]
 8000f80:	4013      	ands	r3, r2
 8000f82:	61bb      	str	r3, [r7, #24]
        if((GPIO_Init->Mode & EXTI_IT) != 0x00U)
 8000f84:	683b      	ldr	r3, [r7, #0]
 8000f86:	685b      	ldr	r3, [r3, #4]
 8000f88:	f403 3380 	and.w	r3, r3, #65536	@ 0x10000
 8000f8c:	2b00      	cmp	r3, #0
 8000f8e:	d003      	beq.n	8000f98 <HAL_GPIO_Init+0x2c4>
        {
          temp |= iocurrent;
 8000f90:	69ba      	ldr	r2, [r7, #24]
 8000f92:	693b      	ldr	r3, [r7, #16]
 8000f94:	4313      	orrs	r3, r2
 8000f96:	61bb      	str	r3, [r7, #24]
        }
        EXTI->IMR = temp;
 8000f98:	4a0f      	ldr	r2, [pc, #60]	@ (8000fd8 <HAL_GPIO_Init+0x304>)
 8000f9a:	69bb      	ldr	r3, [r7, #24]
 8000f9c:	6013      	str	r3, [r2, #0]
  for(position = 0U; position < GPIO_NUMBER; position++)
 8000f9e:	69fb      	ldr	r3, [r7, #28]
 8000fa0:	3301      	adds	r3, #1
 8000fa2:	61fb      	str	r3, [r7, #28]
 8000fa4:	69fb      	ldr	r3, [r7, #28]
 8000fa6:	2b0f      	cmp	r3, #15
 8000fa8:	f67f aea2 	bls.w	8000cf0 <HAL_GPIO_Init+0x1c>
      }
    }
  }
}
 8000fac:	bf00      	nop
 8000fae:	bf00      	nop
 8000fb0:	3724      	adds	r7, #36	@ 0x24
 8000fb2:	46bd      	mov	sp, r7
 8000fb4:	f85d 7b04 	ldr.w	r7, [sp], #4
 8000fb8:	4770      	bx	lr
 8000fba:	bf00      	nop
 8000fbc:	40023800 	.word	0x40023800
 8000fc0:	40013800 	.word	0x40013800
 8000fc4:	40020000 	.word	0x40020000
 8000fc8:	40020400 	.word	0x40020400
 8000fcc:	40020800 	.word	0x40020800
 8000fd0:	40020c00 	.word	0x40020c00
 8000fd4:	40021000 	.word	0x40021000
 8000fd8:	40013c00 	.word	0x40013c00

08000fdc <HAL_RCC_OscConfig>:
  *         supported by this API. User should request a transition to HSE Off
  *         first and then HSE On or HSE Bypass.
  * @retval HAL status
  */
__weak HAL_StatusTypeDef HAL_RCC_OscConfig(RCC_OscInitTypeDef  *RCC_OscInitStruct)
{
 8000fdc:	b580      	push	{r7, lr}
 8000fde:	b086      	sub	sp, #24
 8000fe0:	af00      	add	r7, sp, #0
 8000fe2:	6078      	str	r0, [r7, #4]
  uint32_t tickstart;
  uint32_t pll_config;
  /* Check Null pointer */
  if (RCC_OscInitStruct == NULL)
 8000fe4:	687b      	ldr	r3, [r7, #4]
 8000fe6:	2b00      	cmp	r3, #0
 8000fe8:	d101      	bne.n	8000fee <HAL_RCC_OscConfig+0x12>
  {
    return HAL_ERROR;
 8000fea:	2301      	movs	r3, #1
 8000fec:	e267      	b.n	80014be <HAL_RCC_OscConfig+0x4e2>
  }

  /* Check the parameters */
  assert_param(IS_RCC_OSCILLATORTYPE(RCC_OscInitStruct->OscillatorType));
  /*------------------------------- HSE Configuration ------------------------*/
  if (((RCC_OscInitStruct->OscillatorType) & RCC_OSCILLATORTYPE_HSE) == RCC_OSCILLATORTYPE_HSE)
 8000fee:	687b      	ldr	r3, [r7, #4]
 8000ff0:	681b      	ldr	r3, [r3, #0]
 8000ff2:	f003 0301 	and.w	r3, r3, #1
 8000ff6:	2b00      	cmp	r3, #0
 8000ff8:	d075      	beq.n	80010e6 <HAL_RCC_OscConfig+0x10a>
  {
    /* Check the parameters */
    assert_param(IS_RCC_HSE(RCC_OscInitStruct->HSEState));
    /* When the HSE is used as system clock or clock source for PLL in these cases HSE will not disabled */
    if ((__HAL_RCC_GET_SYSCLK_SOURCE() == RCC_CFGR_SWS_HSE) || \
 8000ffa:	4b88      	ldr	r3, [pc, #544]	@ (800121c <HAL_RCC_OscConfig+0x240>)
 8000ffc:	689b      	ldr	r3, [r3, #8]
 8000ffe:	f003 030c 	and.w	r3, r3, #12
 8001002:	2b04      	cmp	r3, #4
 8001004:	d00c      	beq.n	8001020 <HAL_RCC_OscConfig+0x44>
        ((__HAL_RCC_GET_SYSCLK_SOURCE() == RCC_CFGR_SWS_PLL) && ((RCC->PLLCFGR & RCC_PLLCFGR_PLLSRC) == RCC_PLLCFGR_PLLSRC_HSE)))
 8001006:	4b85      	ldr	r3, [pc, #532]	@ (800121c <HAL_RCC_OscConfig+0x240>)
 8001008:	689b      	ldr	r3, [r3, #8]
 800100a:	f003 030c 	and.w	r3, r3, #12
    if ((__HAL_RCC_GET_SYSCLK_SOURCE() == RCC_CFGR_SWS_HSE) || \
 800100e:	2b08      	cmp	r3, #8
 8001010:	d112      	bne.n	8001038 <HAL_RCC_OscConfig+0x5c>
        ((__HAL_RCC_GET_SYSCLK_SOURCE() == RCC_CFGR_SWS_PLL) && ((RCC->PLLCFGR & RCC_PLLCFGR_PLLSRC) == RCC_PLLCFGR_PLLSRC_HSE)))
 8001012:	4b82      	ldr	r3, [pc, #520]	@ (800121c <HAL_RCC_OscConfig+0x240>)
 8001014:	685b      	ldr	r3, [r3, #4]
 8001016:	f403 0380 	and.w	r3, r3, #4194304	@ 0x400000
 800101a:	f5b3 0f80 	cmp.w	r3, #4194304	@ 0x400000
 800101e:	d10b      	bne.n	8001038 <HAL_RCC_OscConfig+0x5c>
    {
      if ((__HAL_RCC_GET_FLAG(RCC_FLAG_HSERDY) != RESET) && (RCC_OscInitStruct->HSEState == RCC_HSE_OFF))
 8001020:	4b7e      	ldr	r3, [pc, #504]	@ (800121c <HAL_RCC_OscConfig+0x240>)
 8001022:	681b      	ldr	r3, [r3, #0]
 8001024:	f403 3300 	and.w	r3, r3, #131072	@ 0x20000
 8001028:	2b00      	cmp	r3, #0
 800102a:	d05b      	beq.n	80010e4 <HAL_RCC_OscConfig+0x108>
 800102c:	687b      	ldr	r3, [r7, #4]
 800102e:	685b      	ldr	r3, [r3, #4]
 8001030:	2b00      	cmp	r3, #0
 8001032:	d157      	bne.n	80010e4 <HAL_RCC_OscConfig+0x108>
      {
        return HAL_ERROR;
 8001034:	2301      	movs	r3, #1
 8001036:	e242      	b.n	80014be <HAL_RCC_OscConfig+0x4e2>
      }
    }
    else
    {
      /* Set the new HSE configuration ---------------------------------------*/
      __HAL_RCC_HSE_CONFIG(RCC_OscInitStruct->HSEState);
 8001038:	687b      	ldr	r3, [r7, #4]
 800103a:	685b      	ldr	r3, [r3, #4]
 800103c:	f5b3 3f80 	cmp.w	r3, #65536	@ 0x10000
 8001040:	d106      	bne.n	8001050 <HAL_RCC_OscConfig+0x74>
 8001042:	4b76      	ldr	r3, [pc, #472]	@ (800121c <HAL_RCC_OscConfig+0x240>)
 8001044:	681b      	ldr	r3, [r3, #0]
 8001046:	4a75      	ldr	r2, [pc, #468]	@ (800121c <HAL_RCC_OscConfig+0x240>)
 8001048:	f443 3380 	orr.w	r3, r3, #65536	@ 0x10000
 800104c:	6013      	str	r3, [r2, #0]
 800104e:	e01d      	b.n	800108c <HAL_RCC_OscConfig+0xb0>
 8001050:	687b      	ldr	r3, [r7, #4]
 8001052:	685b      	ldr	r3, [r3, #4]
 8001054:	f5b3 2fa0 	cmp.w	r3, #327680	@ 0x50000
 8001058:	d10c      	bne.n	8001074 <HAL_RCC_OscConfig+0x98>
 800105a:	4b70      	ldr	r3, [pc, #448]	@ (800121c <HAL_RCC_OscConfig+0x240>)
 800105c:	681b      	ldr	r3, [r3, #0]
 800105e:	4a6f      	ldr	r2, [pc, #444]	@ (800121c <HAL_RCC_OscConfig+0x240>)
 8001060:	f443 2380 	orr.w	r3, r3, #262144	@ 0x40000
 8001064:	6013      	str	r3, [r2, #0]
 8001066:	4b6d      	ldr	r3, [pc, #436]	@ (800121c <HAL_RCC_OscConfig+0x240>)
 8001068:	681b      	ldr	r3, [r3, #0]
 800106a:	4a6c      	ldr	r2, [pc, #432]	@ (800121c <HAL_RCC_OscConfig+0x240>)
 800106c:	f443 3380 	orr.w	r3, r3, #65536	@ 0x10000
 8001070:	6013      	str	r3, [r2, #0]
 8001072:	e00b      	b.n	800108c <HAL_RCC_OscConfig+0xb0>
 8001074:	4b69      	ldr	r3, [pc, #420]	@ (800121c <HAL_RCC_OscConfig+0x240>)
 8001076:	681b      	ldr	r3, [r3, #0]
 8001078:	4a68      	ldr	r2, [pc, #416]	@ (800121c <HAL_RCC_OscConfig+0x240>)
 800107a:	f423 3380 	bic.w	r3, r3, #65536	@ 0x10000
 800107e:	6013      	str	r3, [r2, #0]
 8001080:	4b66      	ldr	r3, [pc, #408]	@ (800121c <HAL_RCC_OscConfig+0x240>)
 8001082:	681b      	ldr	r3, [r3, #0]
 8001084:	4a65      	ldr	r2, [pc, #404]	@ (800121c <HAL_RCC_OscConfig+0x240>)
 8001086:	f423 2380 	bic.w	r3, r3, #262144	@ 0x40000
 800108a:	6013      	str	r3, [r2, #0]

      /* Check the HSE State */
      if ((RCC_OscInitStruct->HSEState) != RCC_HSE_OFF)
 800108c:	687b      	ldr	r3, [r7, #4]
 800108e:	685b      	ldr	r3, [r3, #4]
 8001090:	2b00      	cmp	r3, #0
 8001092:	d013      	beq.n	80010bc <HAL_RCC_OscConfig+0xe0>
      {
        /* Get Start Tick */
        tickstart = HAL_GetTick();
 8001094:	f7ff fd08 	bl	8000aa8 <HAL_GetTick>
 8001098:	6138      	str	r0, [r7, #16]

        /* Wait till HSE is ready */
        while (__HAL_RCC_GET_FLAG(RCC_FLAG_HSERDY) == RESET)
 800109a:	e008      	b.n	80010ae <HAL_RCC_OscConfig+0xd2>
        {
          if ((HAL_GetTick() - tickstart) > HSE_TIMEOUT_VALUE)
 800109c:	f7ff fd04 	bl	8000aa8 <HAL_GetTick>
 80010a0:	4602      	mov	r2, r0
 80010a2:	693b      	ldr	r3, [r7, #16]
 80010a4:	1ad3      	subs	r3, r2, r3
 80010a6:	2b64      	cmp	r3, #100	@ 0x64
 80010a8:	d901      	bls.n	80010ae <HAL_RCC_OscConfig+0xd2>
          {
            return HAL_TIMEOUT;
 80010aa:	2303      	movs	r3, #3
 80010ac:	e207      	b.n	80014be <HAL_RCC_OscConfig+0x4e2>
        while (__HAL_RCC_GET_FLAG(RCC_FLAG_HSERDY) == RESET)
 80010ae:	4b5b      	ldr	r3, [pc, #364]	@ (800121c <HAL_RCC_OscConfig+0x240>)
 80010b0:	681b      	ldr	r3, [r3, #0]
 80010b2:	f403 3300 	and.w	r3, r3, #131072	@ 0x20000
 80010b6:	2b00      	cmp	r3, #0
 80010b8:	d0f0      	beq.n	800109c <HAL_RCC_OscConfig+0xc0>
 80010ba:	e014      	b.n	80010e6 <HAL_RCC_OscConfig+0x10a>
        }
      }
      else
      {
        /* Get Start Tick */
        tickstart = HAL_GetTick();
 80010bc:	f7ff fcf4 	bl	8000aa8 <HAL_GetTick>
 80010c0:	6138      	str	r0, [r7, #16]

        /* Wait till HSE is bypassed or disabled */
        while (__HAL_RCC_GET_FLAG(RCC_FLAG_HSERDY) != RESET)
 80010c2:	e008      	b.n	80010d6 <HAL_RCC_OscConfig+0xfa>
        {
          if ((HAL_GetTick() - tickstart) > HSE_TIMEOUT_VALUE)
 80010c4:	f7ff fcf0 	bl	8000aa8 <HAL_GetTick>
 80010c8:	4602      	mov	r2, r0
 80010ca:	693b      	ldr	r3, [r7, #16]
 80010cc:	1ad3      	subs	r3, r2, r3
 80010ce:	2b64      	cmp	r3, #100	@ 0x64
 80010d0:	d901      	bls.n	80010d6 <HAL_RCC_OscConfig+0xfa>
          {
            return HAL_TIMEOUT;
 80010d2:	2303      	movs	r3, #3
 80010d4:	e1f3      	b.n	80014be <HAL_RCC_OscConfig+0x4e2>
        while (__HAL_RCC_GET_FLAG(RCC_FLAG_HSERDY) != RESET)
 80010d6:	4b51      	ldr	r3, [pc, #324]	@ (800121c <HAL_RCC_OscConfig+0x240>)
 80010d8:	681b      	ldr	r3, [r3, #0]
 80010da:	f403 3300 	and.w	r3, r3, #131072	@ 0x20000
 80010de:	2b00      	cmp	r3, #0
 80010e0:	d1f0      	bne.n	80010c4 <HAL_RCC_OscConfig+0xe8>
 80010e2:	e000      	b.n	80010e6 <HAL_RCC_OscConfig+0x10a>
      if ((__HAL_RCC_GET_FLAG(RCC_FLAG_HSERDY) != RESET) && (RCC_OscInitStruct->HSEState == RCC_HSE_OFF))
 80010e4:	bf00      	nop
        }
      }
    }
  }
  /*----------------------------- HSI Configuration --------------------------*/
  if (((RCC_OscInitStruct->OscillatorType) & RCC_OSCILLATORTYPE_HSI) == RCC_OSCILLATORTYPE_HSI)
 80010e6:	687b      	ldr	r3, [r7, #4]
 80010e8:	681b      	ldr	r3, [r3, #0]
 80010ea:	f003 0302 	and.w	r3, r3, #2
 80010ee:	2b00      	cmp	r3, #0
 80010f0:	d063      	beq.n	80011ba <HAL_RCC_OscConfig+0x1de>
    /* Check the parameters */
    assert_param(IS_RCC_HSI(RCC_OscInitStruct->HSIState));
    assert_param(IS_RCC_CALIBRATION_VALUE(RCC_OscInitStruct->HSICalibrationValue));

    /* Check if HSI is used as system clock or as PLL source when PLL is selected as system clock */
    if ((__HAL_RCC_GET_SYSCLK_SOURCE() == RCC_CFGR_SWS_HSI) || \
 80010f2:	4b4a      	ldr	r3, [pc, #296]	@ (800121c <HAL_RCC_OscConfig+0x240>)
 80010f4:	689b      	ldr	r3, [r3, #8]
 80010f6:	f003 030c 	and.w	r3, r3, #12
 80010fa:	2b00      	cmp	r3, #0
 80010fc:	d00b      	beq.n	8001116 <HAL_RCC_OscConfig+0x13a>
        ((__HAL_RCC_GET_SYSCLK_SOURCE() == RCC_CFGR_SWS_PLL) && ((RCC->PLLCFGR & RCC_PLLCFGR_PLLSRC) == RCC_PLLCFGR_PLLSRC_HSI)))
 80010fe:	4b47      	ldr	r3, [pc, #284]	@ (800121c <HAL_RCC_OscConfig+0x240>)
 8001100:	689b      	ldr	r3, [r3, #8]
 8001102:	f003 030c 	and.w	r3, r3, #12
    if ((__HAL_RCC_GET_SYSCLK_SOURCE() == RCC_CFGR_SWS_HSI) || \
 8001106:	2b08      	cmp	r3, #8
 8001108:	d11c      	bne.n	8001144 <HAL_RCC_OscConfig+0x168>
        ((__HAL_RCC_GET_SYSCLK_SOURCE() == RCC_CFGR_SWS_PLL) && ((RCC->PLLCFGR & RCC_PLLCFGR_PLLSRC) == RCC_PLLCFGR_PLLSRC_HSI)))
 800110a:	4b44      	ldr	r3, [pc, #272]	@ (800121c <HAL_RCC_OscConfig+0x240>)
 800110c:	685b      	ldr	r3, [r3, #4]
 800110e:	f403 0380 	and.w	r3, r3, #4194304	@ 0x400000
 8001112:	2b00      	cmp	r3, #0
 8001114:	d116      	bne.n	8001144 <HAL_RCC_OscConfig+0x168>
    {
      /* When HSI is used as system clock it will not disabled */
      if ((__HAL_RCC_GET_FLAG(RCC_FLAG_HSIRDY) != RESET) && (RCC_OscInitStruct->HSIState != RCC_HSI_ON))
 8001116:	4b41      	ldr	r3, [pc, #260]	@ (800121c <HAL_RCC_OscConfig+0x240>)
 8001118:	681b      	ldr	r3, [r3, #0]
 800111a:	f003 0302 	and.w	r3, r3, #2
 800111e:	2b00      	cmp	r3, #0
 8001120:	d005      	beq.n	800112e <HAL_RCC_OscConfig+0x152>
 8001122:	687b      	ldr	r3, [r7, #4]
 8001124:	68db      	ldr	r3, [r3, #12]
 8001126:	2b01      	cmp	r3, #1
 8001128:	d001      	beq.n	800112e <HAL_RCC_OscConfig+0x152>
      {
        return HAL_ERROR;
 800112a:	2301      	movs	r3, #1
 800112c:	e1c7      	b.n	80014be <HAL_RCC_OscConfig+0x4e2>
      }
      /* Otherwise, just the calibration is allowed */
      else
      {
        /* Adjusts the Internal High Speed oscillator (HSI) calibration value.*/
        __HAL_RCC_HSI_CALIBRATIONVALUE_ADJUST(RCC_OscInitStruct->HSICalibrationValue);
 800112e:	4b3b      	ldr	r3, [pc, #236]	@ (800121c <HAL_RCC_OscConfig+0x240>)
 8001130:	681b      	ldr	r3, [r3, #0]
 8001132:	f023 02f8 	bic.w	r2, r3, #248	@ 0xf8
 8001136:	687b      	ldr	r3, [r7, #4]
 8001138:	691b      	ldr	r3, [r3, #16]
 800113a:	00db      	lsls	r3, r3, #3
 800113c:	4937      	ldr	r1, [pc, #220]	@ (800121c <HAL_RCC_OscConfig+0x240>)
 800113e:	4313      	orrs	r3, r2
 8001140:	600b      	str	r3, [r1, #0]
      if ((__HAL_RCC_GET_FLAG(RCC_FLAG_HSIRDY) != RESET) && (RCC_OscInitStruct->HSIState != RCC_HSI_ON))
 8001142:	e03a      	b.n	80011ba <HAL_RCC_OscConfig+0x1de>
      }
    }
    else
    {
      /* Check the HSI State */
      if ((RCC_OscInitStruct->HSIState) != RCC_HSI_OFF)
 8001144:	687b      	ldr	r3, [r7, #4]
 8001146:	68db      	ldr	r3, [r3, #12]
 8001148:	2b00      	cmp	r3, #0
 800114a:	d020      	beq.n	800118e <HAL_RCC_OscConfig+0x1b2>
      {
        /* Enable the Internal High Speed oscillator (HSI). */
        __HAL_RCC_HSI_ENABLE();
 800114c:	4b34      	ldr	r3, [pc, #208]	@ (8001220 <HAL_RCC_OscConfig+0x244>)
 800114e:	2201      	movs	r2, #1
 8001150:	601a      	str	r2, [r3, #0]

        /* Get Start Tick*/
        tickstart = HAL_GetTick();
 8001152:	f7ff fca9 	bl	8000aa8 <HAL_GetTick>
 8001156:	6138      	str	r0, [r7, #16]

        /* Wait till HSI is ready */
        while (__HAL_RCC_GET_FLAG(RCC_FLAG_HSIRDY) == RESET)
 8001158:	e008      	b.n	800116c <HAL_RCC_OscConfig+0x190>
        {
          if ((HAL_GetTick() - tickstart) > HSI_TIMEOUT_VALUE)
 800115a:	f7ff fca5 	bl	8000aa8 <HAL_GetTick>
 800115e:	4602      	mov	r2, r0
 8001160:	693b      	ldr	r3, [r7, #16]
 8001162:	1ad3      	subs	r3, r2, r3
 8001164:	2b02      	cmp	r3, #2
 8001166:	d901      	bls.n	800116c <HAL_RCC_OscConfig+0x190>
          {
            return HAL_TIMEOUT;
 8001168:	2303      	movs	r3, #3
 800116a:	e1a8      	b.n	80014be <HAL_RCC_OscConfig+0x4e2>
        while (__HAL_RCC_GET_FLAG(RCC_FLAG_HSIRDY) == RESET)
 800116c:	4b2b      	ldr	r3, [pc, #172]	@ (800121c <HAL_RCC_OscConfig+0x240>)
 800116e:	681b      	ldr	r3, [r3, #0]
 8001170:	f003 0302 	and.w	r3, r3, #2
 8001174:	2b00      	cmp	r3, #0
 8001176:	d0f0      	beq.n	800115a <HAL_RCC_OscConfig+0x17e>
          }
        }

        /* Adjusts the Internal High Speed oscillator (HSI) calibration value. */
        __HAL_RCC_HSI_CALIBRATIONVALUE_ADJUST(RCC_OscInitStruct->HSICalibrationValue);
 8001178:	4b28      	ldr	r3, [pc, #160]	@ (800121c <HAL_RCC_OscConfig+0x240>)
 800117a:	681b      	ldr	r3, [r3, #0]
 800117c:	f023 02f8 	bic.w	r2, r3, #248	@ 0xf8
 8001180:	687b      	ldr	r3, [r7, #4]
 8001182:	691b      	ldr	r3, [r3, #16]
 8001184:	00db      	lsls	r3, r3, #3
 8001186:	4925      	ldr	r1, [pc, #148]	@ (800121c <HAL_RCC_OscConfig+0x240>)
 8001188:	4313      	orrs	r3, r2
 800118a:	600b      	str	r3, [r1, #0]
 800118c:	e015      	b.n	80011ba <HAL_RCC_OscConfig+0x1de>
      }
      else
      {
        /* Disable the Internal High Speed oscillator (HSI). */
        __HAL_RCC_HSI_DISABLE();
 800118e:	4b24      	ldr	r3, [pc, #144]	@ (8001220 <HAL_RCC_OscConfig+0x244>)
 8001190:	2200      	movs	r2, #0
 8001192:	601a      	str	r2, [r3, #0]

        /* Get Start Tick*/
        tickstart = HAL_GetTick();
 8001194:	f7ff fc88 	bl	8000aa8 <HAL_GetTick>
 8001198:	6138      	str	r0, [r7, #16]

        /* Wait till HSI is ready */
        while (__HAL_RCC_GET_FLAG(RCC_FLAG_HSIRDY) != RESET)
 800119a:	e008      	b.n	80011ae <HAL_RCC_OscConfig+0x1d2>
        {
          if ((HAL_GetTick() - tickstart) > HSI_TIMEOUT_VALUE)
 800119c:	f7ff fc84 	bl	8000aa8 <HAL_GetTick>
 80011a0:	4602      	mov	r2, r0
 80011a2:	693b      	ldr	r3, [r7, #16]
 80011a4:	1ad3      	subs	r3, r2, r3
 80011a6:	2b02      	cmp	r3, #2
 80011a8:	d901      	bls.n	80011ae <HAL_RCC_OscConfig+0x1d2>
          {
            return HAL_TIMEOUT;
 80011aa:	2303      	movs	r3, #3
 80011ac:	e187      	b.n	80014be <HAL_RCC_OscConfig+0x4e2>
        while (__HAL_RCC_GET_FLAG(RCC_FLAG_HSIRDY) != RESET)
 80011ae:	4b1b      	ldr	r3, [pc, #108]	@ (800121c <HAL_RCC_OscConfig+0x240>)
 80011b0:	681b      	ldr	r3, [r3, #0]
 80011b2:	f003 0302 	and.w	r3, r3, #2
 80011b6:	2b00      	cmp	r3, #0
 80011b8:	d1f0      	bne.n	800119c <HAL_RCC_OscConfig+0x1c0>
        }
      }
    }
  }
  /*------------------------------ LSI Configuration -------------------------*/
  if (((RCC_OscInitStruct->OscillatorType) & RCC_OSCILLATORTYPE_LSI) == RCC_OSCILLATORTYPE_LSI)
 80011ba:	687b      	ldr	r3, [r7, #4]
 80011bc:	681b      	ldr	r3, [r3, #0]
 80011be:	f003 0308 	and.w	r3, r3, #8
 80011c2:	2b00      	cmp	r3, #0
 80011c4:	d036      	beq.n	8001234 <HAL_RCC_OscConfig+0x258>
  {
    /* Check the parameters */
    assert_param(IS_RCC_LSI(RCC_OscInitStruct->LSIState));

    /* Check the LSI State */
    if ((RCC_OscInitStruct->LSIState) != RCC_LSI_OFF)
 80011c6:	687b      	ldr	r3, [r7, #4]
 80011c8:	695b      	ldr	r3, [r3, #20]
 80011ca:	2b00      	cmp	r3, #0
 80011cc:	d016      	beq.n	80011fc <HAL_RCC_OscConfig+0x220>
    {
      /* Enable the Internal Low Speed oscillator (LSI). */
      __HAL_RCC_LSI_ENABLE();
 80011ce:	4b15      	ldr	r3, [pc, #84]	@ (8001224 <HAL_RCC_OscConfig+0x248>)
 80011d0:	2201      	movs	r2, #1
 80011d2:	601a      	str	r2, [r3, #0]

      /* Get Start Tick*/
      tickstart = HAL_GetTick();
 80011d4:	f7ff fc68 	bl	8000aa8 <HAL_GetTick>
 80011d8:	6138      	str	r0, [r7, #16]

      /* Wait till LSI is ready */
      while (__HAL_RCC_GET_FLAG(RCC_FLAG_LSIRDY) == RESET)
 80011da:	e008      	b.n	80011ee <HAL_RCC_OscConfig+0x212>
      {
        if ((HAL_GetTick() - tickstart) > LSI_TIMEOUT_VALUE)
 80011dc:	f7ff fc64 	bl	8000aa8 <HAL_GetTick>
 80011e0:	4602      	mov	r2, r0
 80011e2:	693b      	ldr	r3, [r7, #16]
 80011e4:	1ad3      	subs	r3, r2, r3
 80011e6:	2b02      	cmp	r3, #2
 80011e8:	d901      	bls.n	80011ee <HAL_RCC_OscConfig+0x212>
        {
          return HAL_TIMEOUT;
 80011ea:	2303      	movs	r3, #3
 80011ec:	e167      	b.n	80014be <HAL_RCC_OscConfig+0x4e2>
      while (__HAL_RCC_GET_FLAG(RCC_FLAG_LSIRDY) == RESET)
 80011ee:	4b0b      	ldr	r3, [pc, #44]	@ (800121c <HAL_RCC_OscConfig+0x240>)
 80011f0:	6f5b      	ldr	r3, [r3, #116]	@ 0x74
 80011f2:	f003 0302 	and.w	r3, r3, #2
 80011f6:	2b00      	cmp	r3, #0
 80011f8:	d0f0      	beq.n	80011dc <HAL_RCC_OscConfig+0x200>
 80011fa:	e01b      	b.n	8001234 <HAL_RCC_OscConfig+0x258>
      }
    }
    else
    {
      /* Disable the Internal Low Speed oscillator (LSI). */
      __HAL_RCC_LSI_DISABLE();
 80011fc:	4b09      	ldr	r3, [pc, #36]	@ (8001224 <HAL_RCC_OscConfig+0x248>)
 80011fe:	2200      	movs	r2, #0
 8001200:	601a      	str	r2, [r3, #0]

      /* Get Start Tick */
      tickstart = HAL_GetTick();
 8001202:	f7ff fc51 	bl	8000aa8 <HAL_GetTick>
 8001206:	6138      	str	r0, [r7, #16]

      /* Wait till LSI is ready */
      while (__HAL_RCC_GET_FLAG(RCC_FLAG_LSIRDY) != RESET)
 8001208:	e00e      	b.n	8001228 <HAL_RCC_OscConfig+0x24c>
      {
        if ((HAL_GetTick() - tickstart) > LSI_TIMEOUT_VALUE)
 800120a:	f7ff fc4d 	bl	8000aa8 <HAL_GetTick>
 800120e:	4602      	mov	r2, r0
 8001210:	693b      	ldr	r3, [r7, #16]
 8001212:	1ad3      	subs	r3, r2, r3
 8001214:	2b02      	cmp	r3, #2
 8001216:	d907      	bls.n	8001228 <HAL_RCC_OscConfig+0x24c>
        {
          return HAL_TIMEOUT;
 8001218:	2303      	movs	r3, #3
 800121a:	e150      	b.n	80014be <HAL_RCC_OscConfig+0x4e2>
 800121c:	40023800 	.word	0x40023800
 8001220:	42470000 	.word	0x42470000
 8001224:	42470e80 	.word	0x42470e80
      while (__HAL_RCC_GET_FLAG(RCC_FLAG_LSIRDY) != RESET)
 8001228:	4b88      	ldr	r3, [pc, #544]	@ (800144c <HAL_RCC_OscConfig+0x470>)
 800122a:	6f5b      	ldr	r3, [r3, #116]	@ 0x74
 800122c:	f003 0302 	and.w	r3, r3, #2
 8001230:	2b00      	cmp	r3, #0
 8001232:	d1ea      	bne.n	800120a <HAL_RCC_OscConfig+0x22e>
        }
      }
    }
  }
  /*------------------------------ LSE Configuration -------------------------*/
  if (((RCC_OscInitStruct->OscillatorType) & RCC_OSCILLATORTYPE_LSE) == RCC_OSCILLATORTYPE_LSE)
 8001234:	687b      	ldr	r3, [r7, #4]
 8001236:	681b      	ldr	r3, [r3, #0]
 8001238:	f003 0304 	and.w	r3, r3, #4
 800123c:	2b00      	cmp	r3, #0
 800123e:	f000 8097 	beq.w	8001370 <HAL_RCC_OscConfig+0x394>
  {
    FlagStatus       pwrclkchanged = RESET;
 8001242:	2300      	movs	r3, #0
 8001244:	75fb      	strb	r3, [r7, #23]
    /* Check the parameters */
    assert_param(IS_RCC_LSE(RCC_OscInitStruct->LSEState));

    /* Update LSE configuration in Backup Domain control register    */
    /* Requires to enable write access to Backup Domain of necessary */
    if (__HAL_RCC_PWR_IS_CLK_DISABLED())
 8001246:	4b81      	ldr	r3, [pc, #516]	@ (800144c <HAL_RCC_OscConfig+0x470>)
 8001248:	6c1b      	ldr	r3, [r3, #64]	@ 0x40
 800124a:	f003 5380 	and.w	r3, r3, #268435456	@ 0x10000000
 800124e:	2b00      	cmp	r3, #0
 8001250:	d10f      	bne.n	8001272 <HAL_RCC_OscConfig+0x296>
    {
      __HAL_RCC_PWR_CLK_ENABLE();
 8001252:	2300      	movs	r3, #0
 8001254:	60bb      	str	r3, [r7, #8]
 8001256:	4b7d      	ldr	r3, [pc, #500]	@ (800144c <HAL_RCC_OscConfig+0x470>)
 8001258:	6c1b      	ldr	r3, [r3, #64]	@ 0x40
 800125a:	4a7c      	ldr	r2, [pc, #496]	@ (800144c <HAL_RCC_OscConfig+0x470>)
 800125c:	f043 5380 	orr.w	r3, r3, #268435456	@ 0x10000000
 8001260:	6413      	str	r3, [r2, #64]	@ 0x40
 8001262:	4b7a      	ldr	r3, [pc, #488]	@ (800144c <HAL_RCC_OscConfig+0x470>)
 8001264:	6c1b      	ldr	r3, [r3, #64]	@ 0x40
 8001266:	f003 5380 	and.w	r3, r3, #268435456	@ 0x10000000
 800126a:	60bb      	str	r3, [r7, #8]
 800126c:	68bb      	ldr	r3, [r7, #8]
      pwrclkchanged = SET;
 800126e:	2301      	movs	r3, #1
 8001270:	75fb      	strb	r3, [r7, #23]
    }

    if (HAL_IS_BIT_CLR(PWR->CR, PWR_CR_DBP))
 8001272:	4b77      	ldr	r3, [pc, #476]	@ (8001450 <HAL_RCC_OscConfig+0x474>)
 8001274:	681b      	ldr	r3, [r3, #0]
 8001276:	f403 7380 	and.w	r3, r3, #256	@ 0x100
 800127a:	2b00      	cmp	r3, #0
 800127c:	d118      	bne.n	80012b0 <HAL_RCC_OscConfig+0x2d4>
    {
      /* Enable write access to Backup domain */
      SET_BIT(PWR->CR, PWR_CR_DBP);
 800127e:	4b74      	ldr	r3, [pc, #464]	@ (8001450 <HAL_RCC_OscConfig+0x474>)
 8001280:	681b      	ldr	r3, [r3, #0]
 8001282:	4a73      	ldr	r2, [pc, #460]	@ (8001450 <HAL_RCC_OscConfig+0x474>)
 8001284:	f443 7380 	orr.w	r3, r3, #256	@ 0x100
 8001288:	6013      	str	r3, [r2, #0]

      /* Wait for Backup domain Write protection disable */
      tickstart = HAL_GetTick();
 800128a:	f7ff fc0d 	bl	8000aa8 <HAL_GetTick>
 800128e:	6138      	str	r0, [r7, #16]

      while (HAL_IS_BIT_CLR(PWR->CR, PWR_CR_DBP))
 8001290:	e008      	b.n	80012a4 <HAL_RCC_OscConfig+0x2c8>
      {
        if ((HAL_GetTick() - tickstart) > RCC_DBP_TIMEOUT_VALUE)
 8001292:	f7ff fc09 	bl	8000aa8 <HAL_GetTick>
 8001296:	4602      	mov	r2, r0
 8001298:	693b      	ldr	r3, [r7, #16]
 800129a:	1ad3      	subs	r3, r2, r3
 800129c:	2b02      	cmp	r3, #2
 800129e:	d901      	bls.n	80012a4 <HAL_RCC_OscConfig+0x2c8>
        {
          return HAL_TIMEOUT;
 80012a0:	2303      	movs	r3, #3
 80012a2:	e10c      	b.n	80014be <HAL_RCC_OscConfig+0x4e2>
      while (HAL_IS_BIT_CLR(PWR->CR, PWR_CR_DBP))
 80012a4:	4b6a      	ldr	r3, [pc, #424]	@ (8001450 <HAL_RCC_OscConfig+0x474>)
 80012a6:	681b      	ldr	r3, [r3, #0]
 80012a8:	f403 7380 	and.w	r3, r3, #256	@ 0x100
 80012ac:	2b00      	cmp	r3, #0
 80012ae:	d0f0      	beq.n	8001292 <HAL_RCC_OscConfig+0x2b6>
        }
      }
    }

    /* Set the new LSE configuration -----------------------------------------*/
    __HAL_RCC_LSE_CONFIG(RCC_OscInitStruct->LSEState);
 80012b0:	687b      	ldr	r3, [r7, #4]
 80012b2:	689b      	ldr	r3, [r3, #8]
 80012b4:	2b01      	cmp	r3, #1
 80012b6:	d106      	bne.n	80012c6 <HAL_RCC_OscConfig+0x2ea>
 80012b8:	4b64      	ldr	r3, [pc, #400]	@ (800144c <HAL_RCC_OscConfig+0x470>)
 80012ba:	6f1b      	ldr	r3, [r3, #112]	@ 0x70
 80012bc:	4a63      	ldr	r2, [pc, #396]	@ (800144c <HAL_RCC_OscConfig+0x470>)
 80012be:	f043 0301 	orr.w	r3, r3, #1
 80012c2:	6713      	str	r3, [r2, #112]	@ 0x70
 80012c4:	e01c      	b.n	8001300 <HAL_RCC_OscConfig+0x324>
 80012c6:	687b      	ldr	r3, [r7, #4]
 80012c8:	689b      	ldr	r3, [r3, #8]
 80012ca:	2b05      	cmp	r3, #5
 80012cc:	d10c      	bne.n	80012e8 <HAL_RCC_OscConfig+0x30c>
 80012ce:	4b5f      	ldr	r3, [pc, #380]	@ (800144c <HAL_RCC_OscConfig+0x470>)
 80012d0:	6f1b      	ldr	r3, [r3, #112]	@ 0x70
 80012d2:	4a5e      	ldr	r2, [pc, #376]	@ (800144c <HAL_RCC_OscConfig+0x470>)
 80012d4:	f043 0304 	orr.w	r3, r3, #4
 80012d8:	6713      	str	r3, [r2, #112]	@ 0x70
 80012da:	4b5c      	ldr	r3, [pc, #368]	@ (800144c <HAL_RCC_OscConfig+0x470>)
 80012dc:	6f1b      	ldr	r3, [r3, #112]	@ 0x70
 80012de:	4a5b      	ldr	r2, [pc, #364]	@ (800144c <HAL_RCC_OscConfig+0x470>)
 80012e0:	f043 0301 	orr.w	r3, r3, #1
 80012e4:	6713      	str	r3, [r2, #112]	@ 0x70
 80012e6:	e00b      	b.n	8001300 <HAL_RCC_OscConfig+0x324>
 80012e8:	4b58      	ldr	r3, [pc, #352]	@ (800144c <HAL_RCC_OscConfig+0x470>)
 80012ea:	6f1b      	ldr	r3, [r3, #112]	@ 0x70
 80012ec:	4a57      	ldr	r2, [pc, #348]	@ (800144c <HAL_RCC_OscConfig+0x470>)
 80012ee:	f023 0301 	bic.w	r3, r3, #1
 80012f2:	6713      	str	r3, [r2, #112]	@ 0x70
 80012f4:	4b55      	ldr	r3, [pc, #340]	@ (800144c <HAL_RCC_OscConfig+0x470>)
 80012f6:	6f1b      	ldr	r3, [r3, #112]	@ 0x70
 80012f8:	4a54      	ldr	r2, [pc, #336]	@ (800144c <HAL_RCC_OscConfig+0x470>)
 80012fa:	f023 0304 	bic.w	r3, r3, #4
 80012fe:	6713      	str	r3, [r2, #112]	@ 0x70
    /* Check the LSE State */
    if ((RCC_OscInitStruct->LSEState) != RCC_LSE_OFF)
 8001300:	687b      	ldr	r3, [r7, #4]
 8001302:	689b      	ldr	r3, [r3, #8]
 8001304:	2b00      	cmp	r3, #0
 8001306:	d015      	beq.n	8001334 <HAL_RCC_OscConfig+0x358>
    {
      /* Get Start Tick*/
      tickstart = HAL_GetTick();
 8001308:	f7ff fbce 	bl	8000aa8 <HAL_GetTick>
 800130c:	6138      	str	r0, [r7, #16]

      /* Wait till LSE is ready */
      while (__HAL_RCC_GET_FLAG(RCC_FLAG_LSERDY) == RESET)
 800130e:	e00a      	b.n	8001326 <HAL_RCC_OscConfig+0x34a>
      {
        if ((HAL_GetTick() - tickstart) > RCC_LSE_TIMEOUT_VALUE)
 8001310:	f7ff fbca 	bl	8000aa8 <HAL_GetTick>
 8001314:	4602      	mov	r2, r0
 8001316:	693b      	ldr	r3, [r7, #16]
 8001318:	1ad3      	subs	r3, r2, r3
 800131a:	f241 3288 	movw	r2, #5000	@ 0x1388
 800131e:	4293      	cmp	r3, r2
 8001320:	d901      	bls.n	8001326 <HAL_RCC_OscConfig+0x34a>
        {
          return HAL_TIMEOUT;
 8001322:	2303      	movs	r3, #3
 8001324:	e0cb      	b.n	80014be <HAL_RCC_OscConfig+0x4e2>
      while (__HAL_RCC_GET_FLAG(RCC_FLAG_LSERDY) == RESET)
 8001326:	4b49      	ldr	r3, [pc, #292]	@ (800144c <HAL_RCC_OscConfig+0x470>)
 8001328:	6f1b      	ldr	r3, [r3, #112]	@ 0x70
 800132a:	f003 0302 	and.w	r3, r3, #2
 800132e:	2b00      	cmp	r3, #0
 8001330:	d0ee      	beq.n	8001310 <HAL_RCC_OscConfig+0x334>
 8001332:	e014      	b.n	800135e <HAL_RCC_OscConfig+0x382>
      }
    }
    else
    {
      /* Get Start Tick */
      tickstart = HAL_GetTick();
 8001334:	f7ff fbb8 	bl	8000aa8 <HAL_GetTick>
 8001338:	6138      	str	r0, [r7, #16]

      /* Wait till LSE is ready */
      while (__HAL_RCC_GET_FLAG(RCC_FLAG_LSERDY) != RESET)
 800133a:	e00a      	b.n	8001352 <HAL_RCC_OscConfig+0x376>
      {
        if ((HAL_GetTick() - tickstart) > RCC_LSE_TIMEOUT_VALUE)
 800133c:	f7ff fbb4 	bl	8000aa8 <HAL_GetTick>
 8001340:	4602      	mov	r2, r0
 8001342:	693b      	ldr	r3, [r7, #16]
 8001344:	1ad3      	subs	r3, r2, r3
 8001346:	f241 3288 	movw	r2, #5000	@ 0x1388
 800134a:	4293      	cmp	r3, r2
 800134c:	d901      	bls.n	8001352 <HAL_RCC_OscConfig+0x376>
        {
          return HAL_TIMEOUT;
 800134e:	2303      	movs	r3, #3
 8001350:	e0b5      	b.n	80014be <HAL_RCC_OscConfig+0x4e2>
      while (__HAL_RCC_GET_FLAG(RCC_FLAG_LSERDY) != RESET)
 8001352:	4b3e      	ldr	r3, [pc, #248]	@ (800144c <HAL_RCC_OscConfig+0x470>)
 8001354:	6f1b      	ldr	r3, [r3, #112]	@ 0x70
 8001356:	f003 0302 	and.w	r3, r3, #2
 800135a:	2b00      	cmp	r3, #0
 800135c:	d1ee      	bne.n	800133c <HAL_RCC_OscConfig+0x360>
        }
      }
    }

    /* Restore clock configuration if changed */
    if (pwrclkchanged == SET)
 800135e:	7dfb      	ldrb	r3, [r7, #23]
 8001360:	2b01      	cmp	r3, #1
 8001362:	d105      	bne.n	8001370 <HAL_RCC_OscConfig+0x394>
    {
      __HAL_RCC_PWR_CLK_DISABLE();
 8001364:	4b39      	ldr	r3, [pc, #228]	@ (800144c <HAL_RCC_OscConfig+0x470>)
 8001366:	6c1b      	ldr	r3, [r3, #64]	@ 0x40
 8001368:	4a38      	ldr	r2, [pc, #224]	@ (800144c <HAL_RCC_OscConfig+0x470>)
 800136a:	f023 5380 	bic.w	r3, r3, #268435456	@ 0x10000000
 800136e:	6413      	str	r3, [r2, #64]	@ 0x40
    }
  }
  /*-------------------------------- PLL Configuration -----------------------*/
  /* Check the parameters */
  assert_param(IS_RCC_PLL(RCC_OscInitStruct->PLL.PLLState));
  if ((RCC_OscInitStruct->PLL.PLLState) != RCC_PLL_NONE)
 8001370:	687b      	ldr	r3, [r7, #4]
 8001372:	699b      	ldr	r3, [r3, #24]
 8001374:	2b00      	cmp	r3, #0
 8001376:	f000 80a1 	beq.w	80014bc <HAL_RCC_OscConfig+0x4e0>
  {
    /* Check if the PLL is used as system clock or not */
    if (__HAL_RCC_GET_SYSCLK_SOURCE() != RCC_CFGR_SWS_PLL)
 800137a:	4b34      	ldr	r3, [pc, #208]	@ (800144c <HAL_RCC_OscConfig+0x470>)
 800137c:	689b      	ldr	r3, [r3, #8]
 800137e:	f003 030c 	and.w	r3, r3, #12
 8001382:	2b08      	cmp	r3, #8
 8001384:	d05c      	beq.n	8001440 <HAL_RCC_OscConfig+0x464>
    {
      if ((RCC_OscInitStruct->PLL.PLLState) == RCC_PLL_ON)
 8001386:	687b      	ldr	r3, [r7, #4]
 8001388:	699b      	ldr	r3, [r3, #24]
 800138a:	2b02      	cmp	r3, #2
 800138c:	d141      	bne.n	8001412 <HAL_RCC_OscConfig+0x436>
        assert_param(IS_RCC_PLLN_VALUE(RCC_OscInitStruct->PLL.PLLN));
        assert_param(IS_RCC_PLLP_VALUE(RCC_OscInitStruct->PLL.PLLP));
        assert_param(IS_RCC_PLLQ_VALUE(RCC_OscInitStruct->PLL.PLLQ));

        /* Disable the main PLL. */
        __HAL_RCC_PLL_DISABLE();
 800138e:	4b31      	ldr	r3, [pc, #196]	@ (8001454 <HAL_RCC_OscConfig+0x478>)
 8001390:	2200      	movs	r2, #0
 8001392:	601a      	str	r2, [r3, #0]

        /* Get Start Tick */
        tickstart = HAL_GetTick();
 8001394:	f7ff fb88 	bl	8000aa8 <HAL_GetTick>
 8001398:	6138      	str	r0, [r7, #16]

        /* Wait till PLL is disabled */
        while (__HAL_RCC_GET_FLAG(RCC_FLAG_PLLRDY) != RESET)
 800139a:	e008      	b.n	80013ae <HAL_RCC_OscConfig+0x3d2>
        {
          if ((HAL_GetTick() - tickstart) > PLL_TIMEOUT_VALUE)
 800139c:	f7ff fb84 	bl	8000aa8 <HAL_GetTick>
 80013a0:	4602      	mov	r2, r0
 80013a2:	693b      	ldr	r3, [r7, #16]
 80013a4:	1ad3      	subs	r3, r2, r3
 80013a6:	2b02      	cmp	r3, #2
 80013a8:	d901      	bls.n	80013ae <HAL_RCC_OscConfig+0x3d2>
          {
            return HAL_TIMEOUT;
 80013aa:	2303      	movs	r3, #3
 80013ac:	e087      	b.n	80014be <HAL_RCC_OscConfig+0x4e2>
        while (__HAL_RCC_GET_FLAG(RCC_FLAG_PLLRDY) != RESET)
 80013ae:	4b27      	ldr	r3, [pc, #156]	@ (800144c <HAL_RCC_OscConfig+0x470>)
 80013b0:	681b      	ldr	r3, [r3, #0]
 80013b2:	f003 7300 	and.w	r3, r3, #33554432	@ 0x2000000
 80013b6:	2b00      	cmp	r3, #0
 80013b8:	d1f0      	bne.n	800139c <HAL_RCC_OscConfig+0x3c0>
          }
        }

        /* Configure the main PLL clock source, multiplication and division factors. */
        WRITE_REG(RCC->PLLCFGR, (RCC_OscInitStruct->PLL.PLLSource                                            | \
 80013ba:	687b      	ldr	r3, [r7, #4]
 80013bc:	69da      	ldr	r2, [r3, #28]
 80013be:	687b      	ldr	r3, [r7, #4]
 80013c0:	6a1b      	ldr	r3, [r3, #32]
 80013c2:	431a      	orrs	r2, r3
 80013c4:	687b      	ldr	r3, [r7, #4]
 80013c6:	6a5b      	ldr	r3, [r3, #36]	@ 0x24
 80013c8:	019b      	lsls	r3, r3, #6
 80013ca:	431a      	orrs	r2, r3
 80013cc:	687b      	ldr	r3, [r7, #4]
 80013ce:	6a9b      	ldr	r3, [r3, #40]	@ 0x28
 80013d0:	085b      	lsrs	r3, r3, #1
 80013d2:	3b01      	subs	r3, #1
 80013d4:	041b      	lsls	r3, r3, #16
 80013d6:	431a      	orrs	r2, r3
 80013d8:	687b      	ldr	r3, [r7, #4]
 80013da:	6adb      	ldr	r3, [r3, #44]	@ 0x2c
 80013dc:	061b      	lsls	r3, r3, #24
 80013de:	491b      	ldr	r1, [pc, #108]	@ (800144c <HAL_RCC_OscConfig+0x470>)
 80013e0:	4313      	orrs	r3, r2
 80013e2:	604b      	str	r3, [r1, #4]
                                 RCC_OscInitStruct->PLL.PLLM                                                 | \
                                 (RCC_OscInitStruct->PLL.PLLN << RCC_PLLCFGR_PLLN_Pos)             | \
                                 (((RCC_OscInitStruct->PLL.PLLP >> 1U) - 1U) << RCC_PLLCFGR_PLLP_Pos) | \
                                 (RCC_OscInitStruct->PLL.PLLQ << RCC_PLLCFGR_PLLQ_Pos)));
        /* Enable the main PLL. */
        __HAL_RCC_PLL_ENABLE();
 80013e4:	4b1b      	ldr	r3, [pc, #108]	@ (8001454 <HAL_RCC_OscConfig+0x478>)
 80013e6:	2201      	movs	r2, #1
 80013e8:	601a      	str	r2, [r3, #0]

        /* Get Start Tick */
        tickstart = HAL_GetTick();
 80013ea:	f7ff fb5d 	bl	8000aa8 <HAL_GetTick>
 80013ee:	6138      	str	r0, [r7, #16]

        /* Wait till PLL is ready */
        while (__HAL_RCC_GET_FLAG(RCC_FLAG_PLLRDY) == RESET)
 80013f0:	e008      	b.n	8001404 <HAL_RCC_OscConfig+0x428>
        {
          if ((HAL_GetTick() - tickstart) > PLL_TIMEOUT_VALUE)
 80013f2:	f7ff fb59 	bl	8000aa8 <HAL_GetTick>
 80013f6:	4602      	mov	r2, r0
 80013f8:	693b      	ldr	r3, [r7, #16]
 80013fa:	1ad3      	subs	r3, r2, r3
 80013fc:	2b02      	cmp	r3, #2
 80013fe:	d901      	bls.n	8001404 <HAL_RCC_OscConfig+0x428>
          {
            return HAL_TIMEOUT;
 8001400:	2303      	movs	r3, #3
 8001402:	e05c      	b.n	80014be <HAL_RCC_OscConfig+0x4e2>
        while (__HAL_RCC_GET_FLAG(RCC_FLAG_PLLRDY) == RESET)
 8001404:	4b11      	ldr	r3, [pc, #68]	@ (800144c <HAL_RCC_OscConfig+0x470>)
 8001406:	681b      	ldr	r3, [r3, #0]
 8001408:	f003 7300 	and.w	r3, r3, #33554432	@ 0x2000000
 800140c:	2b00      	cmp	r3, #0
 800140e:	d0f0      	beq.n	80013f2 <HAL_RCC_OscConfig+0x416>
 8001410:	e054      	b.n	80014bc <HAL_RCC_OscConfig+0x4e0>
        }
      }
      else
      {
        /* Disable the main PLL. */
        __HAL_RCC_PLL_DISABLE();
 8001412:	4b10      	ldr	r3, [pc, #64]	@ (8001454 <HAL_RCC_OscConfig+0x478>)
 8001414:	2200      	movs	r2, #0
 8001416:	601a      	str	r2, [r3, #0]

        /* Get Start Tick */
        tickstart = HAL_GetTick();
 8001418:	f7ff fb46 	bl	8000aa8 <HAL_GetTick>
 800141c:	6138      	str	r0, [r7, #16]

        /* Wait till PLL is disabled */
        while (__HAL_RCC_GET_FLAG(RCC_FLAG_PLLRDY) != RESET)
 800141e:	e008      	b.n	8001432 <HAL_RCC_OscConfig+0x456>
        {
          if ((HAL_GetTick() - tickstart) > PLL_TIMEOUT_VALUE)
 8001420:	f7ff fb42 	bl	8000aa8 <HAL_GetTick>
 8001424:	4602      	mov	r2, r0
 8001426:	693b      	ldr	r3, [r7, #16]
 8001428:	1ad3      	subs	r3, r2, r3
 800142a:	2b02      	cmp	r3, #2
 800142c:	d901      	bls.n	8001432 <HAL_RCC_OscConfig+0x456>
          {
            return HAL_TIMEOUT;
 800142e:	2303      	movs	r3, #3
 8001430:	e045      	b.n	80014be <HAL_RCC_OscConfig+0x4e2>
        while (__HAL_RCC_GET_FLAG(RCC_FLAG_PLLRDY) != RESET)
 8001432:	4b06      	ldr	r3, [pc, #24]	@ (800144c <HAL_RCC_OscConfig+0x470>)
 8001434:	681b      	ldr	r3, [r3, #0]
 8001436:	f003 7300 	and.w	r3, r3, #33554432	@ 0x2000000
 800143a:	2b00      	cmp	r3, #0
 800143c:	d1f0      	bne.n	8001420 <HAL_RCC_OscConfig+0x444>
 800143e:	e03d      	b.n	80014bc <HAL_RCC_OscConfig+0x4e0>
      }
    }
    else
    {
      /* Check if there is a request to disable the PLL used as System clock source */
      if ((RCC_OscInitStruct->PLL.PLLState) == RCC_PLL_OFF)
 8001440:	687b      	ldr	r3, [r7, #4]
 8001442:	699b      	ldr	r3, [r3, #24]
 8001444:	2b01      	cmp	r3, #1
 8001446:	d107      	bne.n	8001458 <HAL_RCC_OscConfig+0x47c>
      {
        return HAL_ERROR;
 8001448:	2301      	movs	r3, #1
 800144a:	e038      	b.n	80014be <HAL_RCC_OscConfig+0x4e2>
 800144c:	40023800 	.word	0x40023800
 8001450:	40007000 	.word	0x40007000
 8001454:	42470060 	.word	0x42470060
      }
      else
      {
        /* Do not return HAL_ERROR if request repeats the current configuration */
        pll_config = RCC->PLLCFGR;
 8001458:	4b1b      	ldr	r3, [pc, #108]	@ (80014c8 <HAL_RCC_OscConfig+0x4ec>)
 800145a:	685b      	ldr	r3, [r3, #4]
 800145c:	60fb      	str	r3, [r7, #12]
            (READ_BIT(pll_config, RCC_PLLCFGR_PLLN) != (RCC_OscInitStruct->PLL.PLLN) << RCC_PLLCFGR_PLLN_Pos) ||
            (READ_BIT(pll_config, RCC_PLLCFGR_PLLP) != (((RCC_OscInitStruct->PLL.PLLP >> 1U) - 1U)) << RCC_PLLCFGR_PLLP_Pos) ||
            (READ_BIT(pll_config, RCC_PLLCFGR_PLLQ) != (RCC_OscInitStruct->PLL.PLLQ << RCC_PLLCFGR_PLLQ_Pos)) ||
            (READ_BIT(pll_config, RCC_PLLCFGR_PLLR) != (RCC_OscInitStruct->PLL.PLLR << RCC_PLLCFGR_PLLR_Pos)))
#else
        if (((RCC_OscInitStruct->PLL.PLLState) == RCC_PLL_OFF) ||
 800145e:	687b      	ldr	r3, [r7, #4]
 8001460:	699b      	ldr	r3, [r3, #24]
 8001462:	2b01      	cmp	r3, #1
 8001464:	d028      	beq.n	80014b8 <HAL_RCC_OscConfig+0x4dc>
            (READ_BIT(pll_config, RCC_PLLCFGR_PLLSRC) != RCC_OscInitStruct->PLL.PLLSource) ||
 8001466:	68fb      	ldr	r3, [r7, #12]
 8001468:	f403 0280 	and.w	r2, r3, #4194304	@ 0x400000
 800146c:	687b      	ldr	r3, [r7, #4]
 800146e:	69db      	ldr	r3, [r3, #28]
        if (((RCC_OscInitStruct->PLL.PLLState) == RCC_PLL_OFF) ||
 8001470:	429a      	cmp	r2, r3
 8001472:	d121      	bne.n	80014b8 <HAL_RCC_OscConfig+0x4dc>
            (READ_BIT(pll_config, RCC_PLLCFGR_PLLM) != (RCC_OscInitStruct->PLL.PLLM) << RCC_PLLCFGR_PLLM_Pos) ||
 8001474:	68fb      	ldr	r3, [r7, #12]
 8001476:	f003 023f 	and.w	r2, r3, #63	@ 0x3f
 800147a:	687b      	ldr	r3, [r7, #4]
 800147c:	6a1b      	ldr	r3, [r3, #32]
            (READ_BIT(pll_config, RCC_PLLCFGR_PLLSRC) != RCC_OscInitStruct->PLL.PLLSource) ||
 800147e:	429a      	cmp	r2, r3
 8001480:	d11a      	bne.n	80014b8 <HAL_RCC_OscConfig+0x4dc>
            (READ_BIT(pll_config, RCC_PLLCFGR_PLLN) != (RCC_OscInitStruct->PLL.PLLN) << RCC_PLLCFGR_PLLN_Pos) ||
 8001482:	68fa      	ldr	r2, [r7, #12]
 8001484:	f647 73c0 	movw	r3, #32704	@ 0x7fc0
 8001488:	4013      	ands	r3, r2
 800148a:	687a      	ldr	r2, [r7, #4]
 800148c:	6a52      	ldr	r2, [r2, #36]	@ 0x24
 800148e:	0192      	lsls	r2, r2, #6
            (READ_BIT(pll_config, RCC_PLLCFGR_PLLM) != (RCC_OscInitStruct->PLL.PLLM) << RCC_PLLCFGR_PLLM_Pos) ||
 8001490:	4293      	cmp	r3, r2
 8001492:	d111      	bne.n	80014b8 <HAL_RCC_OscConfig+0x4dc>
            (READ_BIT(pll_config, RCC_PLLCFGR_PLLP) != (((RCC_OscInitStruct->PLL.PLLP >> 1U) - 1U)) << RCC_PLLCFGR_PLLP_Pos) ||
 8001494:	68fb      	ldr	r3, [r7, #12]
 8001496:	f403 3240 	and.w	r2, r3, #196608	@ 0x30000
 800149a:	687b      	ldr	r3, [r7, #4]
 800149c:	6a9b      	ldr	r3, [r3, #40]	@ 0x28
 800149e:	085b      	lsrs	r3, r3, #1
 80014a0:	3b01      	subs	r3, #1
 80014a2:	041b      	lsls	r3, r3, #16
            (READ_BIT(pll_config, RCC_PLLCFGR_PLLN) != (RCC_OscInitStruct->PLL.PLLN) << RCC_PLLCFGR_PLLN_Pos) ||
 80014a4:	429a      	cmp	r2, r3
 80014a6:	d107      	bne.n	80014b8 <HAL_RCC_OscConfig+0x4dc>
            (READ_BIT(pll_config, RCC_PLLCFGR_PLLQ) != (RCC_OscInitStruct->PLL.PLLQ << RCC_PLLCFGR_PLLQ_Pos)))
 80014a8:	68fb      	ldr	r3, [r7, #12]
 80014aa:	f003 6270 	and.w	r2, r3, #251658240	@ 0xf000000
 80014ae:	687b      	ldr	r3, [r7, #4]
 80014b0:	6adb      	ldr	r3, [r3, #44]	@ 0x2c
 80014b2:	061b      	lsls	r3, r3, #24
            (READ_BIT(pll_config, RCC_PLLCFGR_PLLP) != (((RCC_OscInitStruct->PLL.PLLP >> 1U) - 1U)) << RCC_PLLCFGR_PLLP_Pos) ||
 80014b4:	429a      	cmp	r2, r3
 80014b6:	d001      	beq.n	80014bc <HAL_RCC_OscConfig+0x4e0>
#endif /* RCC_PLLCFGR_PLLR */
        {
          return HAL_ERROR;
 80014b8:	2301      	movs	r3, #1
 80014ba:	e000      	b.n	80014be <HAL_RCC_OscConfig+0x4e2>
        }
      }
    }
  }
  return HAL_OK;
 80014bc:	2300      	movs	r3, #0
}
 80014be:	4618      	mov	r0, r3
 80014c0:	3718      	adds	r7, #24
 80014c2:	46bd      	mov	sp, r7
 80014c4:	bd80      	pop	{r7, pc}
 80014c6:	bf00      	nop
 80014c8:	40023800 	.word	0x40023800

080014cc <HAL_RCC_ClockConfig>:
  *         HPRE[3:0] bits to ensure that HCLK not exceed the maximum allowed frequency
  *         (for more details refer to section above "Initialization/de-initialization functions")
  * @retval None
  */
HAL_StatusTypeDef HAL_RCC_ClockConfig(RCC_ClkInitTypeDef  *RCC_ClkInitStruct, uint32_t FLatency)
{
 80014cc:	b580      	push	{r7, lr}
 80014ce:	b084      	sub	sp, #16
 80014d0:	af00      	add	r7, sp, #0
 80014d2:	6078      	str	r0, [r7, #4]
 80014d4:	6039      	str	r1, [r7, #0]
  uint32_t tickstart;

  /* Check Null pointer */
  if (RCC_ClkInitStruct == NULL)
 80014d6:	687b      	ldr	r3, [r7, #4]
 80014d8:	2b00      	cmp	r3, #0
 80014da:	d101      	bne.n	80014e0 <HAL_RCC_ClockConfig+0x14>
  {
    return HAL_ERROR;
 80014dc:	2301      	movs	r3, #1
 80014de:	e0cc      	b.n	800167a <HAL_RCC_ClockConfig+0x1ae>
  /* To correctly read data from FLASH memory, the number of wait states (LATENCY)
    must be correctly programmed according to the frequency of the CPU clock
    (HCLK) and the supply voltage of the device. */

  /* Increasing the number of wait states because of higher CPU frequency */
  if (FLatency > __HAL_FLASH_GET_LATENCY())
 80014e0:	4b68      	ldr	r3, [pc, #416]	@ (8001684 <HAL_RCC_ClockConfig+0x1b8>)
 80014e2:	681b      	ldr	r3, [r3, #0]
 80014e4:	f003 0307 	and.w	r3, r3, #7
 80014e8:	683a      	ldr	r2, [r7, #0]
 80014ea:	429a      	cmp	r2, r3
 80014ec:	d90c      	bls.n	8001508 <HAL_RCC_ClockConfig+0x3c>
  {
    /* Program the new number of wait states to the LATENCY bits in the FLASH_ACR register */
    __HAL_FLASH_SET_LATENCY(FLatency);
 80014ee:	4b65      	ldr	r3, [pc, #404]	@ (8001684 <HAL_RCC_ClockConfig+0x1b8>)
 80014f0:	683a      	ldr	r2, [r7, #0]
 80014f2:	b2d2      	uxtb	r2, r2
 80014f4:	701a      	strb	r2, [r3, #0]

    /* Check that the new number of wait states is taken into account to access the Flash
    memory by reading the FLASH_ACR register */
    if (__HAL_FLASH_GET_LATENCY() != FLatency)
 80014f6:	4b63      	ldr	r3, [pc, #396]	@ (8001684 <HAL_RCC_ClockConfig+0x1b8>)
 80014f8:	681b      	ldr	r3, [r3, #0]
 80014fa:	f003 0307 	and.w	r3, r3, #7
 80014fe:	683a      	ldr	r2, [r7, #0]
 8001500:	429a      	cmp	r2, r3
 8001502:	d001      	beq.n	8001508 <HAL_RCC_ClockConfig+0x3c>
    {
      return HAL_ERROR;
 8001504:	2301      	movs	r3, #1
 8001506:	e0b8      	b.n	800167a <HAL_RCC_ClockConfig+0x1ae>
    }
  }

  /*-------------------------- HCLK Configuration --------------------------*/
  if (((RCC_ClkInitStruct->ClockType) & RCC_CLOCKTYPE_HCLK) == RCC_CLOCKTYPE_HCLK)
 8001508:	687b      	ldr	r3, [r7, #4]
 800150a:	681b      	ldr	r3, [r3, #0]
 800150c:	f003 0302 	and.w	r3, r3, #2
 8001510:	2b00      	cmp	r3, #0
 8001512:	d020      	beq.n	8001556 <HAL_RCC_ClockConfig+0x8a>
  {
    /* Set the highest APBx dividers in order to ensure that we do not go through
       a non-spec phase whatever we decrease or increase HCLK. */
    if (((RCC_ClkInitStruct->ClockType) & RCC_CLOCKTYPE_PCLK1) == RCC_CLOCKTYPE_PCLK1)
 8001514:	687b      	ldr	r3, [r7, #4]
 8001516:	681b      	ldr	r3, [r3, #0]
 8001518:	f003 0304 	and.w	r3, r3, #4
 800151c:	2b00      	cmp	r3, #0
 800151e:	d005      	beq.n	800152c <HAL_RCC_ClockConfig+0x60>
    {
      MODIFY_REG(RCC->CFGR, RCC_CFGR_PPRE1, RCC_HCLK_DIV16);
 8001520:	4b59      	ldr	r3, [pc, #356]	@ (8001688 <HAL_RCC_ClockConfig+0x1bc>)
 8001522:	689b      	ldr	r3, [r3, #8]
 8001524:	4a58      	ldr	r2, [pc, #352]	@ (8001688 <HAL_RCC_ClockConfig+0x1bc>)
 8001526:	f443 53e0 	orr.w	r3, r3, #7168	@ 0x1c00
 800152a:	6093      	str	r3, [r2, #8]
    }

    if (((RCC_ClkInitStruct->ClockType) & RCC_CLOCKTYPE_PCLK2) == RCC_CLOCKTYPE_PCLK2)
 800152c:	687b      	ldr	r3, [r7, #4]
 800152e:	681b      	ldr	r3, [r3, #0]
 8001530:	f003 0308 	and.w	r3, r3, #8
 8001534:	2b00      	cmp	r3, #0
 8001536:	d005      	beq.n	8001544 <HAL_RCC_ClockConfig+0x78>
    {
      MODIFY_REG(RCC->CFGR, RCC_CFGR_PPRE2, (RCC_HCLK_DIV16 << 3));
 8001538:	4b53      	ldr	r3, [pc, #332]	@ (8001688 <HAL_RCC_ClockConfig+0x1bc>)
 800153a:	689b      	ldr	r3, [r3, #8]
 800153c:	4a52      	ldr	r2, [pc, #328]	@ (8001688 <HAL_RCC_ClockConfig+0x1bc>)
 800153e:	f443 4360 	orr.w	r3, r3, #57344	@ 0xe000
 8001542:	6093      	str	r3, [r2, #8]
    }

    assert_param(IS_RCC_HCLK(RCC_ClkInitStruct->AHBCLKDivider));
    MODIFY_REG(RCC->CFGR, RCC_CFGR_HPRE, RCC_ClkInitStruct->AHBCLKDivider);
 8001544:	4b50      	ldr	r3, [pc, #320]	@ (8001688 <HAL_RCC_ClockConfig+0x1bc>)
 8001546:	689b      	ldr	r3, [r3, #8]
 8001548:	f023 02f0 	bic.w	r2, r3, #240	@ 0xf0
 800154c:	687b      	ldr	r3, [r7, #4]
 800154e:	689b      	ldr	r3, [r3, #8]
 8001550:	494d      	ldr	r1, [pc, #308]	@ (8001688 <HAL_RCC_ClockConfig+0x1bc>)
 8001552:	4313      	orrs	r3, r2
 8001554:	608b      	str	r3, [r1, #8]
  }

  /*------------------------- SYSCLK Configuration ---------------------------*/
  if (((RCC_ClkInitStruct->ClockType) & RCC_CLOCKTYPE_SYSCLK) == RCC_CLOCKTYPE_SYSCLK)
 8001556:	687b      	ldr	r3, [r7, #4]
 8001558:	681b      	ldr	r3, [r3, #0]
 800155a:	f003 0301 	and.w	r3, r3, #1
 800155e:	2b00      	cmp	r3, #0
 8001560:	d044      	beq.n	80015ec <HAL_RCC_ClockConfig+0x120>
  {
    assert_param(IS_RCC_SYSCLKSOURCE(RCC_ClkInitStruct->SYSCLKSource));

    /* HSE is selected as System Clock Source */
    if (RCC_ClkInitStruct->SYSCLKSource == RCC_SYSCLKSOURCE_HSE)
 8001562:	687b      	ldr	r3, [r7, #4]
 8001564:	685b      	ldr	r3, [r3, #4]
 8001566:	2b01      	cmp	r3, #1
 8001568:	d107      	bne.n	800157a <HAL_RCC_ClockConfig+0xae>
    {
      /* Check the HSE ready flag */
      if (__HAL_RCC_GET_FLAG(RCC_FLAG_HSERDY) == RESET)
 800156a:	4b47      	ldr	r3, [pc, #284]	@ (8001688 <HAL_RCC_ClockConfig+0x1bc>)
 800156c:	681b      	ldr	r3, [r3, #0]
 800156e:	f403 3300 	and.w	r3, r3, #131072	@ 0x20000
 8001572:	2b00      	cmp	r3, #0
 8001574:	d119      	bne.n	80015aa <HAL_RCC_ClockConfig+0xde>
      {
        return HAL_ERROR;
 8001576:	2301      	movs	r3, #1
 8001578:	e07f      	b.n	800167a <HAL_RCC_ClockConfig+0x1ae>
      }
    }
    /* PLL is selected as System Clock Source */
    else if ((RCC_ClkInitStruct->SYSCLKSource == RCC_SYSCLKSOURCE_PLLCLK)   ||
 800157a:	687b      	ldr	r3, [r7, #4]
 800157c:	685b      	ldr	r3, [r3, #4]
 800157e:	2b02      	cmp	r3, #2
 8001580:	d003      	beq.n	800158a <HAL_RCC_ClockConfig+0xbe>
             (RCC_ClkInitStruct->SYSCLKSource == RCC_SYSCLKSOURCE_PLLRCLK))
 8001582:	687b      	ldr	r3, [r7, #4]
 8001584:	685b      	ldr	r3, [r3, #4]
    else if ((RCC_ClkInitStruct->SYSCLKSource == RCC_SYSCLKSOURCE_PLLCLK)   ||
 8001586:	2b03      	cmp	r3, #3
 8001588:	d107      	bne.n	800159a <HAL_RCC_ClockConfig+0xce>
    {
      /* Check the PLL ready flag */
      if (__HAL_RCC_GET_FLAG(RCC_FLAG_PLLRDY) == RESET)
 800158a:	4b3f      	ldr	r3, [pc, #252]	@ (8001688 <HAL_RCC_ClockConfig+0x1bc>)
 800158c:	681b      	ldr	r3, [r3, #0]
 800158e:	f003 7300 	and.w	r3, r3, #33554432	@ 0x2000000
 8001592:	2b00      	cmp	r3, #0
 8001594:	d109      	bne.n	80015aa <HAL_RCC_ClockConfig+0xde>
      {
        return HAL_ERROR;
 8001596:	2301      	movs	r3, #1
 8001598:	e06f      	b.n	800167a <HAL_RCC_ClockConfig+0x1ae>
    }
    /* HSI is selected as System Clock Source */
    else
    {
      /* Check the HSI ready flag */
      if (__HAL_RCC_GET_FLAG(RCC_FLAG_HSIRDY) == RESET)
 800159a:	4b3b      	ldr	r3, [pc, #236]	@ (8001688 <HAL_RCC_ClockConfig+0x1bc>)
 800159c:	681b      	ldr	r3, [r3, #0]
 800159e:	f003 0302 	and.w	r3, r3, #2
 80015a2:	2b00      	cmp	r3, #0
 80015a4:	d101      	bne.n	80015aa <HAL_RCC_ClockConfig+0xde>
      {
        return HAL_ERROR;
 80015a6:	2301      	movs	r3, #1
 80015a8:	e067      	b.n	800167a <HAL_RCC_ClockConfig+0x1ae>
      }
    }

    __HAL_RCC_SYSCLK_CONFIG(RCC_ClkInitStruct->SYSCLKSource);
 80015aa:	4b37      	ldr	r3, [pc, #220]	@ (8001688 <HAL_RCC_ClockConfig+0x1bc>)
 80015ac:	689b      	ldr	r3, [r3, #8]
 80015ae:	f023 0203 	bic.w	r2, r3, #3
 80015b2:	687b      	ldr	r3, [r7, #4]
 80015b4:	685b      	ldr	r3, [r3, #4]
 80015b6:	4934      	ldr	r1, [pc, #208]	@ (8001688 <HAL_RCC_ClockConfig+0x1bc>)
 80015b8:	4313      	orrs	r3, r2
 80015ba:	608b      	str	r3, [r1, #8]

    /* Get Start Tick */
    tickstart = HAL_GetTick();
 80015bc:	f7ff fa74 	bl	8000aa8 <HAL_GetTick>
 80015c0:	60f8      	str	r0, [r7, #12]

    while (__HAL_RCC_GET_SYSCLK_SOURCE() != (RCC_ClkInitStruct->SYSCLKSource << RCC_CFGR_SWS_Pos))
 80015c2:	e00a      	b.n	80015da <HAL_RCC_ClockConfig+0x10e>
    {
      if ((HAL_GetTick() - tickstart) > CLOCKSWITCH_TIMEOUT_VALUE)
 80015c4:	f7ff fa70 	bl	8000aa8 <HAL_GetTick>
 80015c8:	4602      	mov	r2, r0
 80015ca:	68fb      	ldr	r3, [r7, #12]
 80015cc:	1ad3      	subs	r3, r2, r3
 80015ce:	f241 3288 	movw	r2, #5000	@ 0x1388
 80015d2:	4293      	cmp	r3, r2
 80015d4:	d901      	bls.n	80015da <HAL_RCC_ClockConfig+0x10e>
      {
        return HAL_TIMEOUT;
 80015d6:	2303      	movs	r3, #3
 80015d8:	e04f      	b.n	800167a <HAL_RCC_ClockConfig+0x1ae>
    while (__HAL_RCC_GET_SYSCLK_SOURCE() != (RCC_ClkInitStruct->SYSCLKSource << RCC_CFGR_SWS_Pos))
 80015da:	4b2b      	ldr	r3, [pc, #172]	@ (8001688 <HAL_RCC_ClockConfig+0x1bc>)
 80015dc:	689b      	ldr	r3, [r3, #8]
 80015de:	f003 020c 	and.w	r2, r3, #12
 80015e2:	687b      	ldr	r3, [r7, #4]
 80015e4:	685b      	ldr	r3, [r3, #4]
 80015e6:	009b      	lsls	r3, r3, #2
 80015e8:	429a      	cmp	r2, r3
 80015ea:	d1eb      	bne.n	80015c4 <HAL_RCC_ClockConfig+0xf8>
      }
    }
  }

  /* Decreasing the number of wait states because of lower CPU frequency */
  if (FLatency < __HAL_FLASH_GET_LATENCY())
 80015ec:	4b25      	ldr	r3, [pc, #148]	@ (8001684 <HAL_RCC_ClockConfig+0x1b8>)
 80015ee:	681b      	ldr	r3, [r3, #0]
 80015f0:	f003 0307 	and.w	r3, r3, #7
 80015f4:	683a      	ldr	r2, [r7, #0]
 80015f6:	429a      	cmp	r2, r3
 80015f8:	d20c      	bcs.n	8001614 <HAL_RCC_ClockConfig+0x148>
  {
    /* Program the new number of wait states to the LATENCY bits in the FLASH_ACR register */
    __HAL_FLASH_SET_LATENCY(FLatency);
 80015fa:	4b22      	ldr	r3, [pc, #136]	@ (8001684 <HAL_RCC_ClockConfig+0x1b8>)
 80015fc:	683a      	ldr	r2, [r7, #0]
 80015fe:	b2d2      	uxtb	r2, r2
 8001600:	701a      	strb	r2, [r3, #0]

    /* Check that the new number of wait states is taken into account to access the Flash
    memory by reading the FLASH_ACR register */
    if (__HAL_FLASH_GET_LATENCY() != FLatency)
 8001602:	4b20      	ldr	r3, [pc, #128]	@ (8001684 <HAL_RCC_ClockConfig+0x1b8>)
 8001604:	681b      	ldr	r3, [r3, #0]
 8001606:	f003 0307 	and.w	r3, r3, #7
 800160a:	683a      	ldr	r2, [r7, #0]
 800160c:	429a      	cmp	r2, r3
 800160e:	d001      	beq.n	8001614 <HAL_RCC_ClockConfig+0x148>
    {
      return HAL_ERROR;
 8001610:	2301      	movs	r3, #1
 8001612:	e032      	b.n	800167a <HAL_RCC_ClockConfig+0x1ae>
    }
  }

  /*-------------------------- PCLK1 Configuration ---------------------------*/
  if (((RCC_ClkInitStruct->ClockType) & RCC_CLOCKTYPE_PCLK1) == RCC_CLOCKTYPE_PCLK1)
 8001614:	687b      	ldr	r3, [r7, #4]
 8001616:	681b      	ldr	r3, [r3, #0]
 8001618:	f003 0304 	and.w	r3, r3, #4
 800161c:	2b00      	cmp	r3, #0
 800161e:	d008      	beq.n	8001632 <HAL_RCC_ClockConfig+0x166>
  {
    assert_param(IS_RCC_PCLK(RCC_ClkInitStruct->APB1CLKDivider));
    MODIFY_REG(RCC->CFGR, RCC_CFGR_PPRE1, RCC_ClkInitStruct->APB1CLKDivider);
 8001620:	4b19      	ldr	r3, [pc, #100]	@ (8001688 <HAL_RCC_ClockConfig+0x1bc>)
 8001622:	689b      	ldr	r3, [r3, #8]
 8001624:	f423 52e0 	bic.w	r2, r3, #7168	@ 0x1c00
 8001628:	687b      	ldr	r3, [r7, #4]
 800162a:	68db      	ldr	r3, [r3, #12]
 800162c:	4916      	ldr	r1, [pc, #88]	@ (8001688 <HAL_RCC_ClockConfig+0x1bc>)
 800162e:	4313      	orrs	r3, r2
 8001630:	608b      	str	r3, [r1, #8]
  }

  /*-------------------------- PCLK2 Configuration ---------------------------*/
  if (((RCC_ClkInitStruct->ClockType) & RCC_CLOCKTYPE_PCLK2) == RCC_CLOCKTYPE_PCLK2)
 8001632:	687b      	ldr	r3, [r7, #4]
 8001634:	681b      	ldr	r3, [r3, #0]
 8001636:	f003 0308 	and.w	r3, r3, #8
 800163a:	2b00      	cmp	r3, #0
 800163c:	d009      	beq.n	8001652 <HAL_RCC_ClockConfig+0x186>
  {
    assert_param(IS_RCC_PCLK(RCC_ClkInitStruct->APB2CLKDivider));
    MODIFY_REG(RCC->CFGR, RCC_CFGR_PPRE2, ((RCC_ClkInitStruct->APB2CLKDivider) << 3U));
 800163e:	4b12      	ldr	r3, [pc, #72]	@ (8001688 <HAL_RCC_ClockConfig+0x1bc>)
 8001640:	689b      	ldr	r3, [r3, #8]
 8001642:	f423 4260 	bic.w	r2, r3, #57344	@ 0xe000
 8001646:	687b      	ldr	r3, [r7, #4]
 8001648:	691b      	ldr	r3, [r3, #16]
 800164a:	00db      	lsls	r3, r3, #3
 800164c:	490e      	ldr	r1, [pc, #56]	@ (8001688 <HAL_RCC_ClockConfig+0x1bc>)
 800164e:	4313      	orrs	r3, r2
 8001650:	608b      	str	r3, [r1, #8]
  }

  /* Update the SystemCoreClock global variable */
  SystemCoreClock = HAL_RCC_GetSysClockFreq() >> AHBPrescTable[(RCC->CFGR & RCC_CFGR_HPRE) >> RCC_CFGR_HPRE_Pos];
 8001652:	f000 f821 	bl	8001698 <HAL_RCC_GetSysClockFreq>
 8001656:	4602      	mov	r2, r0
 8001658:	4b0b      	ldr	r3, [pc, #44]	@ (8001688 <HAL_RCC_ClockConfig+0x1bc>)
 800165a:	689b      	ldr	r3, [r3, #8]
 800165c:	091b      	lsrs	r3, r3, #4
 800165e:	f003 030f 	and.w	r3, r3, #15
 8001662:	490a      	ldr	r1, [pc, #40]	@ (800168c <HAL_RCC_ClockConfig+0x1c0>)
 8001664:	5ccb      	ldrb	r3, [r1, r3]
 8001666:	fa22 f303 	lsr.w	r3, r2, r3
 800166a:	4a09      	ldr	r2, [pc, #36]	@ (8001690 <HAL_RCC_ClockConfig+0x1c4>)
 800166c:	6013      	str	r3, [r2, #0]

  /* Configure the source of time base considering new system clocks settings */
  HAL_InitTick(uwTickPrio);
 800166e:	4b09      	ldr	r3, [pc, #36]	@ (8001694 <HAL_RCC_ClockConfig+0x1c8>)
 8001670:	681b      	ldr	r3, [r3, #0]
 8001672:	4618      	mov	r0, r3
 8001674:	f7ff f9d4 	bl	8000a20 <HAL_InitTick>

  return HAL_OK;
 8001678:	2300      	movs	r3, #0
}
 800167a:	4618      	mov	r0, r3
 800167c:	3710      	adds	r7, #16
 800167e:	46bd      	mov	sp, r7
 8001680:	bd80      	pop	{r7, pc}
 8001682:	bf00      	nop
 8001684:	40023c00 	.word	0x40023c00
 8001688:	40023800 	.word	0x40023800
 800168c:	080025ac 	.word	0x080025ac
 8001690:	20000000 	.word	0x20000000
 8001694:	20000004 	.word	0x20000004

08001698 <HAL_RCC_GetSysClockFreq>:
  *
  *
  * @retval SYSCLK frequency
  */
__weak uint32_t HAL_RCC_GetSysClockFreq(void)
{
 8001698:	e92d 4fb0 	stmdb	sp!, {r4, r5, r7, r8, r9, sl, fp, lr}
 800169c:	b090      	sub	sp, #64	@ 0x40
 800169e:	af00      	add	r7, sp, #0
  uint32_t pllm = 0U;
 80016a0:	2300      	movs	r3, #0
 80016a2:	637b      	str	r3, [r7, #52]	@ 0x34
  uint32_t pllvco = 0U;
 80016a4:	2300      	movs	r3, #0
 80016a6:	63fb      	str	r3, [r7, #60]	@ 0x3c
  uint32_t pllp = 0U;
 80016a8:	2300      	movs	r3, #0
 80016aa:	633b      	str	r3, [r7, #48]	@ 0x30
  uint32_t sysclockfreq = 0U;
 80016ac:	2300      	movs	r3, #0
 80016ae:	63bb      	str	r3, [r7, #56]	@ 0x38

  /* Get SYSCLK source -------------------------------------------------------*/
  switch (RCC->CFGR & RCC_CFGR_SWS)
 80016b0:	4b59      	ldr	r3, [pc, #356]	@ (8001818 <HAL_RCC_GetSysClockFreq+0x180>)
 80016b2:	689b      	ldr	r3, [r3, #8]
 80016b4:	f003 030c 	and.w	r3, r3, #12
 80016b8:	2b08      	cmp	r3, #8
 80016ba:	d00d      	beq.n	80016d8 <HAL_RCC_GetSysClockFreq+0x40>
 80016bc:	2b08      	cmp	r3, #8
 80016be:	f200 80a1 	bhi.w	8001804 <HAL_RCC_GetSysClockFreq+0x16c>
 80016c2:	2b00      	cmp	r3, #0
 80016c4:	d002      	beq.n	80016cc <HAL_RCC_GetSysClockFreq+0x34>
 80016c6:	2b04      	cmp	r3, #4
 80016c8:	d003      	beq.n	80016d2 <HAL_RCC_GetSysClockFreq+0x3a>
 80016ca:	e09b      	b.n	8001804 <HAL_RCC_GetSysClockFreq+0x16c>
  {
    case RCC_CFGR_SWS_HSI:  /* HSI used as system clock source */
    {
      sysclockfreq = HSI_VALUE;
 80016cc:	4b53      	ldr	r3, [pc, #332]	@ (800181c <HAL_RCC_GetSysClockFreq+0x184>)
 80016ce:	63bb      	str	r3, [r7, #56]	@ 0x38
      break;
 80016d0:	e09b      	b.n	800180a <HAL_RCC_GetSysClockFreq+0x172>
    }
    case RCC_CFGR_SWS_HSE:  /* HSE used as system clock  source */
    {
      sysclockfreq = HSE_VALUE;
 80016d2:	4b53      	ldr	r3, [pc, #332]	@ (8001820 <HAL_RCC_GetSysClockFreq+0x188>)
 80016d4:	63bb      	str	r3, [r7, #56]	@ 0x38
      break;
 80016d6:	e098      	b.n	800180a <HAL_RCC_GetSysClockFreq+0x172>
    }
    case RCC_CFGR_SWS_PLL:  /* PLL used as system clock  source */
    {
      /* PLL_VCO = (HSE_VALUE or HSI_VALUE / PLLM) * PLLN
      SYSCLK = PLL_VCO / PLLP */
      pllm = RCC->PLLCFGR & RCC_PLLCFGR_PLLM;
 80016d8:	4b4f      	ldr	r3, [pc, #316]	@ (8001818 <HAL_RCC_GetSysClockFreq+0x180>)
 80016da:	685b      	ldr	r3, [r3, #4]
 80016dc:	f003 033f 	and.w	r3, r3, #63	@ 0x3f
 80016e0:	637b      	str	r3, [r7, #52]	@ 0x34
      if (__HAL_RCC_GET_PLL_OSCSOURCE() != RCC_PLLSOURCE_HSI)
 80016e2:	4b4d      	ldr	r3, [pc, #308]	@ (8001818 <HAL_RCC_GetSysClockFreq+0x180>)
 80016e4:	685b      	ldr	r3, [r3, #4]
 80016e6:	f403 0380 	and.w	r3, r3, #4194304	@ 0x400000
 80016ea:	2b00      	cmp	r3, #0
 80016ec:	d028      	beq.n	8001740 <HAL_RCC_GetSysClockFreq+0xa8>
      {
        /* HSE used as PLL clock source */
        pllvco = (uint32_t)((((uint64_t) HSE_VALUE * ((uint64_t)((RCC->PLLCFGR & RCC_PLLCFGR_PLLN) >> RCC_PLLCFGR_PLLN_Pos)))) / (uint64_t)pllm);
 80016ee:	4b4a      	ldr	r3, [pc, #296]	@ (8001818 <HAL_RCC_GetSysClockFreq+0x180>)
 80016f0:	685b      	ldr	r3, [r3, #4]
 80016f2:	099b      	lsrs	r3, r3, #6
 80016f4:	2200      	movs	r2, #0
 80016f6:	623b      	str	r3, [r7, #32]
 80016f8:	627a      	str	r2, [r7, #36]	@ 0x24
 80016fa:	6a3b      	ldr	r3, [r7, #32]
 80016fc:	f3c3 0008 	ubfx	r0, r3, #0, #9
 8001700:	2100      	movs	r1, #0
 8001702:	4b47      	ldr	r3, [pc, #284]	@ (8001820 <HAL_RCC_GetSysClockFreq+0x188>)
 8001704:	fb03 f201 	mul.w	r2, r3, r1
 8001708:	2300      	movs	r3, #0
 800170a:	fb00 f303 	mul.w	r3, r0, r3
 800170e:	4413      	add	r3, r2
 8001710:	4a43      	ldr	r2, [pc, #268]	@ (8001820 <HAL_RCC_GetSysClockFreq+0x188>)
 8001712:	fba0 1202 	umull	r1, r2, r0, r2
 8001716:	62fa      	str	r2, [r7, #44]	@ 0x2c
 8001718:	460a      	mov	r2, r1
 800171a:	62ba      	str	r2, [r7, #40]	@ 0x28
 800171c:	6afa      	ldr	r2, [r7, #44]	@ 0x2c
 800171e:	4413      	add	r3, r2
 8001720:	62fb      	str	r3, [r7, #44]	@ 0x2c
 8001722:	6b7b      	ldr	r3, [r7, #52]	@ 0x34
 8001724:	2200      	movs	r2, #0
 8001726:	61bb      	str	r3, [r7, #24]
 8001728:	61fa      	str	r2, [r7, #28]
 800172a:	e9d7 2306 	ldrd	r2, r3, [r7, #24]
 800172e:	e9d7 010a 	ldrd	r0, r1, [r7, #40]	@ 0x28
 8001732:	f7fe fd51 	bl	80001d8 <__aeabi_uldivmod>
 8001736:	4602      	mov	r2, r0
 8001738:	460b      	mov	r3, r1
 800173a:	4613      	mov	r3, r2
 800173c:	63fb      	str	r3, [r7, #60]	@ 0x3c
 800173e:	e053      	b.n	80017e8 <HAL_RCC_GetSysClockFreq+0x150>
      }
      else
      {
        /* HSI used as PLL clock source */
        pllvco = (uint32_t)((((uint64_t) HSI_VALUE * ((uint64_t)((RCC->PLLCFGR & RCC_PLLCFGR_PLLN) >> RCC_PLLCFGR_PLLN_Pos)))) / (uint64_t)pllm);
 8001740:	4b35      	ldr	r3, [pc, #212]	@ (8001818 <HAL_RCC_GetSysClockFreq+0x180>)
 8001742:	685b      	ldr	r3, [r3, #4]
 8001744:	099b      	lsrs	r3, r3, #6
 8001746:	2200      	movs	r2, #0
 8001748:	613b      	str	r3, [r7, #16]
 800174a:	617a      	str	r2, [r7, #20]
 800174c:	693b      	ldr	r3, [r7, #16]
 800174e:	f3c3 0a08 	ubfx	sl, r3, #0, #9
 8001752:	f04f 0b00 	mov.w	fp, #0
 8001756:	4652      	mov	r2, sl
 8001758:	465b      	mov	r3, fp
 800175a:	f04f 0000 	mov.w	r0, #0
 800175e:	f04f 0100 	mov.w	r1, #0
 8001762:	0159      	lsls	r1, r3, #5
 8001764:	ea41 61d2 	orr.w	r1, r1, r2, lsr #27
 8001768:	0150      	lsls	r0, r2, #5
 800176a:	4602      	mov	r2, r0
 800176c:	460b      	mov	r3, r1
 800176e:	ebb2 080a 	subs.w	r8, r2, sl
 8001772:	eb63 090b 	sbc.w	r9, r3, fp
 8001776:	f04f 0200 	mov.w	r2, #0
 800177a:	f04f 0300 	mov.w	r3, #0
 800177e:	ea4f 1389 	mov.w	r3, r9, lsl #6
 8001782:	ea43 6398 	orr.w	r3, r3, r8, lsr #26
 8001786:	ea4f 1288 	mov.w	r2, r8, lsl #6
 800178a:	ebb2 0408 	subs.w	r4, r2, r8
 800178e:	eb63 0509 	sbc.w	r5, r3, r9
 8001792:	f04f 0200 	mov.w	r2, #0
 8001796:	f04f 0300 	mov.w	r3, #0
 800179a:	00eb      	lsls	r3, r5, #3
 800179c:	ea43 7354 	orr.w	r3, r3, r4, lsr #29
 80017a0:	00e2      	lsls	r2, r4, #3
 80017a2:	4614      	mov	r4, r2
 80017a4:	461d      	mov	r5, r3
 80017a6:	eb14 030a 	adds.w	r3, r4, sl
 80017aa:	603b      	str	r3, [r7, #0]
 80017ac:	eb45 030b 	adc.w	r3, r5, fp
 80017b0:	607b      	str	r3, [r7, #4]
 80017b2:	f04f 0200 	mov.w	r2, #0
 80017b6:	f04f 0300 	mov.w	r3, #0
 80017ba:	e9d7 4500 	ldrd	r4, r5, [r7]
 80017be:	4629      	mov	r1, r5
 80017c0:	028b      	lsls	r3, r1, #10
 80017c2:	4621      	mov	r1, r4
 80017c4:	ea43 5391 	orr.w	r3, r3, r1, lsr #22
 80017c8:	4621      	mov	r1, r4
 80017ca:	028a      	lsls	r2, r1, #10
 80017cc:	4610      	mov	r0, r2
 80017ce:	4619      	mov	r1, r3
 80017d0:	6b7b      	ldr	r3, [r7, #52]	@ 0x34
 80017d2:	2200      	movs	r2, #0
 80017d4:	60bb      	str	r3, [r7, #8]
 80017d6:	60fa      	str	r2, [r7, #12]
 80017d8:	e9d7 2302 	ldrd	r2, r3, [r7, #8]
 80017dc:	f7fe fcfc 	bl	80001d8 <__aeabi_uldivmod>
 80017e0:	4602      	mov	r2, r0
 80017e2:	460b      	mov	r3, r1
 80017e4:	4613      	mov	r3, r2
 80017e6:	63fb      	str	r3, [r7, #60]	@ 0x3c
      }
      pllp = ((((RCC->PLLCFGR & RCC_PLLCFGR_PLLP) >> RCC_PLLCFGR_PLLP_Pos) + 1U) * 2U);
 80017e8:	4b0b      	ldr	r3, [pc, #44]	@ (8001818 <HAL_RCC_GetSysClockFreq+0x180>)
 80017ea:	685b      	ldr	r3, [r3, #4]
 80017ec:	0c1b      	lsrs	r3, r3, #16
 80017ee:	f003 0303 	and.w	r3, r3, #3
 80017f2:	3301      	adds	r3, #1
 80017f4:	005b      	lsls	r3, r3, #1
 80017f6:	633b      	str	r3, [r7, #48]	@ 0x30

      sysclockfreq = pllvco / pllp;
 80017f8:	6bfa      	ldr	r2, [r7, #60]	@ 0x3c
 80017fa:	6b3b      	ldr	r3, [r7, #48]	@ 0x30
 80017fc:	fbb2 f3f3 	udiv	r3, r2, r3
 8001800:	63bb      	str	r3, [r7, #56]	@ 0x38
      break;
 8001802:	e002      	b.n	800180a <HAL_RCC_GetSysClockFreq+0x172>
    }
    default:
    {
      sysclockfreq = HSI_VALUE;
 8001804:	4b05      	ldr	r3, [pc, #20]	@ (800181c <HAL_RCC_GetSysClockFreq+0x184>)
 8001806:	63bb      	str	r3, [r7, #56]	@ 0x38
      break;
 8001808:	bf00      	nop
    }
  }
  return sysclockfreq;
 800180a:	6bbb      	ldr	r3, [r7, #56]	@ 0x38
}
 800180c:	4618      	mov	r0, r3
 800180e:	3740      	adds	r7, #64	@ 0x40
 8001810:	46bd      	mov	sp, r7
 8001812:	e8bd 8fb0 	ldmia.w	sp!, {r4, r5, r7, r8, r9, sl, fp, pc}
 8001816:	bf00      	nop
 8001818:	40023800 	.word	0x40023800
 800181c:	00f42400 	.word	0x00f42400
 8001820:	017d7840 	.word	0x017d7840

08001824 <HAL_TIM_Base_Init>:
  *         Ex: call @ref HAL_TIM_Base_DeInit() before HAL_TIM_Base_Init()
  * @param  htim TIM Base handle
  * @retval HAL status
  */
HAL_StatusTypeDef HAL_TIM_Base_Init(TIM_HandleTypeDef *htim)
{
 8001824:	b580      	push	{r7, lr}
 8001826:	b082      	sub	sp, #8
 8001828:	af00      	add	r7, sp, #0
 800182a:	6078      	str	r0, [r7, #4]
  /* Check the TIM handle allocation */
  if (htim == NULL)
 800182c:	687b      	ldr	r3, [r7, #4]
 800182e:	2b00      	cmp	r3, #0
 8001830:	d101      	bne.n	8001836 <HAL_TIM_Base_Init+0x12>
  {
    return HAL_ERROR;
 8001832:	2301      	movs	r3, #1
 8001834:	e041      	b.n	80018ba <HAL_TIM_Base_Init+0x96>
  assert_param(IS_TIM_COUNTER_MODE(htim->Init.CounterMode));
  assert_param(IS_TIM_CLOCKDIVISION_DIV(htim->Init.ClockDivision));
  assert_param(IS_TIM_PERIOD(htim, htim->Init.Period));
  assert_param(IS_TIM_AUTORELOAD_PRELOAD(htim->Init.AutoReloadPreload));

  if (htim->State == HAL_TIM_STATE_RESET)
 8001836:	687b      	ldr	r3, [r7, #4]
 8001838:	f893 303d 	ldrb.w	r3, [r3, #61]	@ 0x3d
 800183c:	b2db      	uxtb	r3, r3
 800183e:	2b00      	cmp	r3, #0
 8001840:	d106      	bne.n	8001850 <HAL_TIM_Base_Init+0x2c>
  {
    /* Allocate lock resource and initialize it */
    htim->Lock = HAL_UNLOCKED;
 8001842:	687b      	ldr	r3, [r7, #4]
 8001844:	2200      	movs	r2, #0
 8001846:	f883 203c 	strb.w	r2, [r3, #60]	@ 0x3c
    }
    /* Init the low level hardware : GPIO, CLOCK, NVIC */
    htim->Base_MspInitCallback(htim);
#else
    /* Init the low level hardware : GPIO, CLOCK, NVIC */
    HAL_TIM_Base_MspInit(htim);
 800184a:	6878      	ldr	r0, [r7, #4]
 800184c:	f7fe fffe 	bl	800084c <HAL_TIM_Base_MspInit>
#endif /* USE_HAL_TIM_REGISTER_CALLBACKS */
  }

  /* Set the TIM state */
  htim->State = HAL_TIM_STATE_BUSY;
 8001850:	687b      	ldr	r3, [r7, #4]
 8001852:	2202      	movs	r2, #2
 8001854:	f883 203d 	strb.w	r2, [r3, #61]	@ 0x3d

  /* Set the Time Base configuration */
  TIM_Base_SetConfig(htim->Instance, &htim->Init);
 8001858:	687b      	ldr	r3, [r7, #4]
 800185a:	681a      	ldr	r2, [r3, #0]
 800185c:	687b      	ldr	r3, [r7, #4]
 800185e:	3304      	adds	r3, #4
 8001860:	4619      	mov	r1, r3
 8001862:	4610      	mov	r0, r2
 8001864:	f000 fb24 	bl	8001eb0 <TIM_Base_SetConfig>

  /* Initialize the DMA burst operation state */
  htim->DMABurstState = HAL_DMA_BURST_STATE_READY;
 8001868:	687b      	ldr	r3, [r7, #4]
 800186a:	2201      	movs	r2, #1
 800186c:	f883 2046 	strb.w	r2, [r3, #70]	@ 0x46

  /* Initialize the TIM channels state */
  TIM_CHANNEL_STATE_SET_ALL(htim, HAL_TIM_CHANNEL_STATE_READY);
 8001870:	687b      	ldr	r3, [r7, #4]
 8001872:	2201      	movs	r2, #1
 8001874:	f883 203e 	strb.w	r2, [r3, #62]	@ 0x3e
 8001878:	687b      	ldr	r3, [r7, #4]
 800187a:	2201      	movs	r2, #1
 800187c:	f883 203f 	strb.w	r2, [r3, #63]	@ 0x3f
 8001880:	687b      	ldr	r3, [r7, #4]
 8001882:	2201      	movs	r2, #1
 8001884:	f883 2040 	strb.w	r2, [r3, #64]	@ 0x40
 8001888:	687b      	ldr	r3, [r7, #4]
 800188a:	2201      	movs	r2, #1
 800188c:	f883 2041 	strb.w	r2, [r3, #65]	@ 0x41
  TIM_CHANNEL_N_STATE_SET_ALL(htim, HAL_TIM_CHANNEL_STATE_READY);
 8001890:	687b      	ldr	r3, [r7, #4]
 8001892:	2201      	movs	r2, #1
 8001894:	f883 2042 	strb.w	r2, [r3, #66]	@ 0x42
 8001898:	687b      	ldr	r3, [r7, #4]
 800189a:	2201      	movs	r2, #1
 800189c:	f883 2043 	strb.w	r2, [r3, #67]	@ 0x43
 80018a0:	687b      	ldr	r3, [r7, #4]
 80018a2:	2201      	movs	r2, #1
 80018a4:	f883 2044 	strb.w	r2, [r3, #68]	@ 0x44
 80018a8:	687b      	ldr	r3, [r7, #4]
 80018aa:	2201      	movs	r2, #1
 80018ac:	f883 2045 	strb.w	r2, [r3, #69]	@ 0x45

  /* Initialize the TIM state*/
  htim->State = HAL_TIM_STATE_READY;
 80018b0:	687b      	ldr	r3, [r7, #4]
 80018b2:	2201      	movs	r2, #1
 80018b4:	f883 203d 	strb.w	r2, [r3, #61]	@ 0x3d

  return HAL_OK;
 80018b8:	2300      	movs	r3, #0
}
 80018ba:	4618      	mov	r0, r3
 80018bc:	3708      	adds	r7, #8
 80018be:	46bd      	mov	sp, r7
 80018c0:	bd80      	pop	{r7, pc}

080018c2 <HAL_TIM_PWM_Init>:
  *         Ex: call @ref HAL_TIM_PWM_DeInit() before HAL_TIM_PWM_Init()
  * @param  htim TIM PWM handle
  * @retval HAL status
  */
HAL_StatusTypeDef HAL_TIM_PWM_Init(TIM_HandleTypeDef *htim)
{
 80018c2:	b580      	push	{r7, lr}
 80018c4:	b082      	sub	sp, #8
 80018c6:	af00      	add	r7, sp, #0
 80018c8:	6078      	str	r0, [r7, #4]
  /* Check the TIM handle allocation */
  if (htim == NULL)
 80018ca:	687b      	ldr	r3, [r7, #4]
 80018cc:	2b00      	cmp	r3, #0
 80018ce:	d101      	bne.n	80018d4 <HAL_TIM_PWM_Init+0x12>
  {
    return HAL_ERROR;
 80018d0:	2301      	movs	r3, #1
 80018d2:	e041      	b.n	8001958 <HAL_TIM_PWM_Init+0x96>
  assert_param(IS_TIM_COUNTER_MODE(htim->Init.CounterMode));
  assert_param(IS_TIM_CLOCKDIVISION_DIV(htim->Init.ClockDivision));
  assert_param(IS_TIM_PERIOD(htim, htim->Init.Period));
  assert_param(IS_TIM_AUTORELOAD_PRELOAD(htim->Init.AutoReloadPreload));

  if (htim->State == HAL_TIM_STATE_RESET)
 80018d4:	687b      	ldr	r3, [r7, #4]
 80018d6:	f893 303d 	ldrb.w	r3, [r3, #61]	@ 0x3d
 80018da:	b2db      	uxtb	r3, r3
 80018dc:	2b00      	cmp	r3, #0
 80018de:	d106      	bne.n	80018ee <HAL_TIM_PWM_Init+0x2c>
  {
    /* Allocate lock resource and initialize it */
    htim->Lock = HAL_UNLOCKED;
 80018e0:	687b      	ldr	r3, [r7, #4]
 80018e2:	2200      	movs	r2, #0
 80018e4:	f883 203c 	strb.w	r2, [r3, #60]	@ 0x3c
    }
    /* Init the low level hardware : GPIO, CLOCK, NVIC */
    htim->PWM_MspInitCallback(htim);
#else
    /* Init the low level hardware : GPIO, CLOCK, NVIC and DMA */
    HAL_TIM_PWM_MspInit(htim);
 80018e8:	6878      	ldr	r0, [r7, #4]
 80018ea:	f000 f839 	bl	8001960 <HAL_TIM_PWM_MspInit>
#endif /* USE_HAL_TIM_REGISTER_CALLBACKS */
  }

  /* Set the TIM state */
  htim->State = HAL_TIM_STATE_BUSY;
 80018ee:	687b      	ldr	r3, [r7, #4]
 80018f0:	2202      	movs	r2, #2
 80018f2:	f883 203d 	strb.w	r2, [r3, #61]	@ 0x3d

  /* Init the base time for the PWM */
  TIM_Base_SetConfig(htim->Instance, &htim->Init);
 80018f6:	687b      	ldr	r3, [r7, #4]
 80018f8:	681a      	ldr	r2, [r3, #0]
 80018fa:	687b      	ldr	r3, [r7, #4]
 80018fc:	3304      	adds	r3, #4
 80018fe:	4619      	mov	r1, r3
 8001900:	4610      	mov	r0, r2
 8001902:	f000 fad5 	bl	8001eb0 <TIM_Base_SetConfig>

  /* Initialize the DMA burst operation state */
  htim->DMABurstState = HAL_DMA_BURST_STATE_READY;
 8001906:	687b      	ldr	r3, [r7, #4]
 8001908:	2201      	movs	r2, #1
 800190a:	f883 2046 	strb.w	r2, [r3, #70]	@ 0x46

  /* Initialize the TIM channels state */
  TIM_CHANNEL_STATE_SET_ALL(htim, HAL_TIM_CHANNEL_STATE_READY);
 800190e:	687b      	ldr	r3, [r7, #4]
 8001910:	2201      	movs	r2, #1
 8001912:	f883 203e 	strb.w	r2, [r3, #62]	@ 0x3e
 8001916:	687b      	ldr	r3, [r7, #4]
 8001918:	2201      	movs	r2, #1
 800191a:	f883 203f 	strb.w	r2, [r3, #63]	@ 0x3f
 800191e:	687b      	ldr	r3, [r7, #4]
 8001920:	2201      	movs	r2, #1
 8001922:	f883 2040 	strb.w	r2, [r3, #64]	@ 0x40
 8001926:	687b      	ldr	r3, [r7, #4]
 8001928:	2201      	movs	r2, #1
 800192a:	f883 2041 	strb.w	r2, [r3, #65]	@ 0x41
  TIM_CHANNEL_N_STATE_SET_ALL(htim, HAL_TIM_CHANNEL_STATE_READY);
 800192e:	687b      	ldr	r3, [r7, #4]
 8001930:	2201      	movs	r2, #1
 8001932:	f883 2042 	strb.w	r2, [r3, #66]	@ 0x42
 8001936:	687b      	ldr	r3, [r7, #4]
 8001938:	2201      	movs	r2, #1
 800193a:	f883 2043 	strb.w	r2, [r3, #67]	@ 0x43
 800193e:	687b      	ldr	r3, [r7, #4]
 8001940:	2201      	movs	r2, #1
 8001942:	f883 2044 	strb.w	r2, [r3, #68]	@ 0x44
 8001946:	687b      	ldr	r3, [r7, #4]
 8001948:	2201      	movs	r2, #1
 800194a:	f883 2045 	strb.w	r2, [r3, #69]	@ 0x45

  /* Initialize the TIM state*/
  htim->State = HAL_TIM_STATE_READY;
 800194e:	687b      	ldr	r3, [r7, #4]
 8001950:	2201      	movs	r2, #1
 8001952:	f883 203d 	strb.w	r2, [r3, #61]	@ 0x3d

  return HAL_OK;
 8001956:	2300      	movs	r3, #0
}
 8001958:	4618      	mov	r0, r3
 800195a:	3708      	adds	r7, #8
 800195c:	46bd      	mov	sp, r7
 800195e:	bd80      	pop	{r7, pc}

08001960 <HAL_TIM_PWM_MspInit>:
  * @brief  Initializes the TIM PWM MSP.
  * @param  htim TIM PWM handle
  * @retval None
  */
__weak void HAL_TIM_PWM_MspInit(TIM_HandleTypeDef *htim)
{
 8001960:	b480      	push	{r7}
 8001962:	b083      	sub	sp, #12
 8001964:	af00      	add	r7, sp, #0
 8001966:	6078      	str	r0, [r7, #4]
  UNUSED(htim);

  /* NOTE : This function should not be modified, when the callback is needed,
            the HAL_TIM_PWM_MspInit could be implemented in the user file
   */
}
 8001968:	bf00      	nop
 800196a:	370c      	adds	r7, #12
 800196c:	46bd      	mov	sp, r7
 800196e:	f85d 7b04 	ldr.w	r7, [sp], #4
 8001972:	4770      	bx	lr

08001974 <HAL_TIM_PWM_Start>:
  *            @arg TIM_CHANNEL_3: TIM Channel 3 selected
  *            @arg TIM_CHANNEL_4: TIM Channel 4 selected
  * @retval HAL status
  */
HAL_StatusTypeDef HAL_TIM_PWM_Start(TIM_HandleTypeDef *htim, uint32_t Channel)
{
 8001974:	b580      	push	{r7, lr}
 8001976:	b084      	sub	sp, #16
 8001978:	af00      	add	r7, sp, #0
 800197a:	6078      	str	r0, [r7, #4]
 800197c:	6039      	str	r1, [r7, #0]

  /* Check the parameters */
  assert_param(IS_TIM_CCX_INSTANCE(htim->Instance, Channel));

  /* Check the TIM channel state */
  if (TIM_CHANNEL_STATE_GET(htim, Channel) != HAL_TIM_CHANNEL_STATE_READY)
 800197e:	683b      	ldr	r3, [r7, #0]
 8001980:	2b00      	cmp	r3, #0
 8001982:	d109      	bne.n	8001998 <HAL_TIM_PWM_Start+0x24>
 8001984:	687b      	ldr	r3, [r7, #4]
 8001986:	f893 303e 	ldrb.w	r3, [r3, #62]	@ 0x3e
 800198a:	b2db      	uxtb	r3, r3
 800198c:	2b01      	cmp	r3, #1
 800198e:	bf14      	ite	ne
 8001990:	2301      	movne	r3, #1
 8001992:	2300      	moveq	r3, #0
 8001994:	b2db      	uxtb	r3, r3
 8001996:	e022      	b.n	80019de <HAL_TIM_PWM_Start+0x6a>
 8001998:	683b      	ldr	r3, [r7, #0]
 800199a:	2b04      	cmp	r3, #4
 800199c:	d109      	bne.n	80019b2 <HAL_TIM_PWM_Start+0x3e>
 800199e:	687b      	ldr	r3, [r7, #4]
 80019a0:	f893 303f 	ldrb.w	r3, [r3, #63]	@ 0x3f
 80019a4:	b2db      	uxtb	r3, r3
 80019a6:	2b01      	cmp	r3, #1
 80019a8:	bf14      	ite	ne
 80019aa:	2301      	movne	r3, #1
 80019ac:	2300      	moveq	r3, #0
 80019ae:	b2db      	uxtb	r3, r3
 80019b0:	e015      	b.n	80019de <HAL_TIM_PWM_Start+0x6a>
 80019b2:	683b      	ldr	r3, [r7, #0]
 80019b4:	2b08      	cmp	r3, #8
 80019b6:	d109      	bne.n	80019cc <HAL_TIM_PWM_Start+0x58>
 80019b8:	687b      	ldr	r3, [r7, #4]
 80019ba:	f893 3040 	ldrb.w	r3, [r3, #64]	@ 0x40
 80019be:	b2db      	uxtb	r3, r3
 80019c0:	2b01      	cmp	r3, #1
 80019c2:	bf14      	ite	ne
 80019c4:	2301      	movne	r3, #1
 80019c6:	2300      	moveq	r3, #0
 80019c8:	b2db      	uxtb	r3, r3
 80019ca:	e008      	b.n	80019de <HAL_TIM_PWM_Start+0x6a>
 80019cc:	687b      	ldr	r3, [r7, #4]
 80019ce:	f893 3041 	ldrb.w	r3, [r3, #65]	@ 0x41
 80019d2:	b2db      	uxtb	r3, r3
 80019d4:	2b01      	cmp	r3, #1
 80019d6:	bf14      	ite	ne
 80019d8:	2301      	movne	r3, #1
 80019da:	2300      	moveq	r3, #0
 80019dc:	b2db      	uxtb	r3, r3
 80019de:	2b00      	cmp	r3, #0
 80019e0:	d001      	beq.n	80019e6 <HAL_TIM_PWM_Start+0x72>
  {
    return HAL_ERROR;
 80019e2:	2301      	movs	r3, #1
 80019e4:	e068      	b.n	8001ab8 <HAL_TIM_PWM_Start+0x144>
  }

  /* Set the TIM channel state */
  TIM_CHANNEL_STATE_SET(htim, Channel, HAL_TIM_CHANNEL_STATE_BUSY);
 80019e6:	683b      	ldr	r3, [r7, #0]
 80019e8:	2b00      	cmp	r3, #0
 80019ea:	d104      	bne.n	80019f6 <HAL_TIM_PWM_Start+0x82>
 80019ec:	687b      	ldr	r3, [r7, #4]
 80019ee:	2202      	movs	r2, #2
 80019f0:	f883 203e 	strb.w	r2, [r3, #62]	@ 0x3e
 80019f4:	e013      	b.n	8001a1e <HAL_TIM_PWM_Start+0xaa>
 80019f6:	683b      	ldr	r3, [r7, #0]
 80019f8:	2b04      	cmp	r3, #4
 80019fa:	d104      	bne.n	8001a06 <HAL_TIM_PWM_Start+0x92>
 80019fc:	687b      	ldr	r3, [r7, #4]
 80019fe:	2202      	movs	r2, #2
 8001a00:	f883 203f 	strb.w	r2, [r3, #63]	@ 0x3f
 8001a04:	e00b      	b.n	8001a1e <HAL_TIM_PWM_Start+0xaa>
 8001a06:	683b      	ldr	r3, [r7, #0]
 8001a08:	2b08      	cmp	r3, #8
 8001a0a:	d104      	bne.n	8001a16 <HAL_TIM_PWM_Start+0xa2>
 8001a0c:	687b      	ldr	r3, [r7, #4]
 8001a0e:	2202      	movs	r2, #2
 8001a10:	f883 2040 	strb.w	r2, [r3, #64]	@ 0x40
 8001a14:	e003      	b.n	8001a1e <HAL_TIM_PWM_Start+0xaa>
 8001a16:	687b      	ldr	r3, [r7, #4]
 8001a18:	2202      	movs	r2, #2
 8001a1a:	f883 2041 	strb.w	r2, [r3, #65]	@ 0x41

  /* Enable the Capture compare channel */
  TIM_CCxChannelCmd(htim->Instance, Channel, TIM_CCx_ENABLE);
 8001a1e:	687b      	ldr	r3, [r7, #4]
 8001a20:	681b      	ldr	r3, [r3, #0]
 8001a22:	2201      	movs	r2, #1
 8001a24:	6839      	ldr	r1, [r7, #0]
 8001a26:	4618      	mov	r0, r3
 8001a28:	f000 fcf4 	bl	8002414 <TIM_CCxChannelCmd>

  if (IS_TIM_BREAK_INSTANCE(htim->Instance) != RESET)
 8001a2c:	687b      	ldr	r3, [r7, #4]
 8001a2e:	681b      	ldr	r3, [r3, #0]
 8001a30:	4a23      	ldr	r2, [pc, #140]	@ (8001ac0 <HAL_TIM_PWM_Start+0x14c>)
 8001a32:	4293      	cmp	r3, r2
 8001a34:	d107      	bne.n	8001a46 <HAL_TIM_PWM_Start+0xd2>
  {
    /* Enable the main output */
    __HAL_TIM_MOE_ENABLE(htim);
 8001a36:	687b      	ldr	r3, [r7, #4]
 8001a38:	681b      	ldr	r3, [r3, #0]
 8001a3a:	6c5a      	ldr	r2, [r3, #68]	@ 0x44
 8001a3c:	687b      	ldr	r3, [r7, #4]
 8001a3e:	681b      	ldr	r3, [r3, #0]
 8001a40:	f442 4200 	orr.w	r2, r2, #32768	@ 0x8000
 8001a44:	645a      	str	r2, [r3, #68]	@ 0x44
  }

  /* Enable the Peripheral, except in trigger mode where enable is automatically done with trigger */
  if (IS_TIM_SLAVE_INSTANCE(htim->Instance))
 8001a46:	687b      	ldr	r3, [r7, #4]
 8001a48:	681b      	ldr	r3, [r3, #0]
 8001a4a:	4a1d      	ldr	r2, [pc, #116]	@ (8001ac0 <HAL_TIM_PWM_Start+0x14c>)
 8001a4c:	4293      	cmp	r3, r2
 8001a4e:	d018      	beq.n	8001a82 <HAL_TIM_PWM_Start+0x10e>
 8001a50:	687b      	ldr	r3, [r7, #4]
 8001a52:	681b      	ldr	r3, [r3, #0]
 8001a54:	f1b3 4f80 	cmp.w	r3, #1073741824	@ 0x40000000
 8001a58:	d013      	beq.n	8001a82 <HAL_TIM_PWM_Start+0x10e>
 8001a5a:	687b      	ldr	r3, [r7, #4]
 8001a5c:	681b      	ldr	r3, [r3, #0]
 8001a5e:	4a19      	ldr	r2, [pc, #100]	@ (8001ac4 <HAL_TIM_PWM_Start+0x150>)
 8001a60:	4293      	cmp	r3, r2
 8001a62:	d00e      	beq.n	8001a82 <HAL_TIM_PWM_Start+0x10e>
 8001a64:	687b      	ldr	r3, [r7, #4]
 8001a66:	681b      	ldr	r3, [r3, #0]
 8001a68:	4a17      	ldr	r2, [pc, #92]	@ (8001ac8 <HAL_TIM_PWM_Start+0x154>)
 8001a6a:	4293      	cmp	r3, r2
 8001a6c:	d009      	beq.n	8001a82 <HAL_TIM_PWM_Start+0x10e>
 8001a6e:	687b      	ldr	r3, [r7, #4]
 8001a70:	681b      	ldr	r3, [r3, #0]
 8001a72:	4a16      	ldr	r2, [pc, #88]	@ (8001acc <HAL_TIM_PWM_Start+0x158>)
 8001a74:	4293      	cmp	r3, r2
 8001a76:	d004      	beq.n	8001a82 <HAL_TIM_PWM_Start+0x10e>
 8001a78:	687b      	ldr	r3, [r7, #4]
 8001a7a:	681b      	ldr	r3, [r3, #0]
 8001a7c:	4a14      	ldr	r2, [pc, #80]	@ (8001ad0 <HAL_TIM_PWM_Start+0x15c>)
 8001a7e:	4293      	cmp	r3, r2
 8001a80:	d111      	bne.n	8001aa6 <HAL_TIM_PWM_Start+0x132>
  {
    tmpsmcr = htim->Instance->SMCR & TIM_SMCR_SMS;
 8001a82:	687b      	ldr	r3, [r7, #4]
 8001a84:	681b      	ldr	r3, [r3, #0]
 8001a86:	689b      	ldr	r3, [r3, #8]
 8001a88:	f003 0307 	and.w	r3, r3, #7
 8001a8c:	60fb      	str	r3, [r7, #12]
    if (!IS_TIM_SLAVEMODE_TRIGGER_ENABLED(tmpsmcr))
 8001a8e:	68fb      	ldr	r3, [r7, #12]
 8001a90:	2b06      	cmp	r3, #6
 8001a92:	d010      	beq.n	8001ab6 <HAL_TIM_PWM_Start+0x142>
    {
      __HAL_TIM_ENABLE(htim);
 8001a94:	687b      	ldr	r3, [r7, #4]
 8001a96:	681b      	ldr	r3, [r3, #0]
 8001a98:	681a      	ldr	r2, [r3, #0]
 8001a9a:	687b      	ldr	r3, [r7, #4]
 8001a9c:	681b      	ldr	r3, [r3, #0]
 8001a9e:	f042 0201 	orr.w	r2, r2, #1
 8001aa2:	601a      	str	r2, [r3, #0]
    if (!IS_TIM_SLAVEMODE_TRIGGER_ENABLED(tmpsmcr))
 8001aa4:	e007      	b.n	8001ab6 <HAL_TIM_PWM_Start+0x142>
    }
  }
  else
  {
    __HAL_TIM_ENABLE(htim);
 8001aa6:	687b      	ldr	r3, [r7, #4]
 8001aa8:	681b      	ldr	r3, [r3, #0]
 8001aaa:	681a      	ldr	r2, [r3, #0]
 8001aac:	687b      	ldr	r3, [r7, #4]
 8001aae:	681b      	ldr	r3, [r3, #0]
 8001ab0:	f042 0201 	orr.w	r2, r2, #1
 8001ab4:	601a      	str	r2, [r3, #0]
  }

  /* Return function status */
  return HAL_OK;
 8001ab6:	2300      	movs	r3, #0
}
 8001ab8:	4618      	mov	r0, r3
 8001aba:	3710      	adds	r7, #16
 8001abc:	46bd      	mov	sp, r7
 8001abe:	bd80      	pop	{r7, pc}
 8001ac0:	40010000 	.word	0x40010000
 8001ac4:	40000400 	.word	0x40000400
 8001ac8:	40000800 	.word	0x40000800
 8001acc:	40000c00 	.word	0x40000c00
 8001ad0:	40014000 	.word	0x40014000

08001ad4 <HAL_TIM_PWM_Stop>:
  *            @arg TIM_CHANNEL_3: TIM Channel 3 selected
  *            @arg TIM_CHANNEL_4: TIM Channel 4 selected
  * @retval HAL status
  */
HAL_StatusTypeDef HAL_TIM_PWM_Stop(TIM_HandleTypeDef *htim, uint32_t Channel)
{
 8001ad4:	b580      	push	{r7, lr}
 8001ad6:	b082      	sub	sp, #8
 8001ad8:	af00      	add	r7, sp, #0
 8001ada:	6078      	str	r0, [r7, #4]
 8001adc:	6039      	str	r1, [r7, #0]
  /* Check the parameters */
  assert_param(IS_TIM_CCX_INSTANCE(htim->Instance, Channel));

  /* Disable the Capture compare channel */
  TIM_CCxChannelCmd(htim->Instance, Channel, TIM_CCx_DISABLE);
 8001ade:	687b      	ldr	r3, [r7, #4]
 8001ae0:	681b      	ldr	r3, [r3, #0]
 8001ae2:	2200      	movs	r2, #0
 8001ae4:	6839      	ldr	r1, [r7, #0]
 8001ae6:	4618      	mov	r0, r3
 8001ae8:	f000 fc94 	bl	8002414 <TIM_CCxChannelCmd>

  if (IS_TIM_BREAK_INSTANCE(htim->Instance) != RESET)
 8001aec:	687b      	ldr	r3, [r7, #4]
 8001aee:	681b      	ldr	r3, [r3, #0]
 8001af0:	4a29      	ldr	r2, [pc, #164]	@ (8001b98 <HAL_TIM_PWM_Stop+0xc4>)
 8001af2:	4293      	cmp	r3, r2
 8001af4:	d117      	bne.n	8001b26 <HAL_TIM_PWM_Stop+0x52>
  {
    /* Disable the Main Output */
    __HAL_TIM_MOE_DISABLE(htim);
 8001af6:	687b      	ldr	r3, [r7, #4]
 8001af8:	681b      	ldr	r3, [r3, #0]
 8001afa:	6a1a      	ldr	r2, [r3, #32]
 8001afc:	f241 1311 	movw	r3, #4369	@ 0x1111
 8001b00:	4013      	ands	r3, r2
 8001b02:	2b00      	cmp	r3, #0
 8001b04:	d10f      	bne.n	8001b26 <HAL_TIM_PWM_Stop+0x52>
 8001b06:	687b      	ldr	r3, [r7, #4]
 8001b08:	681b      	ldr	r3, [r3, #0]
 8001b0a:	6a1a      	ldr	r2, [r3, #32]
 8001b0c:	f240 4344 	movw	r3, #1092	@ 0x444
 8001b10:	4013      	ands	r3, r2
 8001b12:	2b00      	cmp	r3, #0
 8001b14:	d107      	bne.n	8001b26 <HAL_TIM_PWM_Stop+0x52>
 8001b16:	687b      	ldr	r3, [r7, #4]
 8001b18:	681b      	ldr	r3, [r3, #0]
 8001b1a:	6c5a      	ldr	r2, [r3, #68]	@ 0x44
 8001b1c:	687b      	ldr	r3, [r7, #4]
 8001b1e:	681b      	ldr	r3, [r3, #0]
 8001b20:	f422 4200 	bic.w	r2, r2, #32768	@ 0x8000
 8001b24:	645a      	str	r2, [r3, #68]	@ 0x44
  }

  /* Disable the Peripheral */
  __HAL_TIM_DISABLE(htim);
 8001b26:	687b      	ldr	r3, [r7, #4]
 8001b28:	681b      	ldr	r3, [r3, #0]
 8001b2a:	6a1a      	ldr	r2, [r3, #32]
 8001b2c:	f241 1311 	movw	r3, #4369	@ 0x1111
 8001b30:	4013      	ands	r3, r2
 8001b32:	2b00      	cmp	r3, #0
 8001b34:	d10f      	bne.n	8001b56 <HAL_TIM_PWM_Stop+0x82>
 8001b36:	687b      	ldr	r3, [r7, #4]
 8001b38:	681b      	ldr	r3, [r3, #0]
 8001b3a:	6a1a      	ldr	r2, [r3, #32]
 8001b3c:	f240 4344 	movw	r3, #1092	@ 0x444
 8001b40:	4013      	ands	r3, r2
 8001b42:	2b00      	cmp	r3, #0
 8001b44:	d107      	bne.n	8001b56 <HAL_TIM_PWM_Stop+0x82>
 8001b46:	687b      	ldr	r3, [r7, #4]
 8001b48:	681b      	ldr	r3, [r3, #0]
 8001b4a:	681a      	ldr	r2, [r3, #0]
 8001b4c:	687b      	ldr	r3, [r7, #4]
 8001b4e:	681b      	ldr	r3, [r3, #0]
 8001b50:	f022 0201 	bic.w	r2, r2, #1
 8001b54:	601a      	str	r2, [r3, #0]

  /* Set the TIM channel state */
  TIM_CHANNEL_STATE_SET(htim, Channel, HAL_TIM_CHANNEL_STATE_READY);
 8001b56:	683b      	ldr	r3, [r7, #0]
 8001b58:	2b00      	cmp	r3, #0
 8001b5a:	d104      	bne.n	8001b66 <HAL_TIM_PWM_Stop+0x92>
 8001b5c:	687b      	ldr	r3, [r7, #4]
 8001b5e:	2201      	movs	r2, #1
 8001b60:	f883 203e 	strb.w	r2, [r3, #62]	@ 0x3e
 8001b64:	e013      	b.n	8001b8e <HAL_TIM_PWM_Stop+0xba>
 8001b66:	683b      	ldr	r3, [r7, #0]
 8001b68:	2b04      	cmp	r3, #4
 8001b6a:	d104      	bne.n	8001b76 <HAL_TIM_PWM_Stop+0xa2>
 8001b6c:	687b      	ldr	r3, [r7, #4]
 8001b6e:	2201      	movs	r2, #1
 8001b70:	f883 203f 	strb.w	r2, [r3, #63]	@ 0x3f
 8001b74:	e00b      	b.n	8001b8e <HAL_TIM_PWM_Stop+0xba>
 8001b76:	683b      	ldr	r3, [r7, #0]
 8001b78:	2b08      	cmp	r3, #8
 8001b7a:	d104      	bne.n	8001b86 <HAL_TIM_PWM_Stop+0xb2>
 8001b7c:	687b      	ldr	r3, [r7, #4]
 8001b7e:	2201      	movs	r2, #1
 8001b80:	f883 2040 	strb.w	r2, [r3, #64]	@ 0x40
 8001b84:	e003      	b.n	8001b8e <HAL_TIM_PWM_Stop+0xba>
 8001b86:	687b      	ldr	r3, [r7, #4]
 8001b88:	2201      	movs	r2, #1
 8001b8a:	f883 2041 	strb.w	r2, [r3, #65]	@ 0x41

  /* Return function status */
  return HAL_OK;
 8001b8e:	2300      	movs	r3, #0
}
 8001b90:	4618      	mov	r0, r3
 8001b92:	3708      	adds	r7, #8
 8001b94:	46bd      	mov	sp, r7
 8001b96:	bd80      	pop	{r7, pc}
 8001b98:	40010000 	.word	0x40010000

08001b9c <HAL_TIM_PWM_ConfigChannel>:
  * @retval HAL status
  */
HAL_StatusTypeDef HAL_TIM_PWM_ConfigChannel(TIM_HandleTypeDef *htim,
                                            const TIM_OC_InitTypeDef *sConfig,
                                            uint32_t Channel)
{
 8001b9c:	b580      	push	{r7, lr}
 8001b9e:	b086      	sub	sp, #24
 8001ba0:	af00      	add	r7, sp, #0
 8001ba2:	60f8      	str	r0, [r7, #12]
 8001ba4:	60b9      	str	r1, [r7, #8]
 8001ba6:	607a      	str	r2, [r7, #4]
  HAL_StatusTypeDef status = HAL_OK;
 8001ba8:	2300      	movs	r3, #0
 8001baa:	75fb      	strb	r3, [r7, #23]
  assert_param(IS_TIM_PWM_MODE(sConfig->OCMode));
  assert_param(IS_TIM_OC_POLARITY(sConfig->OCPolarity));
  assert_param(IS_TIM_FAST_STATE(sConfig->OCFastMode));

  /* Process Locked */
  __HAL_LOCK(htim);
 8001bac:	68fb      	ldr	r3, [r7, #12]
 8001bae:	f893 303c 	ldrb.w	r3, [r3, #60]	@ 0x3c
 8001bb2:	2b01      	cmp	r3, #1
 8001bb4:	d101      	bne.n	8001bba <HAL_TIM_PWM_ConfigChannel+0x1e>
 8001bb6:	2302      	movs	r3, #2
 8001bb8:	e0ae      	b.n	8001d18 <HAL_TIM_PWM_ConfigChannel+0x17c>
 8001bba:	68fb      	ldr	r3, [r7, #12]
 8001bbc:	2201      	movs	r2, #1
 8001bbe:	f883 203c 	strb.w	r2, [r3, #60]	@ 0x3c

  switch (Channel)
 8001bc2:	687b      	ldr	r3, [r7, #4]
 8001bc4:	2b0c      	cmp	r3, #12
 8001bc6:	f200 809f 	bhi.w	8001d08 <HAL_TIM_PWM_ConfigChannel+0x16c>
 8001bca:	a201      	add	r2, pc, #4	@ (adr r2, 8001bd0 <HAL_TIM_PWM_ConfigChannel+0x34>)
 8001bcc:	f852 f023 	ldr.w	pc, [r2, r3, lsl #2]
 8001bd0:	08001c05 	.word	0x08001c05
 8001bd4:	08001d09 	.word	0x08001d09
 8001bd8:	08001d09 	.word	0x08001d09
 8001bdc:	08001d09 	.word	0x08001d09
 8001be0:	08001c45 	.word	0x08001c45
 8001be4:	08001d09 	.word	0x08001d09
 8001be8:	08001d09 	.word	0x08001d09
 8001bec:	08001d09 	.word	0x08001d09
 8001bf0:	08001c87 	.word	0x08001c87
 8001bf4:	08001d09 	.word	0x08001d09
 8001bf8:	08001d09 	.word	0x08001d09
 8001bfc:	08001d09 	.word	0x08001d09
 8001c00:	08001cc7 	.word	0x08001cc7
    {
      /* Check the parameters */
      assert_param(IS_TIM_CC1_INSTANCE(htim->Instance));

      /* Configure the Channel 1 in PWM mode */
      TIM_OC1_SetConfig(htim->Instance, sConfig);
 8001c04:	68fb      	ldr	r3, [r7, #12]
 8001c06:	681b      	ldr	r3, [r3, #0]
 8001c08:	68b9      	ldr	r1, [r7, #8]
 8001c0a:	4618      	mov	r0, r3
 8001c0c:	f000 f9dc 	bl	8001fc8 <TIM_OC1_SetConfig>

      /* Set the Preload enable bit for channel1 */
      htim->Instance->CCMR1 |= TIM_CCMR1_OC1PE;
 8001c10:	68fb      	ldr	r3, [r7, #12]
 8001c12:	681b      	ldr	r3, [r3, #0]
 8001c14:	699a      	ldr	r2, [r3, #24]
 8001c16:	68fb      	ldr	r3, [r7, #12]
 8001c18:	681b      	ldr	r3, [r3, #0]
 8001c1a:	f042 0208 	orr.w	r2, r2, #8
 8001c1e:	619a      	str	r2, [r3, #24]

      /* Configure the Output Fast mode */
      htim->Instance->CCMR1 &= ~TIM_CCMR1_OC1FE;
 8001c20:	68fb      	ldr	r3, [r7, #12]
 8001c22:	681b      	ldr	r3, [r3, #0]
 8001c24:	699a      	ldr	r2, [r3, #24]
 8001c26:	68fb      	ldr	r3, [r7, #12]
 8001c28:	681b      	ldr	r3, [r3, #0]
 8001c2a:	f022 0204 	bic.w	r2, r2, #4
 8001c2e:	619a      	str	r2, [r3, #24]
      htim->Instance->CCMR1 |= sConfig->OCFastMode;
 8001c30:	68fb      	ldr	r3, [r7, #12]
 8001c32:	681b      	ldr	r3, [r3, #0]
 8001c34:	6999      	ldr	r1, [r3, #24]
 8001c36:	68bb      	ldr	r3, [r7, #8]
 8001c38:	691a      	ldr	r2, [r3, #16]
 8001c3a:	68fb      	ldr	r3, [r7, #12]
 8001c3c:	681b      	ldr	r3, [r3, #0]
 8001c3e:	430a      	orrs	r2, r1
 8001c40:	619a      	str	r2, [r3, #24]
      break;
 8001c42:	e064      	b.n	8001d0e <HAL_TIM_PWM_ConfigChannel+0x172>
    {
      /* Check the parameters */
      assert_param(IS_TIM_CC2_INSTANCE(htim->Instance));

      /* Configure the Channel 2 in PWM mode */
      TIM_OC2_SetConfig(htim->Instance, sConfig);
 8001c44:	68fb      	ldr	r3, [r7, #12]
 8001c46:	681b      	ldr	r3, [r3, #0]
 8001c48:	68b9      	ldr	r1, [r7, #8]
 8001c4a:	4618      	mov	r0, r3
 8001c4c:	f000 fa22 	bl	8002094 <TIM_OC2_SetConfig>

      /* Set the Preload enable bit for channel2 */
      htim->Instance->CCMR1 |= TIM_CCMR1_OC2PE;
 8001c50:	68fb      	ldr	r3, [r7, #12]
 8001c52:	681b      	ldr	r3, [r3, #0]
 8001c54:	699a      	ldr	r2, [r3, #24]
 8001c56:	68fb      	ldr	r3, [r7, #12]
 8001c58:	681b      	ldr	r3, [r3, #0]
 8001c5a:	f442 6200 	orr.w	r2, r2, #2048	@ 0x800
 8001c5e:	619a      	str	r2, [r3, #24]

      /* Configure the Output Fast mode */
      htim->Instance->CCMR1 &= ~TIM_CCMR1_OC2FE;
 8001c60:	68fb      	ldr	r3, [r7, #12]
 8001c62:	681b      	ldr	r3, [r3, #0]
 8001c64:	699a      	ldr	r2, [r3, #24]
 8001c66:	68fb      	ldr	r3, [r7, #12]
 8001c68:	681b      	ldr	r3, [r3, #0]
 8001c6a:	f422 6280 	bic.w	r2, r2, #1024	@ 0x400
 8001c6e:	619a      	str	r2, [r3, #24]
      htim->Instance->CCMR1 |= sConfig->OCFastMode << 8U;
 8001c70:	68fb      	ldr	r3, [r7, #12]
 8001c72:	681b      	ldr	r3, [r3, #0]
 8001c74:	6999      	ldr	r1, [r3, #24]
 8001c76:	68bb      	ldr	r3, [r7, #8]
 8001c78:	691b      	ldr	r3, [r3, #16]
 8001c7a:	021a      	lsls	r2, r3, #8
 8001c7c:	68fb      	ldr	r3, [r7, #12]
 8001c7e:	681b      	ldr	r3, [r3, #0]
 8001c80:	430a      	orrs	r2, r1
 8001c82:	619a      	str	r2, [r3, #24]
      break;
 8001c84:	e043      	b.n	8001d0e <HAL_TIM_PWM_ConfigChannel+0x172>
    {
      /* Check the parameters */
      assert_param(IS_TIM_CC3_INSTANCE(htim->Instance));

      /* Configure the Channel 3 in PWM mode */
      TIM_OC3_SetConfig(htim->Instance, sConfig);
 8001c86:	68fb      	ldr	r3, [r7, #12]
 8001c88:	681b      	ldr	r3, [r3, #0]
 8001c8a:	68b9      	ldr	r1, [r7, #8]
 8001c8c:	4618      	mov	r0, r3
 8001c8e:	f000 fa6d 	bl	800216c <TIM_OC3_SetConfig>

      /* Set the Preload enable bit for channel3 */
      htim->Instance->CCMR2 |= TIM_CCMR2_OC3PE;
 8001c92:	68fb      	ldr	r3, [r7, #12]
 8001c94:	681b      	ldr	r3, [r3, #0]
 8001c96:	69da      	ldr	r2, [r3, #28]
 8001c98:	68fb      	ldr	r3, [r7, #12]
 8001c9a:	681b      	ldr	r3, [r3, #0]
 8001c9c:	f042 0208 	orr.w	r2, r2, #8
 8001ca0:	61da      	str	r2, [r3, #28]

      /* Configure the Output Fast mode */
      htim->Instance->CCMR2 &= ~TIM_CCMR2_OC3FE;
 8001ca2:	68fb      	ldr	r3, [r7, #12]
 8001ca4:	681b      	ldr	r3, [r3, #0]
 8001ca6:	69da      	ldr	r2, [r3, #28]
 8001ca8:	68fb      	ldr	r3, [r7, #12]
 8001caa:	681b      	ldr	r3, [r3, #0]
 8001cac:	f022 0204 	bic.w	r2, r2, #4
 8001cb0:	61da      	str	r2, [r3, #28]
      htim->Instance->CCMR2 |= sConfig->OCFastMode;
 8001cb2:	68fb      	ldr	r3, [r7, #12]
 8001cb4:	681b      	ldr	r3, [r3, #0]
 8001cb6:	69d9      	ldr	r1, [r3, #28]
 8001cb8:	68bb      	ldr	r3, [r7, #8]
 8001cba:	691a      	ldr	r2, [r3, #16]
 8001cbc:	68fb      	ldr	r3, [r7, #12]
 8001cbe:	681b      	ldr	r3, [r3, #0]
 8001cc0:	430a      	orrs	r2, r1
 8001cc2:	61da      	str	r2, [r3, #28]
      break;
 8001cc4:	e023      	b.n	8001d0e <HAL_TIM_PWM_ConfigChannel+0x172>
    {
      /* Check the parameters */
      assert_param(IS_TIM_CC4_INSTANCE(htim->Instance));

      /* Configure the Channel 4 in PWM mode */
      TIM_OC4_SetConfig(htim->Instance, sConfig);
 8001cc6:	68fb      	ldr	r3, [r7, #12]
 8001cc8:	681b      	ldr	r3, [r3, #0]
 8001cca:	68b9      	ldr	r1, [r7, #8]
 8001ccc:	4618      	mov	r0, r3
 8001cce:	f000 fab7 	bl	8002240 <TIM_OC4_SetConfig>

      /* Set the Preload enable bit for channel4 */
      htim->Instance->CCMR2 |= TIM_CCMR2_OC4PE;
 8001cd2:	68fb      	ldr	r3, [r7, #12]
 8001cd4:	681b      	ldr	r3, [r3, #0]
 8001cd6:	69da      	ldr	r2, [r3, #28]
 8001cd8:	68fb      	ldr	r3, [r7, #12]
 8001cda:	681b      	ldr	r3, [r3, #0]
 8001cdc:	f442 6200 	orr.w	r2, r2, #2048	@ 0x800
 8001ce0:	61da      	str	r2, [r3, #28]

      /* Configure the Output Fast mode */
      htim->Instance->CCMR2 &= ~TIM_CCMR2_OC4FE;
 8001ce2:	68fb      	ldr	r3, [r7, #12]
 8001ce4:	681b      	ldr	r3, [r3, #0]
 8001ce6:	69da      	ldr	r2, [r3, #28]
 8001ce8:	68fb      	ldr	r3, [r7, #12]
 8001cea:	681b      	ldr	r3, [r3, #0]
 8001cec:	f422 6280 	bic.w	r2, r2, #1024	@ 0x400
 8001cf0:	61da      	str	r2, [r3, #28]
      htim->Instance->CCMR2 |= sConfig->OCFastMode << 8U;
 8001cf2:	68fb      	ldr	r3, [r7, #12]
 8001cf4:	681b      	ldr	r3, [r3, #0]
 8001cf6:	69d9      	ldr	r1, [r3, #28]
 8001cf8:	68bb      	ldr	r3, [r7, #8]
 8001cfa:	691b      	ldr	r3, [r3, #16]
 8001cfc:	021a      	lsls	r2, r3, #8
 8001cfe:	68fb      	ldr	r3, [r7, #12]
 8001d00:	681b      	ldr	r3, [r3, #0]
 8001d02:	430a      	orrs	r2, r1
 8001d04:	61da      	str	r2, [r3, #28]
      break;
 8001d06:	e002      	b.n	8001d0e <HAL_TIM_PWM_ConfigChannel+0x172>
    }

    default:
      status = HAL_ERROR;
 8001d08:	2301      	movs	r3, #1
 8001d0a:	75fb      	strb	r3, [r7, #23]
      break;
 8001d0c:	bf00      	nop
  }

  __HAL_UNLOCK(htim);
 8001d0e:	68fb      	ldr	r3, [r7, #12]
 8001d10:	2200      	movs	r2, #0
 8001d12:	f883 203c 	strb.w	r2, [r3, #60]	@ 0x3c

  return status;
 8001d16:	7dfb      	ldrb	r3, [r7, #23]
}
 8001d18:	4618      	mov	r0, r3
 8001d1a:	3718      	adds	r7, #24
 8001d1c:	46bd      	mov	sp, r7
 8001d1e:	bd80      	pop	{r7, pc}

08001d20 <HAL_TIM_ConfigClockSource>:
  * @param  sClockSourceConfig pointer to a TIM_ClockConfigTypeDef structure that
  *         contains the clock source information for the TIM peripheral.
  * @retval HAL status
  */
HAL_StatusTypeDef HAL_TIM_ConfigClockSource(TIM_HandleTypeDef *htim, const TIM_ClockConfigTypeDef *sClockSourceConfig)
{
 8001d20:	b580      	push	{r7, lr}
 8001d22:	b084      	sub	sp, #16
 8001d24:	af00      	add	r7, sp, #0
 8001d26:	6078      	str	r0, [r7, #4]
 8001d28:	6039      	str	r1, [r7, #0]
  HAL_StatusTypeDef status = HAL_OK;
 8001d2a:	2300      	movs	r3, #0
 8001d2c:	73fb      	strb	r3, [r7, #15]
  uint32_t tmpsmcr;

  /* Process Locked */
  __HAL_LOCK(htim);
 8001d2e:	687b      	ldr	r3, [r7, #4]
 8001d30:	f893 303c 	ldrb.w	r3, [r3, #60]	@ 0x3c
 8001d34:	2b01      	cmp	r3, #1
 8001d36:	d101      	bne.n	8001d3c <HAL_TIM_ConfigClockSource+0x1c>
 8001d38:	2302      	movs	r3, #2
 8001d3a:	e0b4      	b.n	8001ea6 <HAL_TIM_ConfigClockSource+0x186>
 8001d3c:	687b      	ldr	r3, [r7, #4]
 8001d3e:	2201      	movs	r2, #1
 8001d40:	f883 203c 	strb.w	r2, [r3, #60]	@ 0x3c

  htim->State = HAL_TIM_STATE_BUSY;
 8001d44:	687b      	ldr	r3, [r7, #4]
 8001d46:	2202      	movs	r2, #2
 8001d48:	f883 203d 	strb.w	r2, [r3, #61]	@ 0x3d

  /* Check the parameters */
  assert_param(IS_TIM_CLOCKSOURCE(sClockSourceConfig->ClockSource));

  /* Reset the SMS, TS, ECE, ETPS and ETRF bits */
  tmpsmcr = htim->Instance->SMCR;
 8001d4c:	687b      	ldr	r3, [r7, #4]
 8001d4e:	681b      	ldr	r3, [r3, #0]
 8001d50:	689b      	ldr	r3, [r3, #8]
 8001d52:	60bb      	str	r3, [r7, #8]
  tmpsmcr &= ~(TIM_SMCR_SMS | TIM_SMCR_TS);
 8001d54:	68bb      	ldr	r3, [r7, #8]
 8001d56:	f023 0377 	bic.w	r3, r3, #119	@ 0x77
 8001d5a:	60bb      	str	r3, [r7, #8]
  tmpsmcr &= ~(TIM_SMCR_ETF | TIM_SMCR_ETPS | TIM_SMCR_ECE | TIM_SMCR_ETP);
 8001d5c:	68bb      	ldr	r3, [r7, #8]
 8001d5e:	f423 437f 	bic.w	r3, r3, #65280	@ 0xff00
 8001d62:	60bb      	str	r3, [r7, #8]
  htim->Instance->SMCR = tmpsmcr;
 8001d64:	687b      	ldr	r3, [r7, #4]
 8001d66:	681b      	ldr	r3, [r3, #0]
 8001d68:	68ba      	ldr	r2, [r7, #8]
 8001d6a:	609a      	str	r2, [r3, #8]

  switch (sClockSourceConfig->ClockSource)
 8001d6c:	683b      	ldr	r3, [r7, #0]
 8001d6e:	681b      	ldr	r3, [r3, #0]
 8001d70:	f5b3 5f00 	cmp.w	r3, #8192	@ 0x2000
 8001d74:	d03e      	beq.n	8001df4 <HAL_TIM_ConfigClockSource+0xd4>
 8001d76:	f5b3 5f00 	cmp.w	r3, #8192	@ 0x2000
 8001d7a:	f200 8087 	bhi.w	8001e8c <HAL_TIM_ConfigClockSource+0x16c>
 8001d7e:	f5b3 5f80 	cmp.w	r3, #4096	@ 0x1000
 8001d82:	f000 8086 	beq.w	8001e92 <HAL_TIM_ConfigClockSource+0x172>
 8001d86:	f5b3 5f80 	cmp.w	r3, #4096	@ 0x1000
 8001d8a:	d87f      	bhi.n	8001e8c <HAL_TIM_ConfigClockSource+0x16c>
 8001d8c:	2b70      	cmp	r3, #112	@ 0x70
 8001d8e:	d01a      	beq.n	8001dc6 <HAL_TIM_ConfigClockSource+0xa6>
 8001d90:	2b70      	cmp	r3, #112	@ 0x70
 8001d92:	d87b      	bhi.n	8001e8c <HAL_TIM_ConfigClockSource+0x16c>
 8001d94:	2b60      	cmp	r3, #96	@ 0x60
 8001d96:	d050      	beq.n	8001e3a <HAL_TIM_ConfigClockSource+0x11a>
 8001d98:	2b60      	cmp	r3, #96	@ 0x60
 8001d9a:	d877      	bhi.n	8001e8c <HAL_TIM_ConfigClockSource+0x16c>
 8001d9c:	2b50      	cmp	r3, #80	@ 0x50
 8001d9e:	d03c      	beq.n	8001e1a <HAL_TIM_ConfigClockSource+0xfa>
 8001da0:	2b50      	cmp	r3, #80	@ 0x50
 8001da2:	d873      	bhi.n	8001e8c <HAL_TIM_ConfigClockSource+0x16c>
 8001da4:	2b40      	cmp	r3, #64	@ 0x40
 8001da6:	d058      	beq.n	8001e5a <HAL_TIM_ConfigClockSource+0x13a>
 8001da8:	2b40      	cmp	r3, #64	@ 0x40
 8001daa:	d86f      	bhi.n	8001e8c <HAL_TIM_ConfigClockSource+0x16c>
 8001dac:	2b30      	cmp	r3, #48	@ 0x30
 8001dae:	d064      	beq.n	8001e7a <HAL_TIM_ConfigClockSource+0x15a>
 8001db0:	2b30      	cmp	r3, #48	@ 0x30
 8001db2:	d86b      	bhi.n	8001e8c <HAL_TIM_ConfigClockSource+0x16c>
 8001db4:	2b20      	cmp	r3, #32
 8001db6:	d060      	beq.n	8001e7a <HAL_TIM_ConfigClockSource+0x15a>
 8001db8:	2b20      	cmp	r3, #32
 8001dba:	d867      	bhi.n	8001e8c <HAL_TIM_ConfigClockSource+0x16c>
 8001dbc:	2b00      	cmp	r3, #0
 8001dbe:	d05c      	beq.n	8001e7a <HAL_TIM_ConfigClockSource+0x15a>
 8001dc0:	2b10      	cmp	r3, #16
 8001dc2:	d05a      	beq.n	8001e7a <HAL_TIM_ConfigClockSource+0x15a>
 8001dc4:	e062      	b.n	8001e8c <HAL_TIM_ConfigClockSource+0x16c>
      assert_param(IS_TIM_CLOCKPRESCALER(sClockSourceConfig->ClockPrescaler));
      assert_param(IS_TIM_CLOCKPOLARITY(sClockSourceConfig->ClockPolarity));
      assert_param(IS_TIM_CLOCKFILTER(sClockSourceConfig->ClockFilter));

      /* Configure the ETR Clock source */
      TIM_ETR_SetConfig(htim->Instance,
 8001dc6:	687b      	ldr	r3, [r7, #4]
 8001dc8:	6818      	ldr	r0, [r3, #0]
                        sClockSourceConfig->ClockPrescaler,
 8001dca:	683b      	ldr	r3, [r7, #0]
 8001dcc:	6899      	ldr	r1, [r3, #8]
                        sClockSourceConfig->ClockPolarity,
 8001dce:	683b      	ldr	r3, [r7, #0]
 8001dd0:	685a      	ldr	r2, [r3, #4]
                        sClockSourceConfig->ClockFilter);
 8001dd2:	683b      	ldr	r3, [r7, #0]
 8001dd4:	68db      	ldr	r3, [r3, #12]
      TIM_ETR_SetConfig(htim->Instance,
 8001dd6:	f000 fafd 	bl	80023d4 <TIM_ETR_SetConfig>

      /* Select the External clock mode1 and the ETRF trigger */
      tmpsmcr = htim->Instance->SMCR;
 8001dda:	687b      	ldr	r3, [r7, #4]
 8001ddc:	681b      	ldr	r3, [r3, #0]
 8001dde:	689b      	ldr	r3, [r3, #8]
 8001de0:	60bb      	str	r3, [r7, #8]
      tmpsmcr |= (TIM_SLAVEMODE_EXTERNAL1 | TIM_CLOCKSOURCE_ETRMODE1);
 8001de2:	68bb      	ldr	r3, [r7, #8]
 8001de4:	f043 0377 	orr.w	r3, r3, #119	@ 0x77
 8001de8:	60bb      	str	r3, [r7, #8]
      /* Write to TIMx SMCR */
      htim->Instance->SMCR = tmpsmcr;
 8001dea:	687b      	ldr	r3, [r7, #4]
 8001dec:	681b      	ldr	r3, [r3, #0]
 8001dee:	68ba      	ldr	r2, [r7, #8]
 8001df0:	609a      	str	r2, [r3, #8]
      break;
 8001df2:	e04f      	b.n	8001e94 <HAL_TIM_ConfigClockSource+0x174>
      assert_param(IS_TIM_CLOCKPRESCALER(sClockSourceConfig->ClockPrescaler));
      assert_param(IS_TIM_CLOCKPOLARITY(sClockSourceConfig->ClockPolarity));
      assert_param(IS_TIM_CLOCKFILTER(sClockSourceConfig->ClockFilter));

      /* Configure the ETR Clock source */
      TIM_ETR_SetConfig(htim->Instance,
 8001df4:	687b      	ldr	r3, [r7, #4]
 8001df6:	6818      	ldr	r0, [r3, #0]
                        sClockSourceConfig->ClockPrescaler,
 8001df8:	683b      	ldr	r3, [r7, #0]
 8001dfa:	6899      	ldr	r1, [r3, #8]
                        sClockSourceConfig->ClockPolarity,
 8001dfc:	683b      	ldr	r3, [r7, #0]
 8001dfe:	685a      	ldr	r2, [r3, #4]
                        sClockSourceConfig->ClockFilter);
 8001e00:	683b      	ldr	r3, [r7, #0]
 8001e02:	68db      	ldr	r3, [r3, #12]
      TIM_ETR_SetConfig(htim->Instance,
 8001e04:	f000 fae6 	bl	80023d4 <TIM_ETR_SetConfig>
      /* Enable the External clock mode2 */
      htim->Instance->SMCR |= TIM_SMCR_ECE;
 8001e08:	687b      	ldr	r3, [r7, #4]
 8001e0a:	681b      	ldr	r3, [r3, #0]
 8001e0c:	689a      	ldr	r2, [r3, #8]
 8001e0e:	687b      	ldr	r3, [r7, #4]
 8001e10:	681b      	ldr	r3, [r3, #0]
 8001e12:	f442 4280 	orr.w	r2, r2, #16384	@ 0x4000
 8001e16:	609a      	str	r2, [r3, #8]
      break;
 8001e18:	e03c      	b.n	8001e94 <HAL_TIM_ConfigClockSource+0x174>

      /* Check TI1 input conditioning related parameters */
      assert_param(IS_TIM_CLOCKPOLARITY(sClockSourceConfig->ClockPolarity));
      assert_param(IS_TIM_CLOCKFILTER(sClockSourceConfig->ClockFilter));

      TIM_TI1_ConfigInputStage(htim->Instance,
 8001e1a:	687b      	ldr	r3, [r7, #4]
 8001e1c:	6818      	ldr	r0, [r3, #0]
                               sClockSourceConfig->ClockPolarity,
 8001e1e:	683b      	ldr	r3, [r7, #0]
 8001e20:	6859      	ldr	r1, [r3, #4]
                               sClockSourceConfig->ClockFilter);
 8001e22:	683b      	ldr	r3, [r7, #0]
 8001e24:	68db      	ldr	r3, [r3, #12]
      TIM_TI1_ConfigInputStage(htim->Instance,
 8001e26:	461a      	mov	r2, r3
 8001e28:	f000 fa5a 	bl	80022e0 <TIM_TI1_ConfigInputStage>
      TIM_ITRx_SetConfig(htim->Instance, TIM_CLOCKSOURCE_TI1);
 8001e2c:	687b      	ldr	r3, [r7, #4]
 8001e2e:	681b      	ldr	r3, [r3, #0]
 8001e30:	2150      	movs	r1, #80	@ 0x50
 8001e32:	4618      	mov	r0, r3
 8001e34:	f000 fab3 	bl	800239e <TIM_ITRx_SetConfig>
      break;
 8001e38:	e02c      	b.n	8001e94 <HAL_TIM_ConfigClockSource+0x174>

      /* Check TI2 input conditioning related parameters */
      assert_param(IS_TIM_CLOCKPOLARITY(sClockSourceConfig->ClockPolarity));
      assert_param(IS_TIM_CLOCKFILTER(sClockSourceConfig->ClockFilter));

      TIM_TI2_ConfigInputStage(htim->Instance,
 8001e3a:	687b      	ldr	r3, [r7, #4]
 8001e3c:	6818      	ldr	r0, [r3, #0]
                               sClockSourceConfig->ClockPolarity,
 8001e3e:	683b      	ldr	r3, [r7, #0]
 8001e40:	6859      	ldr	r1, [r3, #4]
                               sClockSourceConfig->ClockFilter);
 8001e42:	683b      	ldr	r3, [r7, #0]
 8001e44:	68db      	ldr	r3, [r3, #12]
      TIM_TI2_ConfigInputStage(htim->Instance,
 8001e46:	461a      	mov	r2, r3
 8001e48:	f000 fa79 	bl	800233e <TIM_TI2_ConfigInputStage>
      TIM_ITRx_SetConfig(htim->Instance, TIM_CLOCKSOURCE_TI2);
 8001e4c:	687b      	ldr	r3, [r7, #4]
 8001e4e:	681b      	ldr	r3, [r3, #0]
 8001e50:	2160      	movs	r1, #96	@ 0x60
 8001e52:	4618      	mov	r0, r3
 8001e54:	f000 faa3 	bl	800239e <TIM_ITRx_SetConfig>
      break;
 8001e58:	e01c      	b.n	8001e94 <HAL_TIM_ConfigClockSource+0x174>

      /* Check TI1 input conditioning related parameters */
      assert_param(IS_TIM_CLOCKPOLARITY(sClockSourceConfig->ClockPolarity));
      assert_param(IS_TIM_CLOCKFILTER(sClockSourceConfig->ClockFilter));

      TIM_TI1_ConfigInputStage(htim->Instance,
 8001e5a:	687b      	ldr	r3, [r7, #4]
 8001e5c:	6818      	ldr	r0, [r3, #0]
                               sClockSourceConfig->ClockPolarity,
 8001e5e:	683b      	ldr	r3, [r7, #0]
 8001e60:	6859      	ldr	r1, [r3, #4]
                               sClockSourceConfig->ClockFilter);
 8001e62:	683b      	ldr	r3, [r7, #0]
 8001e64:	68db      	ldr	r3, [r3, #12]
      TIM_TI1_ConfigInputStage(htim->Instance,
 8001e66:	461a      	mov	r2, r3
 8001e68:	f000 fa3a 	bl	80022e0 <TIM_TI1_ConfigInputStage>
      TIM_ITRx_SetConfig(htim->Instance, TIM_CLOCKSOURCE_TI1ED);
 8001e6c:	687b      	ldr	r3, [r7, #4]
 8001e6e:	681b      	ldr	r3, [r3, #0]
 8001e70:	2140      	movs	r1, #64	@ 0x40
 8001e72:	4618      	mov	r0, r3
 8001e74:	f000 fa93 	bl	800239e <TIM_ITRx_SetConfig>
      break;
 8001e78:	e00c      	b.n	8001e94 <HAL_TIM_ConfigClockSource+0x174>
    case TIM_CLOCKSOURCE_ITR3:
    {
      /* Check whether or not the timer instance supports internal trigger input */
      assert_param(IS_TIM_CLOCKSOURCE_ITRX_INSTANCE(htim->Instance));

      TIM_ITRx_SetConfig(htim->Instance, sClockSourceConfig->ClockSource);
 8001e7a:	687b      	ldr	r3, [r7, #4]
 8001e7c:	681a      	ldr	r2, [r3, #0]
 8001e7e:	683b      	ldr	r3, [r7, #0]
 8001e80:	681b      	ldr	r3, [r3, #0]
 8001e82:	4619      	mov	r1, r3
 8001e84:	4610      	mov	r0, r2
 8001e86:	f000 fa8a 	bl	800239e <TIM_ITRx_SetConfig>
      break;
 8001e8a:	e003      	b.n	8001e94 <HAL_TIM_ConfigClockSource+0x174>
    }

    default:
      status = HAL_ERROR;
 8001e8c:	2301      	movs	r3, #1
 8001e8e:	73fb      	strb	r3, [r7, #15]
      break;
 8001e90:	e000      	b.n	8001e94 <HAL_TIM_ConfigClockSource+0x174>
      break;
 8001e92:	bf00      	nop
  }
  htim->State = HAL_TIM_STATE_READY;
 8001e94:	687b      	ldr	r3, [r7, #4]
 8001e96:	2201      	movs	r2, #1
 8001e98:	f883 203d 	strb.w	r2, [r3, #61]	@ 0x3d

  __HAL_UNLOCK(htim);
 8001e9c:	687b      	ldr	r3, [r7, #4]
 8001e9e:	2200      	movs	r2, #0
 8001ea0:	f883 203c 	strb.w	r2, [r3, #60]	@ 0x3c

  return status;
 8001ea4:	7bfb      	ldrb	r3, [r7, #15]
}
 8001ea6:	4618      	mov	r0, r3
 8001ea8:	3710      	adds	r7, #16
 8001eaa:	46bd      	mov	sp, r7
 8001eac:	bd80      	pop	{r7, pc}
	...

08001eb0 <TIM_Base_SetConfig>:
  * @param  TIMx TIM peripheral
  * @param  Structure TIM Base configuration structure
  * @retval None
  */
void TIM_Base_SetConfig(TIM_TypeDef *TIMx, const TIM_Base_InitTypeDef *Structure)
{
 8001eb0:	b480      	push	{r7}
 8001eb2:	b085      	sub	sp, #20
 8001eb4:	af00      	add	r7, sp, #0
 8001eb6:	6078      	str	r0, [r7, #4]
 8001eb8:	6039      	str	r1, [r7, #0]
  uint32_t tmpcr1;
  tmpcr1 = TIMx->CR1;
 8001eba:	687b      	ldr	r3, [r7, #4]
 8001ebc:	681b      	ldr	r3, [r3, #0]
 8001ebe:	60fb      	str	r3, [r7, #12]

  /* Set TIM Time Base Unit parameters ---------------------------------------*/
  if (IS_TIM_COUNTER_MODE_SELECT_INSTANCE(TIMx))
 8001ec0:	687b      	ldr	r3, [r7, #4]
 8001ec2:	4a3a      	ldr	r2, [pc, #232]	@ (8001fac <TIM_Base_SetConfig+0xfc>)
 8001ec4:	4293      	cmp	r3, r2
 8001ec6:	d00f      	beq.n	8001ee8 <TIM_Base_SetConfig+0x38>
 8001ec8:	687b      	ldr	r3, [r7, #4]
 8001eca:	f1b3 4f80 	cmp.w	r3, #1073741824	@ 0x40000000
 8001ece:	d00b      	beq.n	8001ee8 <TIM_Base_SetConfig+0x38>
 8001ed0:	687b      	ldr	r3, [r7, #4]
 8001ed2:	4a37      	ldr	r2, [pc, #220]	@ (8001fb0 <TIM_Base_SetConfig+0x100>)
 8001ed4:	4293      	cmp	r3, r2
 8001ed6:	d007      	beq.n	8001ee8 <TIM_Base_SetConfig+0x38>
 8001ed8:	687b      	ldr	r3, [r7, #4]
 8001eda:	4a36      	ldr	r2, [pc, #216]	@ (8001fb4 <TIM_Base_SetConfig+0x104>)
 8001edc:	4293      	cmp	r3, r2
 8001ede:	d003      	beq.n	8001ee8 <TIM_Base_SetConfig+0x38>
 8001ee0:	687b      	ldr	r3, [r7, #4]
 8001ee2:	4a35      	ldr	r2, [pc, #212]	@ (8001fb8 <TIM_Base_SetConfig+0x108>)
 8001ee4:	4293      	cmp	r3, r2
 8001ee6:	d108      	bne.n	8001efa <TIM_Base_SetConfig+0x4a>
  {
    /* Select the Counter Mode */
    tmpcr1 &= ~(TIM_CR1_DIR | TIM_CR1_CMS);
 8001ee8:	68fb      	ldr	r3, [r7, #12]
 8001eea:	f023 0370 	bic.w	r3, r3, #112	@ 0x70
 8001eee:	60fb      	str	r3, [r7, #12]
    tmpcr1 |= Structure->CounterMode;
 8001ef0:	683b      	ldr	r3, [r7, #0]
 8001ef2:	685b      	ldr	r3, [r3, #4]
 8001ef4:	68fa      	ldr	r2, [r7, #12]
 8001ef6:	4313      	orrs	r3, r2
 8001ef8:	60fb      	str	r3, [r7, #12]
  }

  if (IS_TIM_CLOCK_DIVISION_INSTANCE(TIMx))
 8001efa:	687b      	ldr	r3, [r7, #4]
 8001efc:	4a2b      	ldr	r2, [pc, #172]	@ (8001fac <TIM_Base_SetConfig+0xfc>)
 8001efe:	4293      	cmp	r3, r2
 8001f00:	d01b      	beq.n	8001f3a <TIM_Base_SetConfig+0x8a>
 8001f02:	687b      	ldr	r3, [r7, #4]
 8001f04:	f1b3 4f80 	cmp.w	r3, #1073741824	@ 0x40000000
 8001f08:	d017      	beq.n	8001f3a <TIM_Base_SetConfig+0x8a>
 8001f0a:	687b      	ldr	r3, [r7, #4]
 8001f0c:	4a28      	ldr	r2, [pc, #160]	@ (8001fb0 <TIM_Base_SetConfig+0x100>)
 8001f0e:	4293      	cmp	r3, r2
 8001f10:	d013      	beq.n	8001f3a <TIM_Base_SetConfig+0x8a>
 8001f12:	687b      	ldr	r3, [r7, #4]
 8001f14:	4a27      	ldr	r2, [pc, #156]	@ (8001fb4 <TIM_Base_SetConfig+0x104>)
 8001f16:	4293      	cmp	r3, r2
 8001f18:	d00f      	beq.n	8001f3a <TIM_Base_SetConfig+0x8a>
 8001f1a:	687b      	ldr	r3, [r7, #4]
 8001f1c:	4a26      	ldr	r2, [pc, #152]	@ (8001fb8 <TIM_Base_SetConfig+0x108>)
 8001f1e:	4293      	cmp	r3, r2
 8001f20:	d00b      	beq.n	8001f3a <TIM_Base_SetConfig+0x8a>
 8001f22:	687b      	ldr	r3, [r7, #4]
 8001f24:	4a25      	ldr	r2, [pc, #148]	@ (8001fbc <TIM_Base_SetConfig+0x10c>)
 8001f26:	4293      	cmp	r3, r2
 8001f28:	d007      	beq.n	8001f3a <TIM_Base_SetConfig+0x8a>
 8001f2a:	687b      	ldr	r3, [r7, #4]
 8001f2c:	4a24      	ldr	r2, [pc, #144]	@ (8001fc0 <TIM_Base_SetConfig+0x110>)
 8001f2e:	4293      	cmp	r3, r2
 8001f30:	d003      	beq.n	8001f3a <TIM_Base_SetConfig+0x8a>
 8001f32:	687b      	ldr	r3, [r7, #4]
 8001f34:	4a23      	ldr	r2, [pc, #140]	@ (8001fc4 <TIM_Base_SetConfig+0x114>)
 8001f36:	4293      	cmp	r3, r2
 8001f38:	d108      	bne.n	8001f4c <TIM_Base_SetConfig+0x9c>
  {
    /* Set the clock division */
    tmpcr1 &= ~TIM_CR1_CKD;
 8001f3a:	68fb      	ldr	r3, [r7, #12]
 8001f3c:	f423 7340 	bic.w	r3, r3, #768	@ 0x300
 8001f40:	60fb      	str	r3, [r7, #12]
    tmpcr1 |= (uint32_t)Structure->ClockDivision;
 8001f42:	683b      	ldr	r3, [r7, #0]
 8001f44:	68db      	ldr	r3, [r3, #12]
 8001f46:	68fa      	ldr	r2, [r7, #12]
 8001f48:	4313      	orrs	r3, r2
 8001f4a:	60fb      	str	r3, [r7, #12]
  }

  /* Set the auto-reload preload */
  MODIFY_REG(tmpcr1, TIM_CR1_ARPE, Structure->AutoReloadPreload);
 8001f4c:	68fb      	ldr	r3, [r7, #12]
 8001f4e:	f023 0280 	bic.w	r2, r3, #128	@ 0x80
 8001f52:	683b      	ldr	r3, [r7, #0]
 8001f54:	695b      	ldr	r3, [r3, #20]
 8001f56:	4313      	orrs	r3, r2
 8001f58:	60fb      	str	r3, [r7, #12]

  TIMx->CR1 = tmpcr1;
 8001f5a:	687b      	ldr	r3, [r7, #4]
 8001f5c:	68fa      	ldr	r2, [r7, #12]
 8001f5e:	601a      	str	r2, [r3, #0]

  /* Set the Autoreload value */
  TIMx->ARR = (uint32_t)Structure->Period ;
 8001f60:	683b      	ldr	r3, [r7, #0]
 8001f62:	689a      	ldr	r2, [r3, #8]
 8001f64:	687b      	ldr	r3, [r7, #4]
 8001f66:	62da      	str	r2, [r3, #44]	@ 0x2c

  /* Set the Prescaler value */
  TIMx->PSC = Structure->Prescaler;
 8001f68:	683b      	ldr	r3, [r7, #0]
 8001f6a:	681a      	ldr	r2, [r3, #0]
 8001f6c:	687b      	ldr	r3, [r7, #4]
 8001f6e:	629a      	str	r2, [r3, #40]	@ 0x28

  if (IS_TIM_REPETITION_COUNTER_INSTANCE(TIMx))
 8001f70:	687b      	ldr	r3, [r7, #4]
 8001f72:	4a0e      	ldr	r2, [pc, #56]	@ (8001fac <TIM_Base_SetConfig+0xfc>)
 8001f74:	4293      	cmp	r3, r2
 8001f76:	d103      	bne.n	8001f80 <TIM_Base_SetConfig+0xd0>
  {
    /* Set the Repetition Counter value */
    TIMx->RCR = Structure->RepetitionCounter;
 8001f78:	683b      	ldr	r3, [r7, #0]
 8001f7a:	691a      	ldr	r2, [r3, #16]
 8001f7c:	687b      	ldr	r3, [r7, #4]
 8001f7e:	631a      	str	r2, [r3, #48]	@ 0x30
  }

  /* Generate an update event to reload the Prescaler
     and the repetition counter (only for advanced timer) value immediately */
  TIMx->EGR = TIM_EGR_UG;
 8001f80:	687b      	ldr	r3, [r7, #4]
 8001f82:	2201      	movs	r2, #1
 8001f84:	615a      	str	r2, [r3, #20]

  /* Check if the update flag is set after the Update Generation, if so clear the UIF flag */
  if (HAL_IS_BIT_SET(TIMx->SR, TIM_FLAG_UPDATE))
 8001f86:	687b      	ldr	r3, [r7, #4]
 8001f88:	691b      	ldr	r3, [r3, #16]
 8001f8a:	f003 0301 	and.w	r3, r3, #1
 8001f8e:	2b01      	cmp	r3, #1
 8001f90:	d105      	bne.n	8001f9e <TIM_Base_SetConfig+0xee>
  {
    /* Clear the update flag */
    CLEAR_BIT(TIMx->SR, TIM_FLAG_UPDATE);
 8001f92:	687b      	ldr	r3, [r7, #4]
 8001f94:	691b      	ldr	r3, [r3, #16]
 8001f96:	f023 0201 	bic.w	r2, r3, #1
 8001f9a:	687b      	ldr	r3, [r7, #4]
 8001f9c:	611a      	str	r2, [r3, #16]
  }
}
 8001f9e:	bf00      	nop
 8001fa0:	3714      	adds	r7, #20
 8001fa2:	46bd      	mov	sp, r7
 8001fa4:	f85d 7b04 	ldr.w	r7, [sp], #4
 8001fa8:	4770      	bx	lr
 8001faa:	bf00      	nop
 8001fac:	40010000 	.word	0x40010000
 8001fb0:	40000400 	.word	0x40000400
 8001fb4:	40000800 	.word	0x40000800
 8001fb8:	40000c00 	.word	0x40000c00
 8001fbc:	40014000 	.word	0x40014000
 8001fc0:	40014400 	.word	0x40014400
 8001fc4:	40014800 	.word	0x40014800

08001fc8 <TIM_OC1_SetConfig>:
  * @param  TIMx to select the TIM peripheral
  * @param  OC_Config The output configuration structure
  * @retval None
  */
static void TIM_OC1_SetConfig(TIM_TypeDef *TIMx, const TIM_OC_InitTypeDef *OC_Config)
{
 8001fc8:	b480      	push	{r7}
 8001fca:	b087      	sub	sp, #28
 8001fcc:	af00      	add	r7, sp, #0
 8001fce:	6078      	str	r0, [r7, #4]
 8001fd0:	6039      	str	r1, [r7, #0]
  uint32_t tmpccmrx;
  uint32_t tmpccer;
  uint32_t tmpcr2;

  /* Get the TIMx CCER register value */
  tmpccer = TIMx->CCER;
 8001fd2:	687b      	ldr	r3, [r7, #4]
 8001fd4:	6a1b      	ldr	r3, [r3, #32]
 8001fd6:	617b      	str	r3, [r7, #20]

  /* Disable the Channel 1: Reset the CC1E Bit */
  TIMx->CCER &= ~TIM_CCER_CC1E;
 8001fd8:	687b      	ldr	r3, [r7, #4]
 8001fda:	6a1b      	ldr	r3, [r3, #32]
 8001fdc:	f023 0201 	bic.w	r2, r3, #1
 8001fe0:	687b      	ldr	r3, [r7, #4]
 8001fe2:	621a      	str	r2, [r3, #32]

  /* Get the TIMx CR2 register value */
  tmpcr2 =  TIMx->CR2;
 8001fe4:	687b      	ldr	r3, [r7, #4]
 8001fe6:	685b      	ldr	r3, [r3, #4]
 8001fe8:	613b      	str	r3, [r7, #16]

  /* Get the TIMx CCMR1 register value */
  tmpccmrx = TIMx->CCMR1;
 8001fea:	687b      	ldr	r3, [r7, #4]
 8001fec:	699b      	ldr	r3, [r3, #24]
 8001fee:	60fb      	str	r3, [r7, #12]

  /* Reset the Output Compare Mode Bits */
  tmpccmrx &= ~TIM_CCMR1_OC1M;
 8001ff0:	68fb      	ldr	r3, [r7, #12]
 8001ff2:	f023 0370 	bic.w	r3, r3, #112	@ 0x70
 8001ff6:	60fb      	str	r3, [r7, #12]
  tmpccmrx &= ~TIM_CCMR1_CC1S;
 8001ff8:	68fb      	ldr	r3, [r7, #12]
 8001ffa:	f023 0303 	bic.w	r3, r3, #3
 8001ffe:	60fb      	str	r3, [r7, #12]
  /* Select the Output Compare Mode */
  tmpccmrx |= OC_Config->OCMode;
 8002000:	683b      	ldr	r3, [r7, #0]
 8002002:	681b      	ldr	r3, [r3, #0]
 8002004:	68fa      	ldr	r2, [r7, #12]
 8002006:	4313      	orrs	r3, r2
 8002008:	60fb      	str	r3, [r7, #12]

  /* Reset the Output Polarity level */
  tmpccer &= ~TIM_CCER_CC1P;
 800200a:	697b      	ldr	r3, [r7, #20]
 800200c:	f023 0302 	bic.w	r3, r3, #2
 8002010:	617b      	str	r3, [r7, #20]
  /* Set the Output Compare Polarity */
  tmpccer |= OC_Config->OCPolarity;
 8002012:	683b      	ldr	r3, [r7, #0]
 8002014:	689b      	ldr	r3, [r3, #8]
 8002016:	697a      	ldr	r2, [r7, #20]
 8002018:	4313      	orrs	r3, r2
 800201a:	617b      	str	r3, [r7, #20]

  if (IS_TIM_CCXN_INSTANCE(TIMx, TIM_CHANNEL_1))
 800201c:	687b      	ldr	r3, [r7, #4]
 800201e:	4a1c      	ldr	r2, [pc, #112]	@ (8002090 <TIM_OC1_SetConfig+0xc8>)
 8002020:	4293      	cmp	r3, r2
 8002022:	d10c      	bne.n	800203e <TIM_OC1_SetConfig+0x76>
  {
    /* Check parameters */
    assert_param(IS_TIM_OCN_POLARITY(OC_Config->OCNPolarity));

    /* Reset the Output N Polarity level */
    tmpccer &= ~TIM_CCER_CC1NP;
 8002024:	697b      	ldr	r3, [r7, #20]
 8002026:	f023 0308 	bic.w	r3, r3, #8
 800202a:	617b      	str	r3, [r7, #20]
    /* Set the Output N Polarity */
    tmpccer |= OC_Config->OCNPolarity;
 800202c:	683b      	ldr	r3, [r7, #0]
 800202e:	68db      	ldr	r3, [r3, #12]
 8002030:	697a      	ldr	r2, [r7, #20]
 8002032:	4313      	orrs	r3, r2
 8002034:	617b      	str	r3, [r7, #20]
    /* Reset the Output N State */
    tmpccer &= ~TIM_CCER_CC1NE;
 8002036:	697b      	ldr	r3, [r7, #20]
 8002038:	f023 0304 	bic.w	r3, r3, #4
 800203c:	617b      	str	r3, [r7, #20]
  }

  if (IS_TIM_BREAK_INSTANCE(TIMx))
 800203e:	687b      	ldr	r3, [r7, #4]
 8002040:	4a13      	ldr	r2, [pc, #76]	@ (8002090 <TIM_OC1_SetConfig+0xc8>)
 8002042:	4293      	cmp	r3, r2
 8002044:	d111      	bne.n	800206a <TIM_OC1_SetConfig+0xa2>
    /* Check parameters */
    assert_param(IS_TIM_OCNIDLE_STATE(OC_Config->OCNIdleState));
    assert_param(IS_TIM_OCIDLE_STATE(OC_Config->OCIdleState));

    /* Reset the Output Compare and Output Compare N IDLE State */
    tmpcr2 &= ~TIM_CR2_OIS1;
 8002046:	693b      	ldr	r3, [r7, #16]
 8002048:	f423 7380 	bic.w	r3, r3, #256	@ 0x100
 800204c:	613b      	str	r3, [r7, #16]
    tmpcr2 &= ~TIM_CR2_OIS1N;
 800204e:	693b      	ldr	r3, [r7, #16]
 8002050:	f423 7300 	bic.w	r3, r3, #512	@ 0x200
 8002054:	613b      	str	r3, [r7, #16]
    /* Set the Output Idle state */
    tmpcr2 |= OC_Config->OCIdleState;
 8002056:	683b      	ldr	r3, [r7, #0]
 8002058:	695b      	ldr	r3, [r3, #20]
 800205a:	693a      	ldr	r2, [r7, #16]
 800205c:	4313      	orrs	r3, r2
 800205e:	613b      	str	r3, [r7, #16]
    /* Set the Output N Idle state */
    tmpcr2 |= OC_Config->OCNIdleState;
 8002060:	683b      	ldr	r3, [r7, #0]
 8002062:	699b      	ldr	r3, [r3, #24]
 8002064:	693a      	ldr	r2, [r7, #16]
 8002066:	4313      	orrs	r3, r2
 8002068:	613b      	str	r3, [r7, #16]
  }

  /* Write to TIMx CR2 */
  TIMx->CR2 = tmpcr2;
 800206a:	687b      	ldr	r3, [r7, #4]
 800206c:	693a      	ldr	r2, [r7, #16]
 800206e:	605a      	str	r2, [r3, #4]

  /* Write to TIMx CCMR1 */
  TIMx->CCMR1 = tmpccmrx;
 8002070:	687b      	ldr	r3, [r7, #4]
 8002072:	68fa      	ldr	r2, [r7, #12]
 8002074:	619a      	str	r2, [r3, #24]

  /* Set the Capture Compare Register value */
  TIMx->CCR1 = OC_Config->Pulse;
 8002076:	683b      	ldr	r3, [r7, #0]
 8002078:	685a      	ldr	r2, [r3, #4]
 800207a:	687b      	ldr	r3, [r7, #4]
 800207c:	635a      	str	r2, [r3, #52]	@ 0x34

  /* Write to TIMx CCER */
  TIMx->CCER = tmpccer;
 800207e:	687b      	ldr	r3, [r7, #4]
 8002080:	697a      	ldr	r2, [r7, #20]
 8002082:	621a      	str	r2, [r3, #32]
}
 8002084:	bf00      	nop
 8002086:	371c      	adds	r7, #28
 8002088:	46bd      	mov	sp, r7
 800208a:	f85d 7b04 	ldr.w	r7, [sp], #4
 800208e:	4770      	bx	lr
 8002090:	40010000 	.word	0x40010000

08002094 <TIM_OC2_SetConfig>:
  * @param  TIMx to select the TIM peripheral
  * @param  OC_Config The output configuration structure
  * @retval None
  */
void TIM_OC2_SetConfig(TIM_TypeDef *TIMx, const TIM_OC_InitTypeDef *OC_Config)
{
 8002094:	b480      	push	{r7}
 8002096:	b087      	sub	sp, #28
 8002098:	af00      	add	r7, sp, #0
 800209a:	6078      	str	r0, [r7, #4]
 800209c:	6039      	str	r1, [r7, #0]
  uint32_t tmpccmrx;
  uint32_t tmpccer;
  uint32_t tmpcr2;

  /* Get the TIMx CCER register value */
  tmpccer = TIMx->CCER;
 800209e:	687b      	ldr	r3, [r7, #4]
 80020a0:	6a1b      	ldr	r3, [r3, #32]
 80020a2:	617b      	str	r3, [r7, #20]

  /* Disable the Channel 2: Reset the CC2E Bit */
  TIMx->CCER &= ~TIM_CCER_CC2E;
 80020a4:	687b      	ldr	r3, [r7, #4]
 80020a6:	6a1b      	ldr	r3, [r3, #32]
 80020a8:	f023 0210 	bic.w	r2, r3, #16
 80020ac:	687b      	ldr	r3, [r7, #4]
 80020ae:	621a      	str	r2, [r3, #32]

  /* Get the TIMx CR2 register value */
  tmpcr2 =  TIMx->CR2;
 80020b0:	687b      	ldr	r3, [r7, #4]
 80020b2:	685b      	ldr	r3, [r3, #4]
 80020b4:	613b      	str	r3, [r7, #16]

  /* Get the TIMx CCMR1 register value */
  tmpccmrx = TIMx->CCMR1;
 80020b6:	687b      	ldr	r3, [r7, #4]
 80020b8:	699b      	ldr	r3, [r3, #24]
 80020ba:	60fb      	str	r3, [r7, #12]

  /* Reset the Output Compare mode and Capture/Compare selection Bits */
  tmpccmrx &= ~TIM_CCMR1_OC2M;
 80020bc:	68fb      	ldr	r3, [r7, #12]
 80020be:	f423 43e0 	bic.w	r3, r3, #28672	@ 0x7000
 80020c2:	60fb      	str	r3, [r7, #12]
  tmpccmrx &= ~TIM_CCMR1_CC2S;
 80020c4:	68fb      	ldr	r3, [r7, #12]
 80020c6:	f423 7340 	bic.w	r3, r3, #768	@ 0x300
 80020ca:	60fb      	str	r3, [r7, #12]

  /* Select the Output Compare Mode */
  tmpccmrx |= (OC_Config->OCMode << 8U);
 80020cc:	683b      	ldr	r3, [r7, #0]
 80020ce:	681b      	ldr	r3, [r3, #0]
 80020d0:	021b      	lsls	r3, r3, #8
 80020d2:	68fa      	ldr	r2, [r7, #12]
 80020d4:	4313      	orrs	r3, r2
 80020d6:	60fb      	str	r3, [r7, #12]

  /* Reset the Output Polarity level */
  tmpccer &= ~TIM_CCER_CC2P;
 80020d8:	697b      	ldr	r3, [r7, #20]
 80020da:	f023 0320 	bic.w	r3, r3, #32
 80020de:	617b      	str	r3, [r7, #20]
  /* Set the Output Compare Polarity */
  tmpccer |= (OC_Config->OCPolarity << 4U);
 80020e0:	683b      	ldr	r3, [r7, #0]
 80020e2:	689b      	ldr	r3, [r3, #8]
 80020e4:	011b      	lsls	r3, r3, #4
 80020e6:	697a      	ldr	r2, [r7, #20]
 80020e8:	4313      	orrs	r3, r2
 80020ea:	617b      	str	r3, [r7, #20]

  if (IS_TIM_CCXN_INSTANCE(TIMx, TIM_CHANNEL_2))
 80020ec:	687b      	ldr	r3, [r7, #4]
 80020ee:	4a1e      	ldr	r2, [pc, #120]	@ (8002168 <TIM_OC2_SetConfig+0xd4>)
 80020f0:	4293      	cmp	r3, r2
 80020f2:	d10d      	bne.n	8002110 <TIM_OC2_SetConfig+0x7c>
  {
    assert_param(IS_TIM_OCN_POLARITY(OC_Config->OCNPolarity));

    /* Reset the Output N Polarity level */
    tmpccer &= ~TIM_CCER_CC2NP;
 80020f4:	697b      	ldr	r3, [r7, #20]
 80020f6:	f023 0380 	bic.w	r3, r3, #128	@ 0x80
 80020fa:	617b      	str	r3, [r7, #20]
    /* Set the Output N Polarity */
    tmpccer |= (OC_Config->OCNPolarity << 4U);
 80020fc:	683b      	ldr	r3, [r7, #0]
 80020fe:	68db      	ldr	r3, [r3, #12]
 8002100:	011b      	lsls	r3, r3, #4
 8002102:	697a      	ldr	r2, [r7, #20]
 8002104:	4313      	orrs	r3, r2
 8002106:	617b      	str	r3, [r7, #20]
    /* Reset the Output N State */
    tmpccer &= ~TIM_CCER_CC2NE;
 8002108:	697b      	ldr	r3, [r7, #20]
 800210a:	f023 0340 	bic.w	r3, r3, #64	@ 0x40
 800210e:	617b      	str	r3, [r7, #20]
  }

  if (IS_TIM_BREAK_INSTANCE(TIMx))
 8002110:	687b      	ldr	r3, [r7, #4]
 8002112:	4a15      	ldr	r2, [pc, #84]	@ (8002168 <TIM_OC2_SetConfig+0xd4>)
 8002114:	4293      	cmp	r3, r2
 8002116:	d113      	bne.n	8002140 <TIM_OC2_SetConfig+0xac>
    /* Check parameters */
    assert_param(IS_TIM_OCNIDLE_STATE(OC_Config->OCNIdleState));
    assert_param(IS_TIM_OCIDLE_STATE(OC_Config->OCIdleState));

    /* Reset the Output Compare and Output Compare N IDLE State */
    tmpcr2 &= ~TIM_CR2_OIS2;
 8002118:	693b      	ldr	r3, [r7, #16]
 800211a:	f423 6380 	bic.w	r3, r3, #1024	@ 0x400
 800211e:	613b      	str	r3, [r7, #16]
    tmpcr2 &= ~TIM_CR2_OIS2N;
 8002120:	693b      	ldr	r3, [r7, #16]
 8002122:	f423 6300 	bic.w	r3, r3, #2048	@ 0x800
 8002126:	613b      	str	r3, [r7, #16]
    /* Set the Output Idle state */
    tmpcr2 |= (OC_Config->OCIdleState << 2U);
 8002128:	683b      	ldr	r3, [r7, #0]
 800212a:	695b      	ldr	r3, [r3, #20]
 800212c:	009b      	lsls	r3, r3, #2
 800212e:	693a      	ldr	r2, [r7, #16]
 8002130:	4313      	orrs	r3, r2
 8002132:	613b      	str	r3, [r7, #16]
    /* Set the Output N Idle state */
    tmpcr2 |= (OC_Config->OCNIdleState << 2U);
 8002134:	683b      	ldr	r3, [r7, #0]
 8002136:	699b      	ldr	r3, [r3, #24]
 8002138:	009b      	lsls	r3, r3, #2
 800213a:	693a      	ldr	r2, [r7, #16]
 800213c:	4313      	orrs	r3, r2
 800213e:	613b      	str	r3, [r7, #16]
  }

  /* Write to TIMx CR2 */
  TIMx->CR2 = tmpcr2;
 8002140:	687b      	ldr	r3, [r7, #4]
 8002142:	693a      	ldr	r2, [r7, #16]
 8002144:	605a      	str	r2, [r3, #4]

  /* Write to TIMx CCMR1 */
  TIMx->CCMR1 = tmpccmrx;
 8002146:	687b      	ldr	r3, [r7, #4]
 8002148:	68fa      	ldr	r2, [r7, #12]
 800214a:	619a      	str	r2, [r3, #24]

  /* Set the Capture Compare Register value */
  TIMx->CCR2 = OC_Config->Pulse;
 800214c:	683b      	ldr	r3, [r7, #0]
 800214e:	685a      	ldr	r2, [r3, #4]
 8002150:	687b      	ldr	r3, [r7, #4]
 8002152:	639a      	str	r2, [r3, #56]	@ 0x38

  /* Write to TIMx CCER */
  TIMx->CCER = tmpccer;
 8002154:	687b      	ldr	r3, [r7, #4]
 8002156:	697a      	ldr	r2, [r7, #20]
 8002158:	621a      	str	r2, [r3, #32]
}
 800215a:	bf00      	nop
 800215c:	371c      	adds	r7, #28
 800215e:	46bd      	mov	sp, r7
 8002160:	f85d 7b04 	ldr.w	r7, [sp], #4
 8002164:	4770      	bx	lr
 8002166:	bf00      	nop
 8002168:	40010000 	.word	0x40010000

0800216c <TIM_OC3_SetConfig>:
  * @param  TIMx to select the TIM peripheral
  * @param  OC_Config The output configuration structure
  * @retval None
  */
static void TIM_OC3_SetConfig(TIM_TypeDef *TIMx, const TIM_OC_InitTypeDef *OC_Config)
{
 800216c:	b480      	push	{r7}
 800216e:	b087      	sub	sp, #28
 8002170:	af00      	add	r7, sp, #0
 8002172:	6078      	str	r0, [r7, #4]
 8002174:	6039      	str	r1, [r7, #0]
  uint32_t tmpccmrx;
  uint32_t tmpccer;
  uint32_t tmpcr2;

  /* Get the TIMx CCER register value */
  tmpccer = TIMx->CCER;
 8002176:	687b      	ldr	r3, [r7, #4]
 8002178:	6a1b      	ldr	r3, [r3, #32]
 800217a:	617b      	str	r3, [r7, #20]

  /* Disable the Channel 3: Reset the CC2E Bit */
  TIMx->CCER &= ~TIM_CCER_CC3E;
 800217c:	687b      	ldr	r3, [r7, #4]
 800217e:	6a1b      	ldr	r3, [r3, #32]
 8002180:	f423 7280 	bic.w	r2, r3, #256	@ 0x100
 8002184:	687b      	ldr	r3, [r7, #4]
 8002186:	621a      	str	r2, [r3, #32]

  /* Get the TIMx CR2 register value */
  tmpcr2 =  TIMx->CR2;
 8002188:	687b      	ldr	r3, [r7, #4]
 800218a:	685b      	ldr	r3, [r3, #4]
 800218c:	613b      	str	r3, [r7, #16]

  /* Get the TIMx CCMR2 register value */
  tmpccmrx = TIMx->CCMR2;
 800218e:	687b      	ldr	r3, [r7, #4]
 8002190:	69db      	ldr	r3, [r3, #28]
 8002192:	60fb      	str	r3, [r7, #12]

  /* Reset the Output Compare mode and Capture/Compare selection Bits */
  tmpccmrx &= ~TIM_CCMR2_OC3M;
 8002194:	68fb      	ldr	r3, [r7, #12]
 8002196:	f023 0370 	bic.w	r3, r3, #112	@ 0x70
 800219a:	60fb      	str	r3, [r7, #12]
  tmpccmrx &= ~TIM_CCMR2_CC3S;
 800219c:	68fb      	ldr	r3, [r7, #12]
 800219e:	f023 0303 	bic.w	r3, r3, #3
 80021a2:	60fb      	str	r3, [r7, #12]
  /* Select the Output Compare Mode */
  tmpccmrx |= OC_Config->OCMode;
 80021a4:	683b      	ldr	r3, [r7, #0]
 80021a6:	681b      	ldr	r3, [r3, #0]
 80021a8:	68fa      	ldr	r2, [r7, #12]
 80021aa:	4313      	orrs	r3, r2
 80021ac:	60fb      	str	r3, [r7, #12]

  /* Reset the Output Polarity level */
  tmpccer &= ~TIM_CCER_CC3P;
 80021ae:	697b      	ldr	r3, [r7, #20]
 80021b0:	f423 7300 	bic.w	r3, r3, #512	@ 0x200
 80021b4:	617b      	str	r3, [r7, #20]
  /* Set the Output Compare Polarity */
  tmpccer |= (OC_Config->OCPolarity << 8U);
 80021b6:	683b      	ldr	r3, [r7, #0]
 80021b8:	689b      	ldr	r3, [r3, #8]
 80021ba:	021b      	lsls	r3, r3, #8
 80021bc:	697a      	ldr	r2, [r7, #20]
 80021be:	4313      	orrs	r3, r2
 80021c0:	617b      	str	r3, [r7, #20]

  if (IS_TIM_CCXN_INSTANCE(TIMx, TIM_CHANNEL_3))
 80021c2:	687b      	ldr	r3, [r7, #4]
 80021c4:	4a1d      	ldr	r2, [pc, #116]	@ (800223c <TIM_OC3_SetConfig+0xd0>)
 80021c6:	4293      	cmp	r3, r2
 80021c8:	d10d      	bne.n	80021e6 <TIM_OC3_SetConfig+0x7a>
  {
    assert_param(IS_TIM_OCN_POLARITY(OC_Config->OCNPolarity));

    /* Reset the Output N Polarity level */
    tmpccer &= ~TIM_CCER_CC3NP;
 80021ca:	697b      	ldr	r3, [r7, #20]
 80021cc:	f423 6300 	bic.w	r3, r3, #2048	@ 0x800
 80021d0:	617b      	str	r3, [r7, #20]
    /* Set the Output N Polarity */
    tmpccer |= (OC_Config->OCNPolarity << 8U);
 80021d2:	683b      	ldr	r3, [r7, #0]
 80021d4:	68db      	ldr	r3, [r3, #12]
 80021d6:	021b      	lsls	r3, r3, #8
 80021d8:	697a      	ldr	r2, [r7, #20]
 80021da:	4313      	orrs	r3, r2
 80021dc:	617b      	str	r3, [r7, #20]
    /* Reset the Output N State */
    tmpccer &= ~TIM_CCER_CC3NE;
 80021de:	697b      	ldr	r3, [r7, #20]
 80021e0:	f423 6380 	bic.w	r3, r3, #1024	@ 0x400
 80021e4:	617b      	str	r3, [r7, #20]
  }

  if (IS_TIM_BREAK_INSTANCE(TIMx))
 80021e6:	687b      	ldr	r3, [r7, #4]
 80021e8:	4a14      	ldr	r2, [pc, #80]	@ (800223c <TIM_OC3_SetConfig+0xd0>)
 80021ea:	4293      	cmp	r3, r2
 80021ec:	d113      	bne.n	8002216 <TIM_OC3_SetConfig+0xaa>
    /* Check parameters */
    assert_param(IS_TIM_OCNIDLE_STATE(OC_Config->OCNIdleState));
    assert_param(IS_TIM_OCIDLE_STATE(OC_Config->OCIdleState));

    /* Reset the Output Compare and Output Compare N IDLE State */
    tmpcr2 &= ~TIM_CR2_OIS3;
 80021ee:	693b      	ldr	r3, [r7, #16]
 80021f0:	f423 5380 	bic.w	r3, r3, #4096	@ 0x1000
 80021f4:	613b      	str	r3, [r7, #16]
    tmpcr2 &= ~TIM_CR2_OIS3N;
 80021f6:	693b      	ldr	r3, [r7, #16]
 80021f8:	f423 5300 	bic.w	r3, r3, #8192	@ 0x2000
 80021fc:	613b      	str	r3, [r7, #16]
    /* Set the Output Idle state */
    tmpcr2 |= (OC_Config->OCIdleState << 4U);
 80021fe:	683b      	ldr	r3, [r7, #0]
 8002200:	695b      	ldr	r3, [r3, #20]
 8002202:	011b      	lsls	r3, r3, #4
 8002204:	693a      	ldr	r2, [r7, #16]
 8002206:	4313      	orrs	r3, r2
 8002208:	613b      	str	r3, [r7, #16]
    /* Set the Output N Idle state */
    tmpcr2 |= (OC_Config->OCNIdleState << 4U);
 800220a:	683b      	ldr	r3, [r7, #0]
 800220c:	699b      	ldr	r3, [r3, #24]
 800220e:	011b      	lsls	r3, r3, #4
 8002210:	693a      	ldr	r2, [r7, #16]
 8002212:	4313      	orrs	r3, r2
 8002214:	613b      	str	r3, [r7, #16]
  }

  /* Write to TIMx CR2 */
  TIMx->CR2 = tmpcr2;
 8002216:	687b      	ldr	r3, [r7, #4]
 8002218:	693a      	ldr	r2, [r7, #16]
 800221a:	605a      	str	r2, [r3, #4]

  /* Write to TIMx CCMR2 */
  TIMx->CCMR2 = tmpccmrx;
 800221c:	687b      	ldr	r3, [r7, #4]
 800221e:	68fa      	ldr	r2, [r7, #12]
 8002220:	61da      	str	r2, [r3, #28]

  /* Set the Capture Compare Register value */
  TIMx->CCR3 = OC_Config->Pulse;
 8002222:	683b      	ldr	r3, [r7, #0]
 8002224:	685a      	ldr	r2, [r3, #4]
 8002226:	687b      	ldr	r3, [r7, #4]
 8002228:	63da      	str	r2, [r3, #60]	@ 0x3c

  /* Write to TIMx CCER */
  TIMx->CCER = tmpccer;
 800222a:	687b      	ldr	r3, [r7, #4]
 800222c:	697a      	ldr	r2, [r7, #20]
 800222e:	621a      	str	r2, [r3, #32]
}
 8002230:	bf00      	nop
 8002232:	371c      	adds	r7, #28
 8002234:	46bd      	mov	sp, r7
 8002236:	f85d 7b04 	ldr.w	r7, [sp], #4
 800223a:	4770      	bx	lr
 800223c:	40010000 	.word	0x40010000

08002240 <TIM_OC4_SetConfig>:
  * @param  TIMx to select the TIM peripheral
  * @param  OC_Config The output configuration structure
  * @retval None
  */
static void TIM_OC4_SetConfig(TIM_TypeDef *TIMx, const TIM_OC_InitTypeDef *OC_Config)
{
 8002240:	b480      	push	{r7}
 8002242:	b087      	sub	sp, #28
 8002244:	af00      	add	r7, sp, #0
 8002246:	6078      	str	r0, [r7, #4]
 8002248:	6039      	str	r1, [r7, #0]
  uint32_t tmpccmrx;
  uint32_t tmpccer;
  uint32_t tmpcr2;

  /* Get the TIMx CCER register value */
  tmpccer = TIMx->CCER;
 800224a:	687b      	ldr	r3, [r7, #4]
 800224c:	6a1b      	ldr	r3, [r3, #32]
 800224e:	613b      	str	r3, [r7, #16]

  /* Disable the Channel 4: Reset the CC4E Bit */
  TIMx->CCER &= ~TIM_CCER_CC4E;
 8002250:	687b      	ldr	r3, [r7, #4]
 8002252:	6a1b      	ldr	r3, [r3, #32]
 8002254:	f423 5280 	bic.w	r2, r3, #4096	@ 0x1000
 8002258:	687b      	ldr	r3, [r7, #4]
 800225a:	621a      	str	r2, [r3, #32]

  /* Get the TIMx CR2 register value */
  tmpcr2 =  TIMx->CR2;
 800225c:	687b      	ldr	r3, [r7, #4]
 800225e:	685b      	ldr	r3, [r3, #4]
 8002260:	617b      	str	r3, [r7, #20]

  /* Get the TIMx CCMR2 register value */
  tmpccmrx = TIMx->CCMR2;
 8002262:	687b      	ldr	r3, [r7, #4]
 8002264:	69db      	ldr	r3, [r3, #28]
 8002266:	60fb      	str	r3, [r7, #12]

  /* Reset the Output Compare mode and Capture/Compare selection Bits */
  tmpccmrx &= ~TIM_CCMR2_OC4M;
 8002268:	68fb      	ldr	r3, [r7, #12]
 800226a:	f423 43e0 	bic.w	r3, r3, #28672	@ 0x7000
 800226e:	60fb      	str	r3, [r7, #12]
  tmpccmrx &= ~TIM_CCMR2_CC4S;
 8002270:	68fb      	ldr	r3, [r7, #12]
 8002272:	f423 7340 	bic.w	r3, r3, #768	@ 0x300
 8002276:	60fb      	str	r3, [r7, #12]

  /* Select the Output Compare Mode */
  tmpccmrx |= (OC_Config->OCMode << 8U);
 8002278:	683b      	ldr	r3, [r7, #0]
 800227a:	681b      	ldr	r3, [r3, #0]
 800227c:	021b      	lsls	r3, r3, #8
 800227e:	68fa      	ldr	r2, [r7, #12]
 8002280:	4313      	orrs	r3, r2
 8002282:	60fb      	str	r3, [r7, #12]

  /* Reset the Output Polarity level */
  tmpccer &= ~TIM_CCER_CC4P;
 8002284:	693b      	ldr	r3, [r7, #16]
 8002286:	f423 5300 	bic.w	r3, r3, #8192	@ 0x2000
 800228a:	613b      	str	r3, [r7, #16]
  /* Set the Output Compare Polarity */
  tmpccer |= (OC_Config->OCPolarity << 12U);
 800228c:	683b      	ldr	r3, [r7, #0]
 800228e:	689b      	ldr	r3, [r3, #8]
 8002290:	031b      	lsls	r3, r3, #12
 8002292:	693a      	ldr	r2, [r7, #16]
 8002294:	4313      	orrs	r3, r2
 8002296:	613b      	str	r3, [r7, #16]

  if (IS_TIM_BREAK_INSTANCE(TIMx))
 8002298:	687b      	ldr	r3, [r7, #4]
 800229a:	4a10      	ldr	r2, [pc, #64]	@ (80022dc <TIM_OC4_SetConfig+0x9c>)
 800229c:	4293      	cmp	r3, r2
 800229e:	d109      	bne.n	80022b4 <TIM_OC4_SetConfig+0x74>
  {
    /* Check parameters */
    assert_param(IS_TIM_OCIDLE_STATE(OC_Config->OCIdleState));

    /* Reset the Output Compare IDLE State */
    tmpcr2 &= ~TIM_CR2_OIS4;
 80022a0:	697b      	ldr	r3, [r7, #20]
 80022a2:	f423 4380 	bic.w	r3, r3, #16384	@ 0x4000
 80022a6:	617b      	str	r3, [r7, #20]

    /* Set the Output Idle state */
    tmpcr2 |= (OC_Config->OCIdleState << 6U);
 80022a8:	683b      	ldr	r3, [r7, #0]
 80022aa:	695b      	ldr	r3, [r3, #20]
 80022ac:	019b      	lsls	r3, r3, #6
 80022ae:	697a      	ldr	r2, [r7, #20]
 80022b0:	4313      	orrs	r3, r2
 80022b2:	617b      	str	r3, [r7, #20]
  }

  /* Write to TIMx CR2 */
  TIMx->CR2 = tmpcr2;
 80022b4:	687b      	ldr	r3, [r7, #4]
 80022b6:	697a      	ldr	r2, [r7, #20]
 80022b8:	605a      	str	r2, [r3, #4]

  /* Write to TIMx CCMR2 */
  TIMx->CCMR2 = tmpccmrx;
 80022ba:	687b      	ldr	r3, [r7, #4]
 80022bc:	68fa      	ldr	r2, [r7, #12]
 80022be:	61da      	str	r2, [r3, #28]

  /* Set the Capture Compare Register value */
  TIMx->CCR4 = OC_Config->Pulse;
 80022c0:	683b      	ldr	r3, [r7, #0]
 80022c2:	685a      	ldr	r2, [r3, #4]
 80022c4:	687b      	ldr	r3, [r7, #4]
 80022c6:	641a      	str	r2, [r3, #64]	@ 0x40

  /* Write to TIMx CCER */
  TIMx->CCER = tmpccer;
 80022c8:	687b      	ldr	r3, [r7, #4]
 80022ca:	693a      	ldr	r2, [r7, #16]
 80022cc:	621a      	str	r2, [r3, #32]
}
 80022ce:	bf00      	nop
 80022d0:	371c      	adds	r7, #28
 80022d2:	46bd      	mov	sp, r7
 80022d4:	f85d 7b04 	ldr.w	r7, [sp], #4
 80022d8:	4770      	bx	lr
 80022da:	bf00      	nop
 80022dc:	40010000 	.word	0x40010000

080022e0 <TIM_TI1_ConfigInputStage>:
  * @param  TIM_ICFilter Specifies the Input Capture Filter.
  *          This parameter must be a value between 0x00 and 0x0F.
  * @retval None
  */
static void TIM_TI1_ConfigInputStage(TIM_TypeDef *TIMx, uint32_t TIM_ICPolarity, uint32_t TIM_ICFilter)
{
 80022e0:	b480      	push	{r7}
 80022e2:	b087      	sub	sp, #28
 80022e4:	af00      	add	r7, sp, #0
 80022e6:	60f8      	str	r0, [r7, #12]
 80022e8:	60b9      	str	r1, [r7, #8]
 80022ea:	607a      	str	r2, [r7, #4]
  uint32_t tmpccmr1;
  uint32_t tmpccer;

  /* Disable the Channel 1: Reset the CC1E Bit */
  tmpccer = TIMx->CCER;
 80022ec:	68fb      	ldr	r3, [r7, #12]
 80022ee:	6a1b      	ldr	r3, [r3, #32]
 80022f0:	617b      	str	r3, [r7, #20]
  TIMx->CCER &= ~TIM_CCER_CC1E;
 80022f2:	68fb      	ldr	r3, [r7, #12]
 80022f4:	6a1b      	ldr	r3, [r3, #32]
 80022f6:	f023 0201 	bic.w	r2, r3, #1
 80022fa:	68fb      	ldr	r3, [r7, #12]
 80022fc:	621a      	str	r2, [r3, #32]
  tmpccmr1 = TIMx->CCMR1;
 80022fe:	68fb      	ldr	r3, [r7, #12]
 8002300:	699b      	ldr	r3, [r3, #24]
 8002302:	613b      	str	r3, [r7, #16]

  /* Set the filter */
  tmpccmr1 &= ~TIM_CCMR1_IC1F;
 8002304:	693b      	ldr	r3, [r7, #16]
 8002306:	f023 03f0 	bic.w	r3, r3, #240	@ 0xf0
 800230a:	613b      	str	r3, [r7, #16]
  tmpccmr1 |= (TIM_ICFilter << 4U);
 800230c:	687b      	ldr	r3, [r7, #4]
 800230e:	011b      	lsls	r3, r3, #4
 8002310:	693a      	ldr	r2, [r7, #16]
 8002312:	4313      	orrs	r3, r2
 8002314:	613b      	str	r3, [r7, #16]

  /* Select the Polarity and set the CC1E Bit */
  tmpccer &= ~(TIM_CCER_CC1P | TIM_CCER_CC1NP);
 8002316:	697b      	ldr	r3, [r7, #20]
 8002318:	f023 030a 	bic.w	r3, r3, #10
 800231c:	617b      	str	r3, [r7, #20]
  tmpccer |= TIM_ICPolarity;
 800231e:	697a      	ldr	r2, [r7, #20]
 8002320:	68bb      	ldr	r3, [r7, #8]
 8002322:	4313      	orrs	r3, r2
 8002324:	617b      	str	r3, [r7, #20]

  /* Write to TIMx CCMR1 and CCER registers */
  TIMx->CCMR1 = tmpccmr1;
 8002326:	68fb      	ldr	r3, [r7, #12]
 8002328:	693a      	ldr	r2, [r7, #16]
 800232a:	619a      	str	r2, [r3, #24]
  TIMx->CCER = tmpccer;
 800232c:	68fb      	ldr	r3, [r7, #12]
 800232e:	697a      	ldr	r2, [r7, #20]
 8002330:	621a      	str	r2, [r3, #32]
}
 8002332:	bf00      	nop
 8002334:	371c      	adds	r7, #28
 8002336:	46bd      	mov	sp, r7
 8002338:	f85d 7b04 	ldr.w	r7, [sp], #4
 800233c:	4770      	bx	lr

0800233e <TIM_TI2_ConfigInputStage>:
  * @param  TIM_ICFilter Specifies the Input Capture Filter.
  *          This parameter must be a value between 0x00 and 0x0F.
  * @retval None
  */
static void TIM_TI2_ConfigInputStage(TIM_TypeDef *TIMx, uint32_t TIM_ICPolarity, uint32_t TIM_ICFilter)
{
 800233e:	b480      	push	{r7}
 8002340:	b087      	sub	sp, #28
 8002342:	af00      	add	r7, sp, #0
 8002344:	60f8      	str	r0, [r7, #12]
 8002346:	60b9      	str	r1, [r7, #8]
 8002348:	607a      	str	r2, [r7, #4]
  uint32_t tmpccmr1;
  uint32_t tmpccer;

  /* Disable the Channel 2: Reset the CC2E Bit */
  tmpccer = TIMx->CCER;
 800234a:	68fb      	ldr	r3, [r7, #12]
 800234c:	6a1b      	ldr	r3, [r3, #32]
 800234e:	617b      	str	r3, [r7, #20]
  TIMx->CCER &= ~TIM_CCER_CC2E;
 8002350:	68fb      	ldr	r3, [r7, #12]
 8002352:	6a1b      	ldr	r3, [r3, #32]
 8002354:	f023 0210 	bic.w	r2, r3, #16
 8002358:	68fb      	ldr	r3, [r7, #12]
 800235a:	621a      	str	r2, [r3, #32]
  tmpccmr1 = TIMx->CCMR1;
 800235c:	68fb      	ldr	r3, [r7, #12]
 800235e:	699b      	ldr	r3, [r3, #24]
 8002360:	613b      	str	r3, [r7, #16]

  /* Set the filter */
  tmpccmr1 &= ~TIM_CCMR1_IC2F;
 8002362:	693b      	ldr	r3, [r7, #16]
 8002364:	f423 4370 	bic.w	r3, r3, #61440	@ 0xf000
 8002368:	613b      	str	r3, [r7, #16]
  tmpccmr1 |= (TIM_ICFilter << 12U);
 800236a:	687b      	ldr	r3, [r7, #4]
 800236c:	031b      	lsls	r3, r3, #12
 800236e:	693a      	ldr	r2, [r7, #16]
 8002370:	4313      	orrs	r3, r2
 8002372:	613b      	str	r3, [r7, #16]

  /* Select the Polarity and set the CC2E Bit */
  tmpccer &= ~(TIM_CCER_CC2P | TIM_CCER_CC2NP);
 8002374:	697b      	ldr	r3, [r7, #20]
 8002376:	f023 03a0 	bic.w	r3, r3, #160	@ 0xa0
 800237a:	617b      	str	r3, [r7, #20]
  tmpccer |= (TIM_ICPolarity << 4U);
 800237c:	68bb      	ldr	r3, [r7, #8]
 800237e:	011b      	lsls	r3, r3, #4
 8002380:	697a      	ldr	r2, [r7, #20]
 8002382:	4313      	orrs	r3, r2
 8002384:	617b      	str	r3, [r7, #20]

  /* Write to TIMx CCMR1 and CCER registers */
  TIMx->CCMR1 = tmpccmr1 ;
 8002386:	68fb      	ldr	r3, [r7, #12]
 8002388:	693a      	ldr	r2, [r7, #16]
 800238a:	619a      	str	r2, [r3, #24]
  TIMx->CCER = tmpccer;
 800238c:	68fb      	ldr	r3, [r7, #12]
 800238e:	697a      	ldr	r2, [r7, #20]
 8002390:	621a      	str	r2, [r3, #32]
}
 8002392:	bf00      	nop
 8002394:	371c      	adds	r7, #28
 8002396:	46bd      	mov	sp, r7
 8002398:	f85d 7b04 	ldr.w	r7, [sp], #4
 800239c:	4770      	bx	lr

0800239e <TIM_ITRx_SetConfig>:
  *            @arg TIM_TS_TI2FP2: Filtered Timer Input 2
  *            @arg TIM_TS_ETRF: External Trigger input
  * @retval None
  */
static void TIM_ITRx_SetConfig(TIM_TypeDef *TIMx, uint32_t InputTriggerSource)
{
 800239e:	b480      	push	{r7}
 80023a0:	b085      	sub	sp, #20
 80023a2:	af00      	add	r7, sp, #0
 80023a4:	6078      	str	r0, [r7, #4]
 80023a6:	6039      	str	r1, [r7, #0]
  uint32_t tmpsmcr;

  /* Get the TIMx SMCR register value */
  tmpsmcr = TIMx->SMCR;
 80023a8:	687b      	ldr	r3, [r7, #4]
 80023aa:	689b      	ldr	r3, [r3, #8]
 80023ac:	60fb      	str	r3, [r7, #12]
  /* Reset the TS Bits */
  tmpsmcr &= ~TIM_SMCR_TS;
 80023ae:	68fb      	ldr	r3, [r7, #12]
 80023b0:	f023 0370 	bic.w	r3, r3, #112	@ 0x70
 80023b4:	60fb      	str	r3, [r7, #12]
  /* Set the Input Trigger source and the slave mode*/
  tmpsmcr |= (InputTriggerSource | TIM_SLAVEMODE_EXTERNAL1);
 80023b6:	683a      	ldr	r2, [r7, #0]
 80023b8:	68fb      	ldr	r3, [r7, #12]
 80023ba:	4313      	orrs	r3, r2
 80023bc:	f043 0307 	orr.w	r3, r3, #7
 80023c0:	60fb      	str	r3, [r7, #12]
  /* Write to TIMx SMCR */
  TIMx->SMCR = tmpsmcr;
 80023c2:	687b      	ldr	r3, [r7, #4]
 80023c4:	68fa      	ldr	r2, [r7, #12]
 80023c6:	609a      	str	r2, [r3, #8]
}
 80023c8:	bf00      	nop
 80023ca:	3714      	adds	r7, #20
 80023cc:	46bd      	mov	sp, r7
 80023ce:	f85d 7b04 	ldr.w	r7, [sp], #4
 80023d2:	4770      	bx	lr

080023d4 <TIM_ETR_SetConfig>:
  *          This parameter must be a value between 0x00 and 0x0F
  * @retval None
  */
void TIM_ETR_SetConfig(TIM_TypeDef *TIMx, uint32_t TIM_ExtTRGPrescaler,
                       uint32_t TIM_ExtTRGPolarity, uint32_t ExtTRGFilter)
{
 80023d4:	b480      	push	{r7}
 80023d6:	b087      	sub	sp, #28
 80023d8:	af00      	add	r7, sp, #0
 80023da:	60f8      	str	r0, [r7, #12]
 80023dc:	60b9      	str	r1, [r7, #8]
 80023de:	607a      	str	r2, [r7, #4]
 80023e0:	603b      	str	r3, [r7, #0]
  uint32_t tmpsmcr;

  tmpsmcr = TIMx->SMCR;
 80023e2:	68fb      	ldr	r3, [r7, #12]
 80023e4:	689b      	ldr	r3, [r3, #8]
 80023e6:	617b      	str	r3, [r7, #20]

  /* Reset the ETR Bits */
  tmpsmcr &= ~(TIM_SMCR_ETF | TIM_SMCR_ETPS | TIM_SMCR_ECE | TIM_SMCR_ETP);
 80023e8:	697b      	ldr	r3, [r7, #20]
 80023ea:	f423 437f 	bic.w	r3, r3, #65280	@ 0xff00
 80023ee:	617b      	str	r3, [r7, #20]

  /* Set the Prescaler, the Filter value and the Polarity */
  tmpsmcr |= (uint32_t)(TIM_ExtTRGPrescaler | (TIM_ExtTRGPolarity | (ExtTRGFilter << 8U)));
 80023f0:	683b      	ldr	r3, [r7, #0]
 80023f2:	021a      	lsls	r2, r3, #8
 80023f4:	687b      	ldr	r3, [r7, #4]
 80023f6:	431a      	orrs	r2, r3
 80023f8:	68bb      	ldr	r3, [r7, #8]
 80023fa:	4313      	orrs	r3, r2
 80023fc:	697a      	ldr	r2, [r7, #20]
 80023fe:	4313      	orrs	r3, r2
 8002400:	617b      	str	r3, [r7, #20]

  /* Write to TIMx SMCR */
  TIMx->SMCR = tmpsmcr;
 8002402:	68fb      	ldr	r3, [r7, #12]
 8002404:	697a      	ldr	r2, [r7, #20]
 8002406:	609a      	str	r2, [r3, #8]
}
 8002408:	bf00      	nop
 800240a:	371c      	adds	r7, #28
 800240c:	46bd      	mov	sp, r7
 800240e:	f85d 7b04 	ldr.w	r7, [sp], #4
 8002412:	4770      	bx	lr

08002414 <TIM_CCxChannelCmd>:
  * @param  ChannelState specifies the TIM Channel CCxE bit new state.
  *          This parameter can be: TIM_CCx_ENABLE or TIM_CCx_DISABLE.
  * @retval None
  */
void TIM_CCxChannelCmd(TIM_TypeDef *TIMx, uint32_t Channel, uint32_t ChannelState)
{
 8002414:	b480      	push	{r7}
 8002416:	b087      	sub	sp, #28
 8002418:	af00      	add	r7, sp, #0
 800241a:	60f8      	str	r0, [r7, #12]
 800241c:	60b9      	str	r1, [r7, #8]
 800241e:	607a      	str	r2, [r7, #4]

  /* Check the parameters */
  assert_param(IS_TIM_CC1_INSTANCE(TIMx));
  assert_param(IS_TIM_CHANNELS(Channel));

  tmp = TIM_CCER_CC1E << (Channel & 0x1FU); /* 0x1FU = 31 bits max shift */
 8002420:	68bb      	ldr	r3, [r7, #8]
 8002422:	f003 031f 	and.w	r3, r3, #31
 8002426:	2201      	movs	r2, #1
 8002428:	fa02 f303 	lsl.w	r3, r2, r3
 800242c:	617b      	str	r3, [r7, #20]

  /* Reset the CCxE Bit */
  TIMx->CCER &= ~tmp;
 800242e:	68fb      	ldr	r3, [r7, #12]
 8002430:	6a1a      	ldr	r2, [r3, #32]
 8002432:	697b      	ldr	r3, [r7, #20]
 8002434:	43db      	mvns	r3, r3
 8002436:	401a      	ands	r2, r3
 8002438:	68fb      	ldr	r3, [r7, #12]
 800243a:	621a      	str	r2, [r3, #32]

  /* Set or reset the CCxE Bit */
  TIMx->CCER |= (uint32_t)(ChannelState << (Channel & 0x1FU)); /* 0x1FU = 31 bits max shift */
 800243c:	68fb      	ldr	r3, [r7, #12]
 800243e:	6a1a      	ldr	r2, [r3, #32]
 8002440:	68bb      	ldr	r3, [r7, #8]
 8002442:	f003 031f 	and.w	r3, r3, #31
 8002446:	6879      	ldr	r1, [r7, #4]
 8002448:	fa01 f303 	lsl.w	r3, r1, r3
 800244c:	431a      	orrs	r2, r3
 800244e:	68fb      	ldr	r3, [r7, #12]
 8002450:	621a      	str	r2, [r3, #32]
}
 8002452:	bf00      	nop
 8002454:	371c      	adds	r7, #28
 8002456:	46bd      	mov	sp, r7
 8002458:	f85d 7b04 	ldr.w	r7, [sp], #4
 800245c:	4770      	bx	lr
	...

08002460 <HAL_TIMEx_MasterConfigSynchronization>:
  *         mode.
  * @retval HAL status
  */
HAL_StatusTypeDef HAL_TIMEx_MasterConfigSynchronization(TIM_HandleTypeDef *htim,
                                                        const TIM_MasterConfigTypeDef *sMasterConfig)
{
 8002460:	b480      	push	{r7}
 8002462:	b085      	sub	sp, #20
 8002464:	af00      	add	r7, sp, #0
 8002466:	6078      	str	r0, [r7, #4]
 8002468:	6039      	str	r1, [r7, #0]
  assert_param(IS_TIM_MASTER_INSTANCE(htim->Instance));
  assert_param(IS_TIM_TRGO_SOURCE(sMasterConfig->MasterOutputTrigger));
  assert_param(IS_TIM_MSM_STATE(sMasterConfig->MasterSlaveMode));

  /* Check input state */
  __HAL_LOCK(htim);
 800246a:	687b      	ldr	r3, [r7, #4]
 800246c:	f893 303c 	ldrb.w	r3, [r3, #60]	@ 0x3c
 8002470:	2b01      	cmp	r3, #1
 8002472:	d101      	bne.n	8002478 <HAL_TIMEx_MasterConfigSynchronization+0x18>
 8002474:	2302      	movs	r3, #2
 8002476:	e050      	b.n	800251a <HAL_TIMEx_MasterConfigSynchronization+0xba>
 8002478:	687b      	ldr	r3, [r7, #4]
 800247a:	2201      	movs	r2, #1
 800247c:	f883 203c 	strb.w	r2, [r3, #60]	@ 0x3c

  /* Change the handler state */
  htim->State = HAL_TIM_STATE_BUSY;
 8002480:	687b      	ldr	r3, [r7, #4]
 8002482:	2202      	movs	r2, #2
 8002484:	f883 203d 	strb.w	r2, [r3, #61]	@ 0x3d

  /* Get the TIMx CR2 register value */
  tmpcr2 = htim->Instance->CR2;
 8002488:	687b      	ldr	r3, [r7, #4]
 800248a:	681b      	ldr	r3, [r3, #0]
 800248c:	685b      	ldr	r3, [r3, #4]
 800248e:	60fb      	str	r3, [r7, #12]

  /* Get the TIMx SMCR register value */
  tmpsmcr = htim->Instance->SMCR;
 8002490:	687b      	ldr	r3, [r7, #4]
 8002492:	681b      	ldr	r3, [r3, #0]
 8002494:	689b      	ldr	r3, [r3, #8]
 8002496:	60bb      	str	r3, [r7, #8]

  /* Reset the MMS Bits */
  tmpcr2 &= ~TIM_CR2_MMS;
 8002498:	68fb      	ldr	r3, [r7, #12]
 800249a:	f023 0370 	bic.w	r3, r3, #112	@ 0x70
 800249e:	60fb      	str	r3, [r7, #12]
  /* Select the TRGO source */
  tmpcr2 |=  sMasterConfig->MasterOutputTrigger;
 80024a0:	683b      	ldr	r3, [r7, #0]
 80024a2:	681b      	ldr	r3, [r3, #0]
 80024a4:	68fa      	ldr	r2, [r7, #12]
 80024a6:	4313      	orrs	r3, r2
 80024a8:	60fb      	str	r3, [r7, #12]

  /* Update TIMx CR2 */
  htim->Instance->CR2 = tmpcr2;
 80024aa:	687b      	ldr	r3, [r7, #4]
 80024ac:	681b      	ldr	r3, [r3, #0]
 80024ae:	68fa      	ldr	r2, [r7, #12]
 80024b0:	605a      	str	r2, [r3, #4]

  if (IS_TIM_SLAVE_INSTANCE(htim->Instance))
 80024b2:	687b      	ldr	r3, [r7, #4]
 80024b4:	681b      	ldr	r3, [r3, #0]
 80024b6:	4a1c      	ldr	r2, [pc, #112]	@ (8002528 <HAL_TIMEx_MasterConfigSynchronization+0xc8>)
 80024b8:	4293      	cmp	r3, r2
 80024ba:	d018      	beq.n	80024ee <HAL_TIMEx_MasterConfigSynchronization+0x8e>
 80024bc:	687b      	ldr	r3, [r7, #4]
 80024be:	681b      	ldr	r3, [r3, #0]
 80024c0:	f1b3 4f80 	cmp.w	r3, #1073741824	@ 0x40000000
 80024c4:	d013      	beq.n	80024ee <HAL_TIMEx_MasterConfigSynchronization+0x8e>
 80024c6:	687b      	ldr	r3, [r7, #4]
 80024c8:	681b      	ldr	r3, [r3, #0]
 80024ca:	4a18      	ldr	r2, [pc, #96]	@ (800252c <HAL_TIMEx_MasterConfigSynchronization+0xcc>)
 80024cc:	4293      	cmp	r3, r2
 80024ce:	d00e      	beq.n	80024ee <HAL_TIMEx_MasterConfigSynchronization+0x8e>
 80024d0:	687b      	ldr	r3, [r7, #4]
 80024d2:	681b      	ldr	r3, [r3, #0]
 80024d4:	4a16      	ldr	r2, [pc, #88]	@ (8002530 <HAL_TIMEx_MasterConfigSynchronization+0xd0>)
 80024d6:	4293      	cmp	r3, r2
 80024d8:	d009      	beq.n	80024ee <HAL_TIMEx_MasterConfigSynchronization+0x8e>
 80024da:	687b      	ldr	r3, [r7, #4]
 80024dc:	681b      	ldr	r3, [r3, #0]
 80024de:	4a15      	ldr	r2, [pc, #84]	@ (8002534 <HAL_TIMEx_MasterConfigSynchronization+0xd4>)
 80024e0:	4293      	cmp	r3, r2
 80024e2:	d004      	beq.n	80024ee <HAL_TIMEx_MasterConfigSynchronization+0x8e>
 80024e4:	687b      	ldr	r3, [r7, #4]
 80024e6:	681b      	ldr	r3, [r3, #0]
 80024e8:	4a13      	ldr	r2, [pc, #76]	@ (8002538 <HAL_TIMEx_MasterConfigSynchronization+0xd8>)
 80024ea:	4293      	cmp	r3, r2
 80024ec:	d10c      	bne.n	8002508 <HAL_TIMEx_MasterConfigSynchronization+0xa8>
  {
    /* Reset the MSM Bit */
    tmpsmcr &= ~TIM_SMCR_MSM;
 80024ee:	68bb      	ldr	r3, [r7, #8]
 80024f0:	f023 0380 	bic.w	r3, r3, #128	@ 0x80
 80024f4:	60bb      	str	r3, [r7, #8]
    /* Set master mode */
    tmpsmcr |= sMasterConfig->MasterSlaveMode;
 80024f6:	683b      	ldr	r3, [r7, #0]
 80024f8:	685b      	ldr	r3, [r3, #4]
 80024fa:	68ba      	ldr	r2, [r7, #8]
 80024fc:	4313      	orrs	r3, r2
 80024fe:	60bb      	str	r3, [r7, #8]

    /* Update TIMx SMCR */
    htim->Instance->SMCR = tmpsmcr;
 8002500:	687b      	ldr	r3, [r7, #4]
 8002502:	681b      	ldr	r3, [r3, #0]
 8002504:	68ba      	ldr	r2, [r7, #8]
 8002506:	609a      	str	r2, [r3, #8]
  }

  /* Change the htim state */
  htim->State = HAL_TIM_STATE_READY;
 8002508:	687b      	ldr	r3, [r7, #4]
 800250a:	2201      	movs	r2, #1
 800250c:	f883 203d 	strb.w	r2, [r3, #61]	@ 0x3d

  __HAL_UNLOCK(htim);
 8002510:	687b      	ldr	r3, [r7, #4]
 8002512:	2200      	movs	r2, #0
 8002514:	f883 203c 	strb.w	r2, [r3, #60]	@ 0x3c

  return HAL_OK;
 8002518:	2300      	movs	r3, #0
}
 800251a:	4618      	mov	r0, r3
 800251c:	3714      	adds	r7, #20
 800251e:	46bd      	mov	sp, r7
 8002520:	f85d 7b04 	ldr.w	r7, [sp], #4
 8002524:	4770      	bx	lr
 8002526:	bf00      	nop
 8002528:	40010000 	.word	0x40010000
 800252c:	40000400 	.word	0x40000400
 8002530:	40000800 	.word	0x40000800
 8002534:	40000c00 	.word	0x40000c00
 8002538:	40014000 	.word	0x40014000

0800253c <memset>:
 800253c:	4402      	add	r2, r0
 800253e:	4603      	mov	r3, r0
 8002540:	4293      	cmp	r3, r2
 8002542:	d100      	bne.n	8002546 <memset+0xa>
 8002544:	4770      	bx	lr
 8002546:	f803 1b01 	strb.w	r1, [r3], #1
 800254a:	e7f9      	b.n	8002540 <memset+0x4>

0800254c <__libc_init_array>:
 800254c:	b570      	push	{r4, r5, r6, lr}
 800254e:	4d0d      	ldr	r5, [pc, #52]	@ (8002584 <__libc_init_array+0x38>)
 8002550:	4c0d      	ldr	r4, [pc, #52]	@ (8002588 <__libc_init_array+0x3c>)
 8002552:	1b64      	subs	r4, r4, r5
 8002554:	10a4      	asrs	r4, r4, #2
 8002556:	2600      	movs	r6, #0
 8002558:	42a6      	cmp	r6, r4
 800255a:	d109      	bne.n	8002570 <__libc_init_array+0x24>
 800255c:	4d0b      	ldr	r5, [pc, #44]	@ (800258c <__libc_init_array+0x40>)
 800255e:	4c0c      	ldr	r4, [pc, #48]	@ (8002590 <__libc_init_array+0x44>)
 8002560:	f000 f818 	bl	8002594 <_init>
 8002564:	1b64      	subs	r4, r4, r5
 8002566:	10a4      	asrs	r4, r4, #2
 8002568:	2600      	movs	r6, #0
 800256a:	42a6      	cmp	r6, r4
 800256c:	d105      	bne.n	800257a <__libc_init_array+0x2e>
 800256e:	bd70      	pop	{r4, r5, r6, pc}
 8002570:	f855 3b04 	ldr.w	r3, [r5], #4
 8002574:	4798      	blx	r3
 8002576:	3601      	adds	r6, #1
 8002578:	e7ee      	b.n	8002558 <__libc_init_array+0xc>
 800257a:	f855 3b04 	ldr.w	r3, [r5], #4
 800257e:	4798      	blx	r3
 8002580:	3601      	adds	r6, #1
 8002582:	e7f2      	b.n	800256a <__libc_init_array+0x1e>
 8002584:	080025c4 	.word	0x080025c4
 8002588:	080025c4 	.word	0x080025c4
 800258c:	080025c4 	.word	0x080025c4
 8002590:	080025c8 	.word	0x080025c8

08002594 <_init>:
 8002594:	b5f8      	push	{r3, r4, r5, r6, r7, lr}
 8002596:	bf00      	nop
 8002598:	bcf8      	pop	{r3, r4, r5, r6, r7}
 800259a:	bc08      	pop	{r3}
 800259c:	469e      	mov	lr, r3
 800259e:	4770      	bx	lr

080025a0 <_fini>:
 80025a0:	b5f8      	push	{r3, r4, r5, r6, r7, lr}
 80025a2:	bf00      	nop
 80025a4:	bcf8      	pop	{r3, r4, r5, r6, r7}
 80025a6:	bc08      	pop	{r3}
 80025a8:	469e      	mov	lr, r3
 80025aa:	4770      	bx	lr
