
hackhathon.elf:     file format elf32-littlearm

Sections:
Idx Name          Size      VMA       LMA       File off  Algn
  0 .isr_vector   00000198  08000000  08000000  00001000  2**0
                  CONTENTS, ALLOC, LOAD, READONLY, DATA
  1 .text         000030e8  08000198  08000198  00001198  2**2
                  CONTENTS, ALLOC, LOAD, READONLY, CODE
  2 .rodata       00000018  08003280  08003280  00004280  2**2
                  CONTENTS, ALLOC, LOAD, READONLY, DATA
  3 .ARM.extab    00000000  08003298  08003298  0000500c  2**0
                  CONTENTS
  4 .ARM          00000008  08003298  08003298  00004298  2**2
                  CONTENTS, ALLOC, LOAD, READONLY, DATA
  5 .preinit_array 00000000  080032a0  080032a0  0000500c  2**0
                  CONTENTS, ALLOC, LOAD, DATA
  6 .init_array   00000004  080032a0  080032a0  000042a0  2**2
                  CONTENTS, ALLOC, LOAD, READONLY, DATA
  7 .fini_array   00000004  080032a4  080032a4  000042a4  2**2
                  CONTENTS, ALLOC, LOAD, READONLY, DATA
  8 .data         0000000c  20000000  080032a8  00005000  2**2
                  CONTENTS, ALLOC, LOAD, DATA
  9 .bss          000001a4  2000000c  080032b4  0000500c  2**2
                  ALLOC
 10 ._user_heap_stack 00000600  200001b0  080032b4  000051b0  2**0
                  ALLOC
 11 .ARM.attributes 00000030  00000000  00000000  0000500c  2**0
                  CONTENTS, READONLY
 12 .debug_info   0000ece6  00000000  00000000  0000503c  2**0
                  CONTENTS, READONLY, DEBUGGING, OCTETS
 13 .debug_abbrev 00001cdd  00000000  00000000  00013d22  2**0
                  CONTENTS, READONLY, DEBUGGING, OCTETS
 14 .debug_aranges 00000e80  00000000  00000000  00015a00  2**3
                  CONTENTS, READONLY, DEBUGGING, OCTETS
 15 .debug_rnglists 00000b8d  00000000  00000000  00016880  2**0
                  CONTENTS, READONLY, DEBUGGING, OCTETS
 16 .debug_macro  00001949  00000000  00000000  0001740d  2**0
                  CONTENTS, READONLY, DEBUGGING, OCTETS
 17 .debug_line   000112b6  00000000  00000000  00018d56  2**0
                  CONTENTS, READONLY, DEBUGGING, OCTETS
 18 .debug_str    0008d66a  00000000  00000000  0002a00c  2**0
                  CONTENTS, READONLY, DEBUGGING, OCTETS
 19 .comment      00000043  00000000  00000000  000b7676  2**0
                  CONTENTS, READONLY
 20 .debug_frame  00003eb8  00000000  00000000  000b76bc  2**2
                  CONTENTS, READONLY, DEBUGGING, OCTETS
 21 .debug_line_str 00000067  00000000  00000000  000bb574  2**0
                  CONTENTS, READONLY, DEBUGGING, OCTETS

Disassembly of section .text:

08000198 <__do_global_dtors_aux>:
 8000198:	b510      	push	{r4, lr}
 800019a:	4c05      	ldr	r4, [pc, #20]	@ (80001b0 <__do_global_dtors_aux+0x18>)
 800019c:	7823      	ldrb	r3, [r4, #0]
 800019e:	b933      	cbnz	r3, 80001ae <__do_global_dtors_aux+0x16>
 80001a0:	4b04      	ldr	r3, [pc, #16]	@ (80001b4 <__do_global_dtors_aux+0x1c>)
 80001a2:	b113      	cbz	r3, 80001aa <__do_global_dtors_aux+0x12>
 80001a4:	4804      	ldr	r0, [pc, #16]	@ (80001b8 <__do_global_dtors_aux+0x20>)
 80001a6:	f3af 8000 	nop.w
 80001aa:	2301      	movs	r3, #1
 80001ac:	7023      	strb	r3, [r4, #0]
 80001ae:	bd10      	pop	{r4, pc}
 80001b0:	2000000c 	.word	0x2000000c
 80001b4:	00000000 	.word	0x00000000
 80001b8:	08003268 	.word	0x08003268

080001bc <frame_dummy>:
 80001bc:	b508      	push	{r3, lr}
 80001be:	4b03      	ldr	r3, [pc, #12]	@ (80001cc <frame_dummy+0x10>)
 80001c0:	b11b      	cbz	r3, 80001ca <frame_dummy+0xe>
 80001c2:	4903      	ldr	r1, [pc, #12]	@ (80001d0 <frame_dummy+0x14>)
 80001c4:	4803      	ldr	r0, [pc, #12]	@ (80001d4 <frame_dummy+0x18>)
 80001c6:	f3af 8000 	nop.w
 80001ca:	bd08      	pop	{r3, pc}
 80001cc:	00000000 	.word	0x00000000
 80001d0:	20000010 	.word	0x20000010
 80001d4:	08003268 	.word	0x08003268

080001d8 <__aeabi_uldivmod>:
 80001d8:	b953      	cbnz	r3, 80001f0 <__aeabi_uldivmod+0x18>
 80001da:	b94a      	cbnz	r2, 80001f0 <__aeabi_uldivmod+0x18>
 80001dc:	2900      	cmp	r1, #0
 80001de:	bf08      	it	eq
 80001e0:	2800      	cmpeq	r0, #0
 80001e2:	bf1c      	itt	ne
 80001e4:	f04f 31ff 	movne.w	r1, #4294967295
 80001e8:	f04f 30ff 	movne.w	r0, #4294967295
 80001ec:	f000 b96a 	b.w	80004c4 <__aeabi_idiv0>
 80001f0:	f1ad 0c08 	sub.w	ip, sp, #8
 80001f4:	e96d ce04 	strd	ip, lr, [sp, #-16]!
 80001f8:	f000 f806 	bl	8000208 <__udivmoddi4>
 80001fc:	f8dd e004 	ldr.w	lr, [sp, #4]
 8000200:	e9dd 2302 	ldrd	r2, r3, [sp, #8]
 8000204:	b004      	add	sp, #16
 8000206:	4770      	bx	lr

08000208 <__udivmoddi4>:
 8000208:	e92d 47f0 	stmdb	sp!, {r4, r5, r6, r7, r8, r9, sl, lr}
 800020c:	9d08      	ldr	r5, [sp, #32]
 800020e:	460c      	mov	r4, r1
 8000210:	2b00      	cmp	r3, #0
 8000212:	d14e      	bne.n	80002b2 <__udivmoddi4+0xaa>
 8000214:	4694      	mov	ip, r2
 8000216:	458c      	cmp	ip, r1
 8000218:	4686      	mov	lr, r0
 800021a:	fab2 f282 	clz	r2, r2
 800021e:	d962      	bls.n	80002e6 <__udivmoddi4+0xde>
 8000220:	b14a      	cbz	r2, 8000236 <__udivmoddi4+0x2e>
 8000222:	f1c2 0320 	rsb	r3, r2, #32
 8000226:	4091      	lsls	r1, r2
 8000228:	fa20 f303 	lsr.w	r3, r0, r3
 800022c:	fa0c fc02 	lsl.w	ip, ip, r2
 8000230:	4319      	orrs	r1, r3
 8000232:	fa00 fe02 	lsl.w	lr, r0, r2
 8000236:	ea4f 471c 	mov.w	r7, ip, lsr #16
 800023a:	fa1f f68c 	uxth.w	r6, ip
 800023e:	fbb1 f4f7 	udiv	r4, r1, r7
 8000242:	ea4f 431e 	mov.w	r3, lr, lsr #16
 8000246:	fb07 1114 	mls	r1, r7, r4, r1
 800024a:	ea43 4301 	orr.w	r3, r3, r1, lsl #16
 800024e:	fb04 f106 	mul.w	r1, r4, r6
 8000252:	4299      	cmp	r1, r3
 8000254:	d90a      	bls.n	800026c <__udivmoddi4+0x64>
 8000256:	eb1c 0303 	adds.w	r3, ip, r3
 800025a:	f104 30ff 	add.w	r0, r4, #4294967295
 800025e:	f080 8112 	bcs.w	8000486 <__udivmoddi4+0x27e>
 8000262:	4299      	cmp	r1, r3
 8000264:	f240 810f 	bls.w	8000486 <__udivmoddi4+0x27e>
 8000268:	3c02      	subs	r4, #2
 800026a:	4463      	add	r3, ip
 800026c:	1a59      	subs	r1, r3, r1
 800026e:	fa1f f38e 	uxth.w	r3, lr
 8000272:	fbb1 f0f7 	udiv	r0, r1, r7
 8000276:	fb07 1110 	mls	r1, r7, r0, r1
 800027a:	ea43 4301 	orr.w	r3, r3, r1, lsl #16
 800027e:	fb00 f606 	mul.w	r6, r0, r6
 8000282:	429e      	cmp	r6, r3
 8000284:	d90a      	bls.n	800029c <__udivmoddi4+0x94>
 8000286:	eb1c 0303 	adds.w	r3, ip, r3
 800028a:	f100 31ff 	add.w	r1, r0, #4294967295
 800028e:	f080 80fc 	bcs.w	800048a <__udivmoddi4+0x282>
 8000292:	429e      	cmp	r6, r3
 8000294:	f240 80f9 	bls.w	800048a <__udivmoddi4+0x282>
 8000298:	4463      	add	r3, ip
 800029a:	3802      	subs	r0, #2
 800029c:	1b9b      	subs	r3, r3, r6
 800029e:	ea40 4004 	orr.w	r0, r0, r4, lsl #16
 80002a2:	2100      	movs	r1, #0
 80002a4:	b11d      	cbz	r5, 80002ae <__udivmoddi4+0xa6>
 80002a6:	40d3      	lsrs	r3, r2
 80002a8:	2200      	movs	r2, #0
 80002aa:	e9c5 3200 	strd	r3, r2, [r5]
 80002ae:	e8bd 87f0 	ldmia.w	sp!, {r4, r5, r6, r7, r8, r9, sl, pc}
 80002b2:	428b      	cmp	r3, r1
 80002b4:	d905      	bls.n	80002c2 <__udivmoddi4+0xba>
 80002b6:	b10d      	cbz	r5, 80002bc <__udivmoddi4+0xb4>
 80002b8:	e9c5 0100 	strd	r0, r1, [r5]
 80002bc:	2100      	movs	r1, #0
 80002be:	4608      	mov	r0, r1
 80002c0:	e7f5      	b.n	80002ae <__udivmoddi4+0xa6>
 80002c2:	fab3 f183 	clz	r1, r3
 80002c6:	2900      	cmp	r1, #0
 80002c8:	d146      	bne.n	8000358 <__udivmoddi4+0x150>
 80002ca:	42a3      	cmp	r3, r4
 80002cc:	d302      	bcc.n	80002d4 <__udivmoddi4+0xcc>
 80002ce:	4290      	cmp	r0, r2
 80002d0:	f0c0 80f0 	bcc.w	80004b4 <__udivmoddi4+0x2ac>
 80002d4:	1a86      	subs	r6, r0, r2
 80002d6:	eb64 0303 	sbc.w	r3, r4, r3
 80002da:	2001      	movs	r0, #1
 80002dc:	2d00      	cmp	r5, #0
 80002de:	d0e6      	beq.n	80002ae <__udivmoddi4+0xa6>
 80002e0:	e9c5 6300 	strd	r6, r3, [r5]
 80002e4:	e7e3      	b.n	80002ae <__udivmoddi4+0xa6>
 80002e6:	2a00      	cmp	r2, #0
 80002e8:	f040 8090 	bne.w	800040c <__udivmoddi4+0x204>
 80002ec:	eba1 040c 	sub.w	r4, r1, ip
 80002f0:	ea4f 481c 	mov.w	r8, ip, lsr #16
 80002f4:	fa1f f78c 	uxth.w	r7, ip
 80002f8:	2101      	movs	r1, #1
 80002fa:	fbb4 f6f8 	udiv	r6, r4, r8
 80002fe:	ea4f 431e 	mov.w	r3, lr, lsr #16
 8000302:	fb08 4416 	mls	r4, r8, r6, r4
 8000306:	ea43 4304 	orr.w	r3, r3, r4, lsl #16
 800030a:	fb07 f006 	mul.w	r0, r7, r6
 800030e:	4298      	cmp	r0, r3
 8000310:	d908      	bls.n	8000324 <__udivmoddi4+0x11c>
 8000312:	eb1c 0303 	adds.w	r3, ip, r3
 8000316:	f106 34ff 	add.w	r4, r6, #4294967295
 800031a:	d202      	bcs.n	8000322 <__udivmoddi4+0x11a>
 800031c:	4298      	cmp	r0, r3
 800031e:	f200 80cd 	bhi.w	80004bc <__udivmoddi4+0x2b4>
 8000322:	4626      	mov	r6, r4
 8000324:	1a1c      	subs	r4, r3, r0
 8000326:	fa1f f38e 	uxth.w	r3, lr
 800032a:	fbb4 f0f8 	udiv	r0, r4, r8
 800032e:	fb08 4410 	mls	r4, r8, r0, r4
 8000332:	ea43 4304 	orr.w	r3, r3, r4, lsl #16
 8000336:	fb00 f707 	mul.w	r7, r0, r7
 800033a:	429f      	cmp	r7, r3
 800033c:	d908      	bls.n	8000350 <__udivmoddi4+0x148>
 800033e:	eb1c 0303 	adds.w	r3, ip, r3
 8000342:	f100 34ff 	add.w	r4, r0, #4294967295
 8000346:	d202      	bcs.n	800034e <__udivmoddi4+0x146>
 8000348:	429f      	cmp	r7, r3
 800034a:	f200 80b0 	bhi.w	80004ae <__udivmoddi4+0x2a6>
 800034e:	4620      	mov	r0, r4
 8000350:	1bdb      	subs	r3, r3, r7
 8000352:	ea40 4006 	orr.w	r0, r0, r6, lsl #16
 8000356:	e7a5      	b.n	80002a4 <__udivmoddi4+0x9c>
 8000358:	f1c1 0620 	rsb	r6, r1, #32
 800035c:	408b      	lsls	r3, r1
 800035e:	fa22 f706 	lsr.w	r7, r2, r6
 8000362:	431f      	orrs	r7, r3
 8000364:	fa20 fc06 	lsr.w	ip, r0, r6
 8000368:	fa04 f301 	lsl.w	r3, r4, r1
 800036c:	ea43 030c 	orr.w	r3, r3, ip
 8000370:	40f4      	lsrs	r4, r6
 8000372:	fa00 f801 	lsl.w	r8, r0, r1
 8000376:	0c38      	lsrs	r0, r7, #16
 8000378:	ea4f 4913 	mov.w	r9, r3, lsr #16
 800037c:	fbb4 fef0 	udiv	lr, r4, r0
 8000380:	fa1f fc87 	uxth.w	ip, r7
 8000384:	fb00 441e 	mls	r4, r0, lr, r4
 8000388:	ea49 4404 	orr.w	r4, r9, r4, lsl #16
 800038c:	fb0e f90c 	mul.w	r9, lr, ip
 8000390:	45a1      	cmp	r9, r4
 8000392:	fa02 f201 	lsl.w	r2, r2, r1
 8000396:	d90a      	bls.n	80003ae <__udivmoddi4+0x1a6>
 8000398:	193c      	adds	r4, r7, r4
 800039a:	f10e 3aff 	add.w	sl, lr, #4294967295
 800039e:	f080 8084 	bcs.w	80004aa <__udivmoddi4+0x2a2>
 80003a2:	45a1      	cmp	r9, r4
 80003a4:	f240 8081 	bls.w	80004aa <__udivmoddi4+0x2a2>
 80003a8:	f1ae 0e02 	sub.w	lr, lr, #2
 80003ac:	443c      	add	r4, r7
 80003ae:	eba4 0409 	sub.w	r4, r4, r9
 80003b2:	fa1f f983 	uxth.w	r9, r3
 80003b6:	fbb4 f3f0 	udiv	r3, r4, r0
 80003ba:	fb00 4413 	mls	r4, r0, r3, r4
 80003be:	ea49 4404 	orr.w	r4, r9, r4, lsl #16
 80003c2:	fb03 fc0c 	mul.w	ip, r3, ip
 80003c6:	45a4      	cmp	ip, r4
 80003c8:	d907      	bls.n	80003da <__udivmoddi4+0x1d2>
 80003ca:	193c      	adds	r4, r7, r4
 80003cc:	f103 30ff 	add.w	r0, r3, #4294967295
 80003d0:	d267      	bcs.n	80004a2 <__udivmoddi4+0x29a>
 80003d2:	45a4      	cmp	ip, r4
 80003d4:	d965      	bls.n	80004a2 <__udivmoddi4+0x29a>
 80003d6:	3b02      	subs	r3, #2
 80003d8:	443c      	add	r4, r7
 80003da:	ea43 400e 	orr.w	r0, r3, lr, lsl #16
 80003de:	fba0 9302 	umull	r9, r3, r0, r2
 80003e2:	eba4 040c 	sub.w	r4, r4, ip
 80003e6:	429c      	cmp	r4, r3
 80003e8:	46ce      	mov	lr, r9
 80003ea:	469c      	mov	ip, r3
 80003ec:	d351      	bcc.n	8000492 <__udivmoddi4+0x28a>
 80003ee:	d04e      	beq.n	800048e <__udivmoddi4+0x286>
 80003f0:	b155      	cbz	r5, 8000408 <__udivmoddi4+0x200>
 80003f2:	ebb8 030e 	subs.w	r3, r8, lr
 80003f6:	eb64 040c 	sbc.w	r4, r4, ip
 80003fa:	fa04 f606 	lsl.w	r6, r4, r6
 80003fe:	40cb      	lsrs	r3, r1
 8000400:	431e      	orrs	r6, r3
 8000402:	40cc      	lsrs	r4, r1
 8000404:	e9c5 6400 	strd	r6, r4, [r5]
 8000408:	2100      	movs	r1, #0
 800040a:	e750      	b.n	80002ae <__udivmoddi4+0xa6>
 800040c:	f1c2 0320 	rsb	r3, r2, #32
 8000410:	fa20 f103 	lsr.w	r1, r0, r3
 8000414:	fa0c fc02 	lsl.w	ip, ip, r2
 8000418:	fa24 f303 	lsr.w	r3, r4, r3
 800041c:	4094      	lsls	r4, r2
 800041e:	430c      	orrs	r4, r1
 8000420:	ea4f 481c 	mov.w	r8, ip, lsr #16
 8000424:	fa00 fe02 	lsl.w	lr, r0, r2
 8000428:	fa1f f78c 	uxth.w	r7, ip
 800042c:	fbb3 f0f8 	udiv	r0, r3, r8
 8000430:	fb08 3110 	mls	r1, r8, r0, r3
 8000434:	0c23      	lsrs	r3, r4, #16
 8000436:	ea43 4301 	orr.w	r3, r3, r1, lsl #16
 800043a:	fb00 f107 	mul.w	r1, r0, r7
 800043e:	4299      	cmp	r1, r3
 8000440:	d908      	bls.n	8000454 <__udivmoddi4+0x24c>
 8000442:	eb1c 0303 	adds.w	r3, ip, r3
 8000446:	f100 36ff 	add.w	r6, r0, #4294967295
 800044a:	d22c      	bcs.n	80004a6 <__udivmoddi4+0x29e>
 800044c:	4299      	cmp	r1, r3
 800044e:	d92a      	bls.n	80004a6 <__udivmoddi4+0x29e>
 8000450:	3802      	subs	r0, #2
 8000452:	4463      	add	r3, ip
 8000454:	1a5b      	subs	r3, r3, r1
 8000456:	b2a4      	uxth	r4, r4
 8000458:	fbb3 f1f8 	udiv	r1, r3, r8
 800045c:	fb08 3311 	mls	r3, r8, r1, r3
 8000460:	ea44 4403 	orr.w	r4, r4, r3, lsl #16
 8000464:	fb01 f307 	mul.w	r3, r1, r7
 8000468:	42a3      	cmp	r3, r4
 800046a:	d908      	bls.n	800047e <__udivmoddi4+0x276>
 800046c:	eb1c 0404 	adds.w	r4, ip, r4
 8000470:	f101 36ff 	add.w	r6, r1, #4294967295
 8000474:	d213      	bcs.n	800049e <__udivmoddi4+0x296>
 8000476:	42a3      	cmp	r3, r4
 8000478:	d911      	bls.n	800049e <__udivmoddi4+0x296>
 800047a:	3902      	subs	r1, #2
 800047c:	4464      	add	r4, ip
 800047e:	1ae4      	subs	r4, r4, r3
 8000480:	ea41 4100 	orr.w	r1, r1, r0, lsl #16
 8000484:	e739      	b.n	80002fa <__udivmoddi4+0xf2>
 8000486:	4604      	mov	r4, r0
 8000488:	e6f0      	b.n	800026c <__udivmoddi4+0x64>
 800048a:	4608      	mov	r0, r1
 800048c:	e706      	b.n	800029c <__udivmoddi4+0x94>
 800048e:	45c8      	cmp	r8, r9
 8000490:	d2ae      	bcs.n	80003f0 <__udivmoddi4+0x1e8>
 8000492:	ebb9 0e02 	subs.w	lr, r9, r2
 8000496:	eb63 0c07 	sbc.w	ip, r3, r7
 800049a:	3801      	subs	r0, #1
 800049c:	e7a8      	b.n	80003f0 <__udivmoddi4+0x1e8>
 800049e:	4631      	mov	r1, r6
 80004a0:	e7ed      	b.n	800047e <__udivmoddi4+0x276>
 80004a2:	4603      	mov	r3, r0
 80004a4:	e799      	b.n	80003da <__udivmoddi4+0x1d2>
 80004a6:	4630      	mov	r0, r6
 80004a8:	e7d4      	b.n	8000454 <__udivmoddi4+0x24c>
 80004aa:	46d6      	mov	lr, sl
 80004ac:	e77f      	b.n	80003ae <__udivmoddi4+0x1a6>
 80004ae:	4463      	add	r3, ip
 80004b0:	3802      	subs	r0, #2
 80004b2:	e74d      	b.n	8000350 <__udivmoddi4+0x148>
 80004b4:	4606      	mov	r6, r0
 80004b6:	4623      	mov	r3, r4
 80004b8:	4608      	mov	r0, r1
 80004ba:	e70f      	b.n	80002dc <__udivmoddi4+0xd4>
 80004bc:	3e02      	subs	r6, #2
 80004be:	4463      	add	r3, ip
 80004c0:	e730      	b.n	8000324 <__udivmoddi4+0x11c>
 80004c2:	bf00      	nop

080004c4 <__aeabi_idiv0>:
 80004c4:	4770      	bx	lr
 80004c6:	bf00      	nop

080004c8 <main>:
/**
  * @brief  The application entry point.
  * @retval int
  */
int main(void)
{
 80004c8:	b580      	push	{r7, lr}
 80004ca:	b082      	sub	sp, #8
 80004cc:	af00      	add	r7, sp, #0
  /* USER CODE END 1 */

  /* MCU Configuration--------------------------------------------------------*/

  /* Reset of all peripherals, Initializes the Flash interface and the Systick. */
  HAL_Init();
 80004ce:	f000 fc21 	bl	8000d14 <HAL_Init>
  /* USER CODE BEGIN Init */

  /* USER CODE END Init */

  /* Configure the system clock */
  SystemClock_Config();
 80004d2:	f000 f815 	bl	8000500 <SystemClock_Config>
  /* USER CODE BEGIN SysInit */

  /* USER CODE END SysInit */

  /* Initialize all configured peripherals */
  MX_GPIO_Init();
 80004d6:	f000 f9c5 	bl	8000864 <MX_GPIO_Init>
  MX_I2C1_Init();
 80004da:	f000 f879 	bl	80005d0 <MX_I2C1_Init>
  MX_USART2_UART_Init();
 80004de:	f000 f997 	bl	8000810 <MX_USART2_UART_Init>
  MX_TIM2_Init();
 80004e2:	f000 f8d1 	bl	8000688 <MX_TIM2_Init>
  MX_TIM5_Init();
 80004e6:	f000 f91b 	bl	8000720 <MX_TIM5_Init>
  MX_I2C2_Init();
 80004ea:	f000 f89f 	bl	800062c <MX_I2C2_Init>

  /* USER CODE END 2 */

  /* Infinite loop */
  /* USER CODE BEGIN WHILE */
  HAL_TIM_Base_Start_IT(&htim2);
 80004ee:	4803      	ldr	r0, [pc, #12]	@ (80004fc <main+0x34>)
 80004f0:	f001 fd38 	bl	8001f64 <HAL_TIM_Base_Start_IT>
//  //start conversion
//  uint8_t start_conversion_reg = 0b01100111;
//  HAL_I2C_Mem_Write(&hi2c1, ACC_ADDR, LSM303C_CTRL_REG1_A, 1, &start_conversion_reg, 1, HAL_MAX_DELAY);
//  //initialize distance
//  VL6180X_Init(&hi2c2);
  uint8_t tmp=0;
 80004f4:	2300      	movs	r3, #0
 80004f6:	71fb      	strb	r3, [r7, #7]
  while (1)
 80004f8:	bf00      	nop
 80004fa:	e7fd      	b.n	80004f8 <main+0x30>
 80004fc:	200000d0 	.word	0x200000d0

08000500 <SystemClock_Config>:
/**
  * @brief System Clock Configuration
  * @retval None
  */
void SystemClock_Config(void)
{
 8000500:	b580      	push	{r7, lr}
 8000502:	b094      	sub	sp, #80	@ 0x50
 8000504:	af00      	add	r7, sp, #0
  RCC_OscInitTypeDef RCC_OscInitStruct = {0};
 8000506:	f107 0320 	add.w	r3, r7, #32
 800050a:	2230      	movs	r2, #48	@ 0x30
 800050c:	2100      	movs	r1, #0
 800050e:	4618      	mov	r0, r3
 8000510:	f002 fe7e 	bl	8003210 <memset>
  RCC_ClkInitTypeDef RCC_ClkInitStruct = {0};
 8000514:	f107 030c 	add.w	r3, r7, #12
 8000518:	2200      	movs	r2, #0
 800051a:	601a      	str	r2, [r3, #0]
 800051c:	605a      	str	r2, [r3, #4]
 800051e:	609a      	str	r2, [r3, #8]
 8000520:	60da      	str	r2, [r3, #12]
 8000522:	611a      	str	r2, [r3, #16]

  /** Configure the main internal regulator output voltage
  */
  __HAL_RCC_PWR_CLK_ENABLE();
 8000524:	2300      	movs	r3, #0
 8000526:	60bb      	str	r3, [r7, #8]
 8000528:	4b27      	ldr	r3, [pc, #156]	@ (80005c8 <SystemClock_Config+0xc8>)
 800052a:	6c1b      	ldr	r3, [r3, #64]	@ 0x40
 800052c:	4a26      	ldr	r2, [pc, #152]	@ (80005c8 <SystemClock_Config+0xc8>)
 800052e:	f043 5380 	orr.w	r3, r3, #268435456	@ 0x10000000
 8000532:	6413      	str	r3, [r2, #64]	@ 0x40
 8000534:	4b24      	ldr	r3, [pc, #144]	@ (80005c8 <SystemClock_Config+0xc8>)
 8000536:	6c1b      	ldr	r3, [r3, #64]	@ 0x40
 8000538:	f003 5380 	and.w	r3, r3, #268435456	@ 0x10000000
 800053c:	60bb      	str	r3, [r7, #8]
 800053e:	68bb      	ldr	r3, [r7, #8]
  __HAL_PWR_VOLTAGESCALING_CONFIG(PWR_REGULATOR_VOLTAGE_SCALE1);
 8000540:	2300      	movs	r3, #0
 8000542:	607b      	str	r3, [r7, #4]
 8000544:	4b21      	ldr	r3, [pc, #132]	@ (80005cc <SystemClock_Config+0xcc>)
 8000546:	681b      	ldr	r3, [r3, #0]
 8000548:	4a20      	ldr	r2, [pc, #128]	@ (80005cc <SystemClock_Config+0xcc>)
 800054a:	f443 4340 	orr.w	r3, r3, #49152	@ 0xc000
 800054e:	6013      	str	r3, [r2, #0]
 8000550:	4b1e      	ldr	r3, [pc, #120]	@ (80005cc <SystemClock_Config+0xcc>)
 8000552:	681b      	ldr	r3, [r3, #0]
 8000554:	f403 4340 	and.w	r3, r3, #49152	@ 0xc000
 8000558:	607b      	str	r3, [r7, #4]
 800055a:	687b      	ldr	r3, [r7, #4]

  /** Initializes the RCC Oscillators according to the specified parameters
  * in the RCC_OscInitTypeDef structure.
  */
  RCC_OscInitStruct.OscillatorType = RCC_OSCILLATORTYPE_HSI;
 800055c:	2302      	movs	r3, #2
 800055e:	623b      	str	r3, [r7, #32]
  RCC_OscInitStruct.HSIState = RCC_HSI_ON;
 8000560:	2301      	movs	r3, #1
 8000562:	62fb      	str	r3, [r7, #44]	@ 0x2c
  RCC_OscInitStruct.HSICalibrationValue = RCC_HSICALIBRATION_DEFAULT;
 8000564:	2310      	movs	r3, #16
 8000566:	633b      	str	r3, [r7, #48]	@ 0x30
  RCC_OscInitStruct.PLL.PLLState = RCC_PLL_ON;
 8000568:	2302      	movs	r3, #2
 800056a:	63bb      	str	r3, [r7, #56]	@ 0x38
  RCC_OscInitStruct.PLL.PLLSource = RCC_PLLSOURCE_HSI;
 800056c:	2300      	movs	r3, #0
 800056e:	63fb      	str	r3, [r7, #60]	@ 0x3c
  RCC_OscInitStruct.PLL.PLLM = 8;
 8000570:	2308      	movs	r3, #8
 8000572:	643b      	str	r3, [r7, #64]	@ 0x40
  RCC_OscInitStruct.PLL.PLLN = 100;
 8000574:	2364      	movs	r3, #100	@ 0x64
 8000576:	647b      	str	r3, [r7, #68]	@ 0x44
  RCC_OscInitStruct.PLL.PLLP = RCC_PLLP_DIV2;
 8000578:	2302      	movs	r3, #2
 800057a:	64bb      	str	r3, [r7, #72]	@ 0x48
  RCC_OscInitStruct.PLL.PLLQ = 4;
 800057c:	2304      	movs	r3, #4
 800057e:	64fb      	str	r3, [r7, #76]	@ 0x4c
  if (HAL_RCC_OscConfig(&RCC_OscInitStruct) != HAL_OK)
 8000580:	f107 0320 	add.w	r3, r7, #32
 8000584:	4618      	mov	r0, r3
 8000586:	f001 f845 	bl	8001614 <HAL_RCC_OscConfig>
 800058a:	4603      	mov	r3, r0
 800058c:	2b00      	cmp	r3, #0
 800058e:	d001      	beq.n	8000594 <SystemClock_Config+0x94>
  {
    Error_Handler();
 8000590:	f000 f9d2 	bl	8000938 <Error_Handler>
  }

  /** Initializes the CPU, AHB and APB buses clocks
  */
  RCC_ClkInitStruct.ClockType = RCC_CLOCKTYPE_HCLK|RCC_CLOCKTYPE_SYSCLK
 8000594:	230f      	movs	r3, #15
 8000596:	60fb      	str	r3, [r7, #12]
                              |RCC_CLOCKTYPE_PCLK1|RCC_CLOCKTYPE_PCLK2;
  RCC_ClkInitStruct.SYSCLKSource = RCC_SYSCLKSOURCE_PLLCLK;
 8000598:	2302      	movs	r3, #2
 800059a:	613b      	str	r3, [r7, #16]
  RCC_ClkInitStruct.AHBCLKDivider = RCC_SYSCLK_DIV1;
 800059c:	2300      	movs	r3, #0
 800059e:	617b      	str	r3, [r7, #20]
  RCC_ClkInitStruct.APB1CLKDivider = RCC_HCLK_DIV2;
 80005a0:	f44f 5380 	mov.w	r3, #4096	@ 0x1000
 80005a4:	61bb      	str	r3, [r7, #24]
  RCC_ClkInitStruct.APB2CLKDivider = RCC_HCLK_DIV1;
 80005a6:	2300      	movs	r3, #0
 80005a8:	61fb      	str	r3, [r7, #28]

  if (HAL_RCC_ClockConfig(&RCC_ClkInitStruct, FLASH_LATENCY_3) != HAL_OK)
 80005aa:	f107 030c 	add.w	r3, r7, #12
 80005ae:	2103      	movs	r1, #3
 80005b0:	4618      	mov	r0, r3
 80005b2:	f001 faa7 	bl	8001b04 <HAL_RCC_ClockConfig>
 80005b6:	4603      	mov	r3, r0
 80005b8:	2b00      	cmp	r3, #0
 80005ba:	d001      	beq.n	80005c0 <SystemClock_Config+0xc0>
  {
    Error_Handler();
 80005bc:	f000 f9bc 	bl	8000938 <Error_Handler>
  }
}
 80005c0:	bf00      	nop
 80005c2:	3750      	adds	r7, #80	@ 0x50
 80005c4:	46bd      	mov	sp, r7
 80005c6:	bd80      	pop	{r7, pc}
 80005c8:	40023800 	.word	0x40023800
 80005cc:	40007000 	.word	0x40007000

080005d0 <MX_I2C1_Init>:
  * @brief I2C1 Initialization Function
  * @param None
  * @retval None
  */
static void MX_I2C1_Init(void)
{
 80005d0:	b580      	push	{r7, lr}
 80005d2:	af00      	add	r7, sp, #0
  /* USER CODE END I2C1_Init 0 */

  /* USER CODE BEGIN I2C1_Init 1 */

  /* USER CODE END I2C1_Init 1 */
  hi2c1.Instance = I2C1;
 80005d4:	4b12      	ldr	r3, [pc, #72]	@ (8000620 <MX_I2C1_Init+0x50>)
 80005d6:	4a13      	ldr	r2, [pc, #76]	@ (8000624 <MX_I2C1_Init+0x54>)
 80005d8:	601a      	str	r2, [r3, #0]
  hi2c1.Init.ClockSpeed = 100000;
 80005da:	4b11      	ldr	r3, [pc, #68]	@ (8000620 <MX_I2C1_Init+0x50>)
 80005dc:	4a12      	ldr	r2, [pc, #72]	@ (8000628 <MX_I2C1_Init+0x58>)
 80005de:	605a      	str	r2, [r3, #4]
  hi2c1.Init.DutyCycle = I2C_DUTYCYCLE_2;
 80005e0:	4b0f      	ldr	r3, [pc, #60]	@ (8000620 <MX_I2C1_Init+0x50>)
 80005e2:	2200      	movs	r2, #0
 80005e4:	609a      	str	r2, [r3, #8]
  hi2c1.Init.OwnAddress1 = 0;
 80005e6:	4b0e      	ldr	r3, [pc, #56]	@ (8000620 <MX_I2C1_Init+0x50>)
 80005e8:	2200      	movs	r2, #0
 80005ea:	60da      	str	r2, [r3, #12]
  hi2c1.Init.AddressingMode = I2C_ADDRESSINGMODE_7BIT;
 80005ec:	4b0c      	ldr	r3, [pc, #48]	@ (8000620 <MX_I2C1_Init+0x50>)
 80005ee:	f44f 4280 	mov.w	r2, #16384	@ 0x4000
 80005f2:	611a      	str	r2, [r3, #16]
  hi2c1.Init.DualAddressMode = I2C_DUALADDRESS_DISABLE;
 80005f4:	4b0a      	ldr	r3, [pc, #40]	@ (8000620 <MX_I2C1_Init+0x50>)
 80005f6:	2200      	movs	r2, #0
 80005f8:	615a      	str	r2, [r3, #20]
  hi2c1.Init.OwnAddress2 = 0;
 80005fa:	4b09      	ldr	r3, [pc, #36]	@ (8000620 <MX_I2C1_Init+0x50>)
 80005fc:	2200      	movs	r2, #0
 80005fe:	619a      	str	r2, [r3, #24]
  hi2c1.Init.GeneralCallMode = I2C_GENERALCALL_DISABLE;
 8000600:	4b07      	ldr	r3, [pc, #28]	@ (8000620 <MX_I2C1_Init+0x50>)
 8000602:	2200      	movs	r2, #0
 8000604:	61da      	str	r2, [r3, #28]
  hi2c1.Init.NoStretchMode = I2C_NOSTRETCH_DISABLE;
 8000606:	4b06      	ldr	r3, [pc, #24]	@ (8000620 <MX_I2C1_Init+0x50>)
 8000608:	2200      	movs	r2, #0
 800060a:	621a      	str	r2, [r3, #32]
  if (HAL_I2C_Init(&hi2c1) != HAL_OK)
 800060c:	4804      	ldr	r0, [pc, #16]	@ (8000620 <MX_I2C1_Init+0x50>)
 800060e:	f000 febd 	bl	800138c <HAL_I2C_Init>
 8000612:	4603      	mov	r3, r0
 8000614:	2b00      	cmp	r3, #0
 8000616:	d001      	beq.n	800061c <MX_I2C1_Init+0x4c>
  {
    Error_Handler();
 8000618:	f000 f98e 	bl	8000938 <Error_Handler>
  }
  /* USER CODE BEGIN I2C1_Init 2 */

  /* USER CODE END I2C1_Init 2 */

}
 800061c:	bf00      	nop
 800061e:	bd80      	pop	{r7, pc}
 8000620:	20000028 	.word	0x20000028
 8000624:	40005400 	.word	0x40005400
 8000628:	000186a0 	.word	0x000186a0

0800062c <MX_I2C2_Init>:
  * @brief I2C2 Initialization Function
  * @param None
  * @retval None
  */
static void MX_I2C2_Init(void)
{
 800062c:	b580      	push	{r7, lr}
 800062e:	af00      	add	r7, sp, #0
  /* USER CODE END I2C2_Init 0 */

  /* USER CODE BEGIN I2C2_Init 1 */

  /* USER CODE END I2C2_Init 1 */
  hi2c2.Instance = I2C2;
 8000630:	4b12      	ldr	r3, [pc, #72]	@ (800067c <MX_I2C2_Init+0x50>)
 8000632:	4a13      	ldr	r2, [pc, #76]	@ (8000680 <MX_I2C2_Init+0x54>)
 8000634:	601a      	str	r2, [r3, #0]
  hi2c2.Init.ClockSpeed = 100000;
 8000636:	4b11      	ldr	r3, [pc, #68]	@ (800067c <MX_I2C2_Init+0x50>)
 8000638:	4a12      	ldr	r2, [pc, #72]	@ (8000684 <MX_I2C2_Init+0x58>)
 800063a:	605a      	str	r2, [r3, #4]
  hi2c2.Init.DutyCycle = I2C_DUTYCYCLE_2;
 800063c:	4b0f      	ldr	r3, [pc, #60]	@ (800067c <MX_I2C2_Init+0x50>)
 800063e:	2200      	movs	r2, #0
 8000640:	609a      	str	r2, [r3, #8]
  hi2c2.Init.OwnAddress1 = 0;
 8000642:	4b0e      	ldr	r3, [pc, #56]	@ (800067c <MX_I2C2_Init+0x50>)
 8000644:	2200      	movs	r2, #0
 8000646:	60da      	str	r2, [r3, #12]
  hi2c2.Init.AddressingMode = I2C_ADDRESSINGMODE_7BIT;
 8000648:	4b0c      	ldr	r3, [pc, #48]	@ (800067c <MX_I2C2_Init+0x50>)
 800064a:	f44f 4280 	mov.w	r2, #16384	@ 0x4000
 800064e:	611a      	str	r2, [r3, #16]
  hi2c2.Init.DualAddressMode = I2C_DUALADDRESS_DISABLE;
 8000650:	4b0a      	ldr	r3, [pc, #40]	@ (800067c <MX_I2C2_Init+0x50>)
 8000652:	2200      	movs	r2, #0
 8000654:	615a      	str	r2, [r3, #20]
  hi2c2.Init.OwnAddress2 = 0;
 8000656:	4b09      	ldr	r3, [pc, #36]	@ (800067c <MX_I2C2_Init+0x50>)
 8000658:	2200      	movs	r2, #0
 800065a:	619a      	str	r2, [r3, #24]
  hi2c2.Init.GeneralCallMode = I2C_GENERALCALL_DISABLE;
 800065c:	4b07      	ldr	r3, [pc, #28]	@ (800067c <MX_I2C2_Init+0x50>)
 800065e:	2200      	movs	r2, #0
 8000660:	61da      	str	r2, [r3, #28]
  hi2c2.Init.NoStretchMode = I2C_NOSTRETCH_DISABLE;
 8000662:	4b06      	ldr	r3, [pc, #24]	@ (800067c <MX_I2C2_Init+0x50>)
 8000664:	2200      	movs	r2, #0
 8000666:	621a      	str	r2, [r3, #32]
  if (HAL_I2C_Init(&hi2c2) != HAL_OK)
 8000668:	4804      	ldr	r0, [pc, #16]	@ (800067c <MX_I2C2_Init+0x50>)
 800066a:	f000 fe8f 	bl	800138c <HAL_I2C_Init>
 800066e:	4603      	mov	r3, r0
 8000670:	2b00      	cmp	r3, #0
 8000672:	d001      	beq.n	8000678 <MX_I2C2_Init+0x4c>
  {
    Error_Handler();
 8000674:	f000 f960 	bl	8000938 <Error_Handler>
  }
  /* USER CODE BEGIN I2C2_Init 2 */

  /* USER CODE END I2C2_Init 2 */

}
 8000678:	bf00      	nop
 800067a:	bd80      	pop	{r7, pc}
 800067c:	2000007c 	.word	0x2000007c
 8000680:	40005800 	.word	0x40005800
 8000684:	000186a0 	.word	0x000186a0

08000688 <MX_TIM2_Init>:
  * @brief TIM2 Initialization Function
  * @param None
  * @retval None
  */
static void MX_TIM2_Init(void)
{
 8000688:	b580      	push	{r7, lr}
 800068a:	b086      	sub	sp, #24
 800068c:	af00      	add	r7, sp, #0

  /* USER CODE BEGIN TIM2_Init 0 */

  /* USER CODE END TIM2_Init 0 */

  TIM_ClockConfigTypeDef sClockSourceConfig = {0};
 800068e:	f107 0308 	add.w	r3, r7, #8
 8000692:	2200      	movs	r2, #0
 8000694:	601a      	str	r2, [r3, #0]
 8000696:	605a      	str	r2, [r3, #4]
 8000698:	609a      	str	r2, [r3, #8]
 800069a:	60da      	str	r2, [r3, #12]
  TIM_MasterConfigTypeDef sMasterConfig = {0};
 800069c:	463b      	mov	r3, r7
 800069e:	2200      	movs	r2, #0
 80006a0:	601a      	str	r2, [r3, #0]
 80006a2:	605a      	str	r2, [r3, #4]

  /* USER CODE BEGIN TIM2_Init 1 */

  /* USER CODE END TIM2_Init 1 */
  htim2.Instance = TIM2;
 80006a4:	4b1d      	ldr	r3, [pc, #116]	@ (800071c <MX_TIM2_Init+0x94>)
 80006a6:	f04f 4280 	mov.w	r2, #1073741824	@ 0x40000000
 80006aa:	601a      	str	r2, [r3, #0]
  htim2.Init.Prescaler = 999;
 80006ac:	4b1b      	ldr	r3, [pc, #108]	@ (800071c <MX_TIM2_Init+0x94>)
 80006ae:	f240 32e7 	movw	r2, #999	@ 0x3e7
 80006b2:	605a      	str	r2, [r3, #4]
  htim2.Init.CounterMode = TIM_COUNTERMODE_UP;
 80006b4:	4b19      	ldr	r3, [pc, #100]	@ (800071c <MX_TIM2_Init+0x94>)
 80006b6:	2200      	movs	r2, #0
 80006b8:	609a      	str	r2, [r3, #8]
  htim2.Init.Period = 124;
 80006ba:	4b18      	ldr	r3, [pc, #96]	@ (800071c <MX_TIM2_Init+0x94>)
 80006bc:	227c      	movs	r2, #124	@ 0x7c
 80006be:	60da      	str	r2, [r3, #12]
  htim2.Init.ClockDivision = TIM_CLOCKDIVISION_DIV1;
 80006c0:	4b16      	ldr	r3, [pc, #88]	@ (800071c <MX_TIM2_Init+0x94>)
 80006c2:	2200      	movs	r2, #0
 80006c4:	611a      	str	r2, [r3, #16]
  htim2.Init.AutoReloadPreload = TIM_AUTORELOAD_PRELOAD_DISABLE;
 80006c6:	4b15      	ldr	r3, [pc, #84]	@ (800071c <MX_TIM2_Init+0x94>)
 80006c8:	2200      	movs	r2, #0
 80006ca:	619a      	str	r2, [r3, #24]
  if (HAL_TIM_Base_Init(&htim2) != HAL_OK)
 80006cc:	4813      	ldr	r0, [pc, #76]	@ (800071c <MX_TIM2_Init+0x94>)
 80006ce:	f001 fbf9 	bl	8001ec4 <HAL_TIM_Base_Init>
 80006d2:	4603      	mov	r3, r0
 80006d4:	2b00      	cmp	r3, #0
 80006d6:	d001      	beq.n	80006dc <MX_TIM2_Init+0x54>
  {
    Error_Handler();
 80006d8:	f000 f92e 	bl	8000938 <Error_Handler>
  }
  sClockSourceConfig.ClockSource = TIM_CLOCKSOURCE_INTERNAL;
 80006dc:	f44f 5380 	mov.w	r3, #4096	@ 0x1000
 80006e0:	60bb      	str	r3, [r7, #8]
  if (HAL_TIM_ConfigClockSource(&htim2, &sClockSourceConfig) != HAL_OK)
 80006e2:	f107 0308 	add.w	r3, r7, #8
 80006e6:	4619      	mov	r1, r3
 80006e8:	480c      	ldr	r0, [pc, #48]	@ (800071c <MX_TIM2_Init+0x94>)
 80006ea:	f001 fea9 	bl	8002440 <HAL_TIM_ConfigClockSource>
 80006ee:	4603      	mov	r3, r0
 80006f0:	2b00      	cmp	r3, #0
 80006f2:	d001      	beq.n	80006f8 <MX_TIM2_Init+0x70>
  {
    Error_Handler();
 80006f4:	f000 f920 	bl	8000938 <Error_Handler>
  }
  sMasterConfig.MasterOutputTrigger = TIM_TRGO_RESET;
 80006f8:	2300      	movs	r3, #0
 80006fa:	603b      	str	r3, [r7, #0]
  sMasterConfig.MasterSlaveMode = TIM_MASTERSLAVEMODE_DISABLE;
 80006fc:	2300      	movs	r3, #0
 80006fe:	607b      	str	r3, [r7, #4]
  if (HAL_TIMEx_MasterConfigSynchronization(&htim2, &sMasterConfig) != HAL_OK)
 8000700:	463b      	mov	r3, r7
 8000702:	4619      	mov	r1, r3
 8000704:	4805      	ldr	r0, [pc, #20]	@ (800071c <MX_TIM2_Init+0x94>)
 8000706:	f002 fa3d 	bl	8002b84 <HAL_TIMEx_MasterConfigSynchronization>
 800070a:	4603      	mov	r3, r0
 800070c:	2b00      	cmp	r3, #0
 800070e:	d001      	beq.n	8000714 <MX_TIM2_Init+0x8c>
  {
    Error_Handler();
 8000710:	f000 f912 	bl	8000938 <Error_Handler>
  }
  /* USER CODE BEGIN TIM2_Init 2 */

  /* USER CODE END TIM2_Init 2 */

}
 8000714:	bf00      	nop
 8000716:	3718      	adds	r7, #24
 8000718:	46bd      	mov	sp, r7
 800071a:	bd80      	pop	{r7, pc}
 800071c:	200000d0 	.word	0x200000d0

08000720 <MX_TIM5_Init>:
  * @brief TIM5 Initialization Function
  * @param None
  * @retval None
  */
static void MX_TIM5_Init(void)
{
 8000720:	b580      	push	{r7, lr}
 8000722:	b08e      	sub	sp, #56	@ 0x38
 8000724:	af00      	add	r7, sp, #0

  /* USER CODE BEGIN TIM5_Init 0 */

  /* USER CODE END TIM5_Init 0 */

  TIM_ClockConfigTypeDef sClockSourceConfig = {0};
 8000726:	f107 0328 	add.w	r3, r7, #40	@ 0x28
 800072a:	2200      	movs	r2, #0
 800072c:	601a      	str	r2, [r3, #0]
 800072e:	605a      	str	r2, [r3, #4]
 8000730:	609a      	str	r2, [r3, #8]
 8000732:	60da      	str	r2, [r3, #12]
  TIM_MasterConfigTypeDef sMasterConfig = {0};
 8000734:	f107 0320 	add.w	r3, r7, #32
 8000738:	2200      	movs	r2, #0
 800073a:	601a      	str	r2, [r3, #0]
 800073c:	605a      	str	r2, [r3, #4]
  TIM_OC_InitTypeDef sConfigOC = {0};
 800073e:	1d3b      	adds	r3, r7, #4
 8000740:	2200      	movs	r2, #0
 8000742:	601a      	str	r2, [r3, #0]
 8000744:	605a      	str	r2, [r3, #4]
 8000746:	609a      	str	r2, [r3, #8]
 8000748:	60da      	str	r2, [r3, #12]
 800074a:	611a      	str	r2, [r3, #16]
 800074c:	615a      	str	r2, [r3, #20]
 800074e:	619a      	str	r2, [r3, #24]

  /* USER CODE BEGIN TIM5_Init 1 */

  /* USER CODE END TIM5_Init 1 */
  htim5.Instance = TIM5;
 8000750:	4b2d      	ldr	r3, [pc, #180]	@ (8000808 <MX_TIM5_Init+0xe8>)
 8000752:	4a2e      	ldr	r2, [pc, #184]	@ (800080c <MX_TIM5_Init+0xec>)
 8000754:	601a      	str	r2, [r3, #0]
  htim5.Init.Prescaler = 49999;
 8000756:	4b2c      	ldr	r3, [pc, #176]	@ (8000808 <MX_TIM5_Init+0xe8>)
 8000758:	f24c 324f 	movw	r2, #49999	@ 0xc34f
 800075c:	605a      	str	r2, [r3, #4]
  htim5.Init.CounterMode = TIM_COUNTERMODE_UP;
 800075e:	4b2a      	ldr	r3, [pc, #168]	@ (8000808 <MX_TIM5_Init+0xe8>)
 8000760:	2200      	movs	r2, #0
 8000762:	609a      	str	r2, [r3, #8]
  htim5.Init.Period = 19999;
 8000764:	4b28      	ldr	r3, [pc, #160]	@ (8000808 <MX_TIM5_Init+0xe8>)
 8000766:	f644 621f 	movw	r2, #19999	@ 0x4e1f
 800076a:	60da      	str	r2, [r3, #12]
  htim5.Init.ClockDivision = TIM_CLOCKDIVISION_DIV1;
 800076c:	4b26      	ldr	r3, [pc, #152]	@ (8000808 <MX_TIM5_Init+0xe8>)
 800076e:	2200      	movs	r2, #0
 8000770:	611a      	str	r2, [r3, #16]
  htim5.Init.AutoReloadPreload = TIM_AUTORELOAD_PRELOAD_DISABLE;
 8000772:	4b25      	ldr	r3, [pc, #148]	@ (8000808 <MX_TIM5_Init+0xe8>)
 8000774:	2200      	movs	r2, #0
 8000776:	619a      	str	r2, [r3, #24]
  if (HAL_TIM_Base_Init(&htim5) != HAL_OK)
 8000778:	4823      	ldr	r0, [pc, #140]	@ (8000808 <MX_TIM5_Init+0xe8>)
 800077a:	f001 fba3 	bl	8001ec4 <HAL_TIM_Base_Init>
 800077e:	4603      	mov	r3, r0
 8000780:	2b00      	cmp	r3, #0
 8000782:	d001      	beq.n	8000788 <MX_TIM5_Init+0x68>
  {
    Error_Handler();
 8000784:	f000 f8d8 	bl	8000938 <Error_Handler>
  }
  sClockSourceConfig.ClockSource = TIM_CLOCKSOURCE_INTERNAL;
 8000788:	f44f 5380 	mov.w	r3, #4096	@ 0x1000
 800078c:	62bb      	str	r3, [r7, #40]	@ 0x28
  if (HAL_TIM_ConfigClockSource(&htim5, &sClockSourceConfig) != HAL_OK)
 800078e:	f107 0328 	add.w	r3, r7, #40	@ 0x28
 8000792:	4619      	mov	r1, r3
 8000794:	481c      	ldr	r0, [pc, #112]	@ (8000808 <MX_TIM5_Init+0xe8>)
 8000796:	f001 fe53 	bl	8002440 <HAL_TIM_ConfigClockSource>
 800079a:	4603      	mov	r3, r0
 800079c:	2b00      	cmp	r3, #0
 800079e:	d001      	beq.n	80007a4 <MX_TIM5_Init+0x84>
  {
    Error_Handler();
 80007a0:	f000 f8ca 	bl	8000938 <Error_Handler>
  }
  if (HAL_TIM_PWM_Init(&htim5) != HAL_OK)
 80007a4:	4818      	ldr	r0, [pc, #96]	@ (8000808 <MX_TIM5_Init+0xe8>)
 80007a6:	f001 fc3f 	bl	8002028 <HAL_TIM_PWM_Init>
 80007aa:	4603      	mov	r3, r0
 80007ac:	2b00      	cmp	r3, #0
 80007ae:	d001      	beq.n	80007b4 <MX_TIM5_Init+0x94>
  {
    Error_Handler();
 80007b0:	f000 f8c2 	bl	8000938 <Error_Handler>
  }
  sMasterConfig.MasterOutputTrigger = TIM_TRGO_RESET;
 80007b4:	2300      	movs	r3, #0
 80007b6:	623b      	str	r3, [r7, #32]
  sMasterConfig.MasterSlaveMode = TIM_MASTERSLAVEMODE_DISABLE;
 80007b8:	2300      	movs	r3, #0
 80007ba:	627b      	str	r3, [r7, #36]	@ 0x24
  if (HAL_TIMEx_MasterConfigSynchronization(&htim5, &sMasterConfig) != HAL_OK)
 80007bc:	f107 0320 	add.w	r3, r7, #32
 80007c0:	4619      	mov	r1, r3
 80007c2:	4811      	ldr	r0, [pc, #68]	@ (8000808 <MX_TIM5_Init+0xe8>)
 80007c4:	f002 f9de 	bl	8002b84 <HAL_TIMEx_MasterConfigSynchronization>
 80007c8:	4603      	mov	r3, r0
 80007ca:	2b00      	cmp	r3, #0
 80007cc:	d001      	beq.n	80007d2 <MX_TIM5_Init+0xb2>
  {
    Error_Handler();
 80007ce:	f000 f8b3 	bl	8000938 <Error_Handler>
  }
  sConfigOC.OCMode = TIM_OCMODE_PWM1;
 80007d2:	2360      	movs	r3, #96	@ 0x60
 80007d4:	607b      	str	r3, [r7, #4]
  sConfigOC.Pulse = 0;
 80007d6:	2300      	movs	r3, #0
 80007d8:	60bb      	str	r3, [r7, #8]
  sConfigOC.OCPolarity = TIM_OCPOLARITY_HIGH;
 80007da:	2300      	movs	r3, #0
 80007dc:	60fb      	str	r3, [r7, #12]
  sConfigOC.OCFastMode = TIM_OCFAST_DISABLE;
 80007de:	2300      	movs	r3, #0
 80007e0:	617b      	str	r3, [r7, #20]
  if (HAL_TIM_PWM_ConfigChannel(&htim5, &sConfigOC, TIM_CHANNEL_1) != HAL_OK)
 80007e2:	1d3b      	adds	r3, r7, #4
 80007e4:	2200      	movs	r2, #0
 80007e6:	4619      	mov	r1, r3
 80007e8:	4807      	ldr	r0, [pc, #28]	@ (8000808 <MX_TIM5_Init+0xe8>)
 80007ea:	f001 fd67 	bl	80022bc <HAL_TIM_PWM_ConfigChannel>
 80007ee:	4603      	mov	r3, r0
 80007f0:	2b00      	cmp	r3, #0
 80007f2:	d001      	beq.n	80007f8 <MX_TIM5_Init+0xd8>
  {
    Error_Handler();
 80007f4:	f000 f8a0 	bl	8000938 <Error_Handler>
  }
  /* USER CODE BEGIN TIM5_Init 2 */

  /* USER CODE END TIM5_Init 2 */
  HAL_TIM_MspPostInit(&htim5);
 80007f8:	4803      	ldr	r0, [pc, #12]	@ (8000808 <MX_TIM5_Init+0xe8>)
 80007fa:	f000 f993 	bl	8000b24 <HAL_TIM_MspPostInit>

}
 80007fe:	bf00      	nop
 8000800:	3738      	adds	r7, #56	@ 0x38
 8000802:	46bd      	mov	sp, r7
 8000804:	bd80      	pop	{r7, pc}
 8000806:	bf00      	nop
 8000808:	20000118 	.word	0x20000118
 800080c:	40000c00 	.word	0x40000c00

08000810 <MX_USART2_UART_Init>:
  * @brief USART2 Initialization Function
  * @param None
  * @retval None
  */
static void MX_USART2_UART_Init(void)
{
 8000810:	b580      	push	{r7, lr}
 8000812:	af00      	add	r7, sp, #0
  /* USER CODE END USART2_Init 0 */

  /* USER CODE BEGIN USART2_Init 1 */

  /* USER CODE END USART2_Init 1 */
  huart2.Instance = USART2;
 8000814:	4b11      	ldr	r3, [pc, #68]	@ (800085c <MX_USART2_UART_Init+0x4c>)
 8000816:	4a12      	ldr	r2, [pc, #72]	@ (8000860 <MX_USART2_UART_Init+0x50>)
 8000818:	601a      	str	r2, [r3, #0]
  huart2.Init.BaudRate = 115200;
 800081a:	4b10      	ldr	r3, [pc, #64]	@ (800085c <MX_USART2_UART_Init+0x4c>)
 800081c:	f44f 32e1 	mov.w	r2, #115200	@ 0x1c200
 8000820:	605a      	str	r2, [r3, #4]
  huart2.Init.WordLength = UART_WORDLENGTH_8B;
 8000822:	4b0e      	ldr	r3, [pc, #56]	@ (800085c <MX_USART2_UART_Init+0x4c>)
 8000824:	2200      	movs	r2, #0
 8000826:	609a      	str	r2, [r3, #8]
  huart2.Init.StopBits = UART_STOPBITS_1;
 8000828:	4b0c      	ldr	r3, [pc, #48]	@ (800085c <MX_USART2_UART_Init+0x4c>)
 800082a:	2200      	movs	r2, #0
 800082c:	60da      	str	r2, [r3, #12]
  huart2.Init.Parity = UART_PARITY_NONE;
 800082e:	4b0b      	ldr	r3, [pc, #44]	@ (800085c <MX_USART2_UART_Init+0x4c>)
 8000830:	2200      	movs	r2, #0
 8000832:	611a      	str	r2, [r3, #16]
  huart2.Init.Mode = UART_MODE_TX_RX;
 8000834:	4b09      	ldr	r3, [pc, #36]	@ (800085c <MX_USART2_UART_Init+0x4c>)
 8000836:	220c      	movs	r2, #12
 8000838:	615a      	str	r2, [r3, #20]
  huart2.Init.HwFlowCtl = UART_HWCONTROL_NONE;
 800083a:	4b08      	ldr	r3, [pc, #32]	@ (800085c <MX_USART2_UART_Init+0x4c>)
 800083c:	2200      	movs	r2, #0
 800083e:	619a      	str	r2, [r3, #24]
  huart2.Init.OverSampling = UART_OVERSAMPLING_16;
 8000840:	4b06      	ldr	r3, [pc, #24]	@ (800085c <MX_USART2_UART_Init+0x4c>)
 8000842:	2200      	movs	r2, #0
 8000844:	61da      	str	r2, [r3, #28]
  if (HAL_UART_Init(&huart2) != HAL_OK)
 8000846:	4805      	ldr	r0, [pc, #20]	@ (800085c <MX_USART2_UART_Init+0x4c>)
 8000848:	f002 fa1e 	bl	8002c88 <HAL_UART_Init>
 800084c:	4603      	mov	r3, r0
 800084e:	2b00      	cmp	r3, #0
 8000850:	d001      	beq.n	8000856 <MX_USART2_UART_Init+0x46>
  {
    Error_Handler();
 8000852:	f000 f871 	bl	8000938 <Error_Handler>
  }
  /* USER CODE BEGIN USART2_Init 2 */

  /* USER CODE END USART2_Init 2 */

}
 8000856:	bf00      	nop
 8000858:	bd80      	pop	{r7, pc}
 800085a:	bf00      	nop
 800085c:	20000160 	.word	0x20000160
 8000860:	40004400 	.word	0x40004400

08000864 <MX_GPIO_Init>:
  * @brief GPIO Initialization Function
  * @param None
  * @retval None
  */
static void MX_GPIO_Init(void)
{
 8000864:	b580      	push	{r7, lr}
 8000866:	b088      	sub	sp, #32
 8000868:	af00      	add	r7, sp, #0
  GPIO_InitTypeDef GPIO_InitStruct = {0};
 800086a:	f107 030c 	add.w	r3, r7, #12
 800086e:	2200      	movs	r2, #0
 8000870:	601a      	str	r2, [r3, #0]
 8000872:	605a      	str	r2, [r3, #4]
 8000874:	609a      	str	r2, [r3, #8]
 8000876:	60da      	str	r2, [r3, #12]
 8000878:	611a      	str	r2, [r3, #16]
/* USER CODE BEGIN MX_GPIO_Init_1 */
/* USER CODE END MX_GPIO_Init_1 */

  /* GPIO Ports Clock Enable */
  __HAL_RCC_GPIOA_CLK_ENABLE();
 800087a:	2300      	movs	r3, #0
 800087c:	60bb      	str	r3, [r7, #8]
 800087e:	4b19      	ldr	r3, [pc, #100]	@ (80008e4 <MX_GPIO_Init+0x80>)
 8000880:	6b1b      	ldr	r3, [r3, #48]	@ 0x30
 8000882:	4a18      	ldr	r2, [pc, #96]	@ (80008e4 <MX_GPIO_Init+0x80>)
 8000884:	f043 0301 	orr.w	r3, r3, #1
 8000888:	6313      	str	r3, [r2, #48]	@ 0x30
 800088a:	4b16      	ldr	r3, [pc, #88]	@ (80008e4 <MX_GPIO_Init+0x80>)
 800088c:	6b1b      	ldr	r3, [r3, #48]	@ 0x30
 800088e:	f003 0301 	and.w	r3, r3, #1
 8000892:	60bb      	str	r3, [r7, #8]
 8000894:	68bb      	ldr	r3, [r7, #8]
  __HAL_RCC_GPIOB_CLK_ENABLE();
 8000896:	2300      	movs	r3, #0
 8000898:	607b      	str	r3, [r7, #4]
 800089a:	4b12      	ldr	r3, [pc, #72]	@ (80008e4 <MX_GPIO_Init+0x80>)
 800089c:	6b1b      	ldr	r3, [r3, #48]	@ 0x30
 800089e:	4a11      	ldr	r2, [pc, #68]	@ (80008e4 <MX_GPIO_Init+0x80>)
 80008a0:	f043 0302 	orr.w	r3, r3, #2
 80008a4:	6313      	str	r3, [r2, #48]	@ 0x30
 80008a6:	4b0f      	ldr	r3, [pc, #60]	@ (80008e4 <MX_GPIO_Init+0x80>)
 80008a8:	6b1b      	ldr	r3, [r3, #48]	@ 0x30
 80008aa:	f003 0302 	and.w	r3, r3, #2
 80008ae:	607b      	str	r3, [r7, #4]
 80008b0:	687b      	ldr	r3, [r7, #4]

  /*Configure GPIO pin Output Level */
  HAL_GPIO_WritePin(GPIOB, GPIO_PIN_13, GPIO_PIN_RESET);
 80008b2:	2200      	movs	r2, #0
 80008b4:	f44f 5100 	mov.w	r1, #8192	@ 0x2000
 80008b8:	480b      	ldr	r0, [pc, #44]	@ (80008e8 <MX_GPIO_Init+0x84>)
 80008ba:	f000 fd33 	bl	8001324 <HAL_GPIO_WritePin>

  /*Configure GPIO pin : PB13 */
  GPIO_InitStruct.Pin = GPIO_PIN_13;
 80008be:	f44f 5300 	mov.w	r3, #8192	@ 0x2000
 80008c2:	60fb      	str	r3, [r7, #12]
  GPIO_InitStruct.Mode = GPIO_MODE_OUTPUT_PP;
 80008c4:	2301      	movs	r3, #1
 80008c6:	613b      	str	r3, [r7, #16]
  GPIO_InitStruct.Pull = GPIO_NOPULL;
 80008c8:	2300      	movs	r3, #0
 80008ca:	617b      	str	r3, [r7, #20]
  GPIO_InitStruct.Speed = GPIO_SPEED_FREQ_LOW;
 80008cc:	2300      	movs	r3, #0
 80008ce:	61bb      	str	r3, [r7, #24]
  HAL_GPIO_Init(GPIOB, &GPIO_InitStruct);
 80008d0:	f107 030c 	add.w	r3, r7, #12
 80008d4:	4619      	mov	r1, r3
 80008d6:	4804      	ldr	r0, [pc, #16]	@ (80008e8 <MX_GPIO_Init+0x84>)
 80008d8:	f000 fba0 	bl	800101c <HAL_GPIO_Init>

/* USER CODE BEGIN MX_GPIO_Init_2 */
/* USER CODE END MX_GPIO_Init_2 */
}
 80008dc:	bf00      	nop
 80008de:	3720      	adds	r7, #32
 80008e0:	46bd      	mov	sp, r7
 80008e2:	bd80      	pop	{r7, pc}
 80008e4:	40023800 	.word	0x40023800
 80008e8:	40020400 	.word	0x40020400

080008ec <HAL_TIM_PeriodElapsedCallback>:

/* USER CODE BEGIN 4 */

void HAL_TIM_PeriodElapsedCallback(TIM_HandleTypeDef *htim){
 80008ec:	b580      	push	{r7, lr}
 80008ee:	b082      	sub	sp, #8
 80008f0:	af00      	add	r7, sp, #0
 80008f2:	6078      	str	r0, [r7, #4]
	static uint16_t tmp = 0;
	if(htim == &htim2 && ++tmp == 800){
 80008f4:	687b      	ldr	r3, [r7, #4]
 80008f6:	4a0d      	ldr	r2, [pc, #52]	@ (800092c <HAL_TIM_PeriodElapsedCallback+0x40>)
 80008f8:	4293      	cmp	r3, r2
 80008fa:	d112      	bne.n	8000922 <HAL_TIM_PeriodElapsedCallback+0x36>
 80008fc:	4b0c      	ldr	r3, [pc, #48]	@ (8000930 <HAL_TIM_PeriodElapsedCallback+0x44>)
 80008fe:	881b      	ldrh	r3, [r3, #0]
 8000900:	3301      	adds	r3, #1
 8000902:	b29a      	uxth	r2, r3
 8000904:	4b0a      	ldr	r3, [pc, #40]	@ (8000930 <HAL_TIM_PeriodElapsedCallback+0x44>)
 8000906:	801a      	strh	r2, [r3, #0]
 8000908:	4b09      	ldr	r3, [pc, #36]	@ (8000930 <HAL_TIM_PeriodElapsedCallback+0x44>)
 800090a:	881b      	ldrh	r3, [r3, #0]
 800090c:	f5b3 7f48 	cmp.w	r3, #800	@ 0x320
 8000910:	d107      	bne.n	8000922 <HAL_TIM_PeriodElapsedCallback+0x36>
		HAL_GPIO_TogglePin(GPIOB, GPIO_PIN_13);
 8000912:	f44f 5100 	mov.w	r1, #8192	@ 0x2000
 8000916:	4807      	ldr	r0, [pc, #28]	@ (8000934 <HAL_TIM_PeriodElapsedCallback+0x48>)
 8000918:	f000 fd1d 	bl	8001356 <HAL_GPIO_TogglePin>
		tmp=0;
 800091c:	4b04      	ldr	r3, [pc, #16]	@ (8000930 <HAL_TIM_PeriodElapsedCallback+0x44>)
 800091e:	2200      	movs	r2, #0
 8000920:	801a      	strh	r2, [r3, #0]
	}
}
 8000922:	bf00      	nop
 8000924:	3708      	adds	r7, #8
 8000926:	46bd      	mov	sp, r7
 8000928:	bd80      	pop	{r7, pc}
 800092a:	bf00      	nop
 800092c:	200000d0 	.word	0x200000d0
 8000930:	200001a8 	.word	0x200001a8
 8000934:	40020400 	.word	0x40020400

08000938 <Error_Handler>:
/**
  * @brief  This function is executed in case of error occurrence.
  * @retval None
  */
void Error_Handler(void)
{
 8000938:	b480      	push	{r7}
 800093a:	af00      	add	r7, sp, #0
  \details Disables IRQ interrupts by setting special-purpose register PRIMASK.
           Can only be executed in Privileged modes.
 */
__STATIC_FORCEINLINE void __disable_irq(void)
{
  __ASM volatile ("cpsid i" : : : "memory");
 800093c:	b672      	cpsid	i
}
 800093e:	bf00      	nop
  /* USER CODE BEGIN Error_Handler_Debug */
  /* User can add his own implementation to report the HAL error return state */
  __disable_irq();
  while (1)
 8000940:	bf00      	nop
 8000942:	e7fd      	b.n	8000940 <Error_Handler+0x8>

08000944 <HAL_MspInit>:
void HAL_TIM_MspPostInit(TIM_HandleTypeDef *htim);
                    /**
  * Initializes the Global MSP.
  */
void HAL_MspInit(void)
{
 8000944:	b480      	push	{r7}
 8000946:	b083      	sub	sp, #12
 8000948:	af00      	add	r7, sp, #0

  /* USER CODE BEGIN MspInit 0 */

  /* USER CODE END MspInit 0 */

  __HAL_RCC_SYSCFG_CLK_ENABLE();
 800094a:	2300      	movs	r3, #0
 800094c:	607b      	str	r3, [r7, #4]
 800094e:	4b10      	ldr	r3, [pc, #64]	@ (8000990 <HAL_MspInit+0x4c>)
 8000950:	6c5b      	ldr	r3, [r3, #68]	@ 0x44
 8000952:	4a0f      	ldr	r2, [pc, #60]	@ (8000990 <HAL_MspInit+0x4c>)
 8000954:	f443 4380 	orr.w	r3, r3, #16384	@ 0x4000
 8000958:	6453      	str	r3, [r2, #68]	@ 0x44
 800095a:	4b0d      	ldr	r3, [pc, #52]	@ (8000990 <HAL_MspInit+0x4c>)
 800095c:	6c5b      	ldr	r3, [r3, #68]	@ 0x44
 800095e:	f403 4380 	and.w	r3, r3, #16384	@ 0x4000
 8000962:	607b      	str	r3, [r7, #4]
 8000964:	687b      	ldr	r3, [r7, #4]
  __HAL_RCC_PWR_CLK_ENABLE();
 8000966:	2300      	movs	r3, #0
 8000968:	603b      	str	r3, [r7, #0]
 800096a:	4b09      	ldr	r3, [pc, #36]	@ (8000990 <HAL_MspInit+0x4c>)
 800096c:	6c1b      	ldr	r3, [r3, #64]	@ 0x40
 800096e:	4a08      	ldr	r2, [pc, #32]	@ (8000990 <HAL_MspInit+0x4c>)
 8000970:	f043 5380 	orr.w	r3, r3, #268435456	@ 0x10000000
 8000974:	6413      	str	r3, [r2, #64]	@ 0x40
 8000976:	4b06      	ldr	r3, [pc, #24]	@ (8000990 <HAL_MspInit+0x4c>)
 8000978:	6c1b      	ldr	r3, [r3, #64]	@ 0x40
 800097a:	f003 5380 	and.w	r3, r3, #268435456	@ 0x10000000
 800097e:	603b      	str	r3, [r7, #0]
 8000980:	683b      	ldr	r3, [r7, #0]
  /* System interrupt init*/

  /* USER CODE BEGIN MspInit 1 */

  /* USER CODE END MspInit 1 */
}
 8000982:	bf00      	nop
 8000984:	370c      	adds	r7, #12
 8000986:	46bd      	mov	sp, r7
 8000988:	f85d 7b04 	ldr.w	r7, [sp], #4
 800098c:	4770      	bx	lr
 800098e:	bf00      	nop
 8000990:	40023800 	.word	0x40023800

08000994 <HAL_I2C_MspInit>:
* This function configures the hardware resources used in this example
* @param hi2c: I2C handle pointer
* @retval None
*/
void HAL_I2C_MspInit(I2C_HandleTypeDef* hi2c)
{
 8000994:	b580      	push	{r7, lr}
 8000996:	b08c      	sub	sp, #48	@ 0x30
 8000998:	af00      	add	r7, sp, #0
 800099a:	6078      	str	r0, [r7, #4]
  GPIO_InitTypeDef GPIO_InitStruct = {0};
 800099c:	f107 031c 	add.w	r3, r7, #28
 80009a0:	2200      	movs	r2, #0
 80009a2:	601a      	str	r2, [r3, #0]
 80009a4:	605a      	str	r2, [r3, #4]
 80009a6:	609a      	str	r2, [r3, #8]
 80009a8:	60da      	str	r2, [r3, #12]
 80009aa:	611a      	str	r2, [r3, #16]
  if(hi2c->Instance==I2C1)
 80009ac:	687b      	ldr	r3, [r7, #4]
 80009ae:	681b      	ldr	r3, [r3, #0]
 80009b0:	4a3a      	ldr	r2, [pc, #232]	@ (8000a9c <HAL_I2C_MspInit+0x108>)
 80009b2:	4293      	cmp	r3, r2
 80009b4:	d12c      	bne.n	8000a10 <HAL_I2C_MspInit+0x7c>
  {
  /* USER CODE BEGIN I2C1_MspInit 0 */

  /* USER CODE END I2C1_MspInit 0 */

    __HAL_RCC_GPIOB_CLK_ENABLE();
 80009b6:	2300      	movs	r3, #0
 80009b8:	61bb      	str	r3, [r7, #24]
 80009ba:	4b39      	ldr	r3, [pc, #228]	@ (8000aa0 <HAL_I2C_MspInit+0x10c>)
 80009bc:	6b1b      	ldr	r3, [r3, #48]	@ 0x30
 80009be:	4a38      	ldr	r2, [pc, #224]	@ (8000aa0 <HAL_I2C_MspInit+0x10c>)
 80009c0:	f043 0302 	orr.w	r3, r3, #2
 80009c4:	6313      	str	r3, [r2, #48]	@ 0x30
 80009c6:	4b36      	ldr	r3, [pc, #216]	@ (8000aa0 <HAL_I2C_MspInit+0x10c>)
 80009c8:	6b1b      	ldr	r3, [r3, #48]	@ 0x30
 80009ca:	f003 0302 	and.w	r3, r3, #2
 80009ce:	61bb      	str	r3, [r7, #24]
 80009d0:	69bb      	ldr	r3, [r7, #24]
    /**I2C1 GPIO Configuration
    PB6     ------> I2C1_SCL
    PB7     ------> I2C1_SDA
    */
    GPIO_InitStruct.Pin = GPIO_PIN_6|GPIO_PIN_7;
 80009d2:	23c0      	movs	r3, #192	@ 0xc0
 80009d4:	61fb      	str	r3, [r7, #28]
    GPIO_InitStruct.Mode = GPIO_MODE_AF_OD;
 80009d6:	2312      	movs	r3, #18
 80009d8:	623b      	str	r3, [r7, #32]
    GPIO_InitStruct.Pull = GPIO_NOPULL;
 80009da:	2300      	movs	r3, #0
 80009dc:	627b      	str	r3, [r7, #36]	@ 0x24
    GPIO_InitStruct.Speed = GPIO_SPEED_FREQ_VERY_HIGH;
 80009de:	2303      	movs	r3, #3
 80009e0:	62bb      	str	r3, [r7, #40]	@ 0x28
    GPIO_InitStruct.Alternate = GPIO_AF4_I2C1;
 80009e2:	2304      	movs	r3, #4
 80009e4:	62fb      	str	r3, [r7, #44]	@ 0x2c
    HAL_GPIO_Init(GPIOB, &GPIO_InitStruct);
 80009e6:	f107 031c 	add.w	r3, r7, #28
 80009ea:	4619      	mov	r1, r3
 80009ec:	482d      	ldr	r0, [pc, #180]	@ (8000aa4 <HAL_I2C_MspInit+0x110>)
 80009ee:	f000 fb15 	bl	800101c <HAL_GPIO_Init>

    /* Peripheral clock enable */
    __HAL_RCC_I2C1_CLK_ENABLE();
 80009f2:	2300      	movs	r3, #0
 80009f4:	617b      	str	r3, [r7, #20]
 80009f6:	4b2a      	ldr	r3, [pc, #168]	@ (8000aa0 <HAL_I2C_MspInit+0x10c>)
 80009f8:	6c1b      	ldr	r3, [r3, #64]	@ 0x40
 80009fa:	4a29      	ldr	r2, [pc, #164]	@ (8000aa0 <HAL_I2C_MspInit+0x10c>)
 80009fc:	f443 1300 	orr.w	r3, r3, #2097152	@ 0x200000
 8000a00:	6413      	str	r3, [r2, #64]	@ 0x40
 8000a02:	4b27      	ldr	r3, [pc, #156]	@ (8000aa0 <HAL_I2C_MspInit+0x10c>)
 8000a04:	6c1b      	ldr	r3, [r3, #64]	@ 0x40
 8000a06:	f403 1300 	and.w	r3, r3, #2097152	@ 0x200000
 8000a0a:	617b      	str	r3, [r7, #20]
 8000a0c:	697b      	ldr	r3, [r7, #20]
  /* USER CODE BEGIN I2C2_MspInit 1 */

  /* USER CODE END I2C2_MspInit 1 */
  }

}
 8000a0e:	e041      	b.n	8000a94 <HAL_I2C_MspInit+0x100>
  else if(hi2c->Instance==I2C2)
 8000a10:	687b      	ldr	r3, [r7, #4]
 8000a12:	681b      	ldr	r3, [r3, #0]
 8000a14:	4a24      	ldr	r2, [pc, #144]	@ (8000aa8 <HAL_I2C_MspInit+0x114>)
 8000a16:	4293      	cmp	r3, r2
 8000a18:	d13c      	bne.n	8000a94 <HAL_I2C_MspInit+0x100>
    __HAL_RCC_GPIOB_CLK_ENABLE();
 8000a1a:	2300      	movs	r3, #0
 8000a1c:	613b      	str	r3, [r7, #16]
 8000a1e:	4b20      	ldr	r3, [pc, #128]	@ (8000aa0 <HAL_I2C_MspInit+0x10c>)
 8000a20:	6b1b      	ldr	r3, [r3, #48]	@ 0x30
 8000a22:	4a1f      	ldr	r2, [pc, #124]	@ (8000aa0 <HAL_I2C_MspInit+0x10c>)
 8000a24:	f043 0302 	orr.w	r3, r3, #2
 8000a28:	6313      	str	r3, [r2, #48]	@ 0x30
 8000a2a:	4b1d      	ldr	r3, [pc, #116]	@ (8000aa0 <HAL_I2C_MspInit+0x10c>)
 8000a2c:	6b1b      	ldr	r3, [r3, #48]	@ 0x30
 8000a2e:	f003 0302 	and.w	r3, r3, #2
 8000a32:	613b      	str	r3, [r7, #16]
 8000a34:	693b      	ldr	r3, [r7, #16]
    GPIO_InitStruct.Pin = GPIO_PIN_10;
 8000a36:	f44f 6380 	mov.w	r3, #1024	@ 0x400
 8000a3a:	61fb      	str	r3, [r7, #28]
    GPIO_InitStruct.Mode = GPIO_MODE_AF_OD;
 8000a3c:	2312      	movs	r3, #18
 8000a3e:	623b      	str	r3, [r7, #32]
    GPIO_InitStruct.Pull = GPIO_NOPULL;
 8000a40:	2300      	movs	r3, #0
 8000a42:	627b      	str	r3, [r7, #36]	@ 0x24
    GPIO_InitStruct.Speed = GPIO_SPEED_FREQ_VERY_HIGH;
 8000a44:	2303      	movs	r3, #3
 8000a46:	62bb      	str	r3, [r7, #40]	@ 0x28
    GPIO_InitStruct.Alternate = GPIO_AF4_I2C2;
 8000a48:	2304      	movs	r3, #4
 8000a4a:	62fb      	str	r3, [r7, #44]	@ 0x2c
    HAL_GPIO_Init(GPIOB, &GPIO_InitStruct);
 8000a4c:	f107 031c 	add.w	r3, r7, #28
 8000a50:	4619      	mov	r1, r3
 8000a52:	4814      	ldr	r0, [pc, #80]	@ (8000aa4 <HAL_I2C_MspInit+0x110>)
 8000a54:	f000 fae2 	bl	800101c <HAL_GPIO_Init>
    GPIO_InitStruct.Pin = GPIO_PIN_3;
 8000a58:	2308      	movs	r3, #8
 8000a5a:	61fb      	str	r3, [r7, #28]
    GPIO_InitStruct.Mode = GPIO_MODE_AF_OD;
 8000a5c:	2312      	movs	r3, #18
 8000a5e:	623b      	str	r3, [r7, #32]
    GPIO_InitStruct.Pull = GPIO_NOPULL;
 8000a60:	2300      	movs	r3, #0
 8000a62:	627b      	str	r3, [r7, #36]	@ 0x24
    GPIO_InitStruct.Speed = GPIO_SPEED_FREQ_VERY_HIGH;
 8000a64:	2303      	movs	r3, #3
 8000a66:	62bb      	str	r3, [r7, #40]	@ 0x28
    GPIO_InitStruct.Alternate = GPIO_AF9_I2C2;
 8000a68:	2309      	movs	r3, #9
 8000a6a:	62fb      	str	r3, [r7, #44]	@ 0x2c
    HAL_GPIO_Init(GPIOB, &GPIO_InitStruct);
 8000a6c:	f107 031c 	add.w	r3, r7, #28
 8000a70:	4619      	mov	r1, r3
 8000a72:	480c      	ldr	r0, [pc, #48]	@ (8000aa4 <HAL_I2C_MspInit+0x110>)
 8000a74:	f000 fad2 	bl	800101c <HAL_GPIO_Init>
    __HAL_RCC_I2C2_CLK_ENABLE();
 8000a78:	2300      	movs	r3, #0
 8000a7a:	60fb      	str	r3, [r7, #12]
 8000a7c:	4b08      	ldr	r3, [pc, #32]	@ (8000aa0 <HAL_I2C_MspInit+0x10c>)
 8000a7e:	6c1b      	ldr	r3, [r3, #64]	@ 0x40
 8000a80:	4a07      	ldr	r2, [pc, #28]	@ (8000aa0 <HAL_I2C_MspInit+0x10c>)
 8000a82:	f443 0380 	orr.w	r3, r3, #4194304	@ 0x400000
 8000a86:	6413      	str	r3, [r2, #64]	@ 0x40
 8000a88:	4b05      	ldr	r3, [pc, #20]	@ (8000aa0 <HAL_I2C_MspInit+0x10c>)
 8000a8a:	6c1b      	ldr	r3, [r3, #64]	@ 0x40
 8000a8c:	f403 0380 	and.w	r3, r3, #4194304	@ 0x400000
 8000a90:	60fb      	str	r3, [r7, #12]
 8000a92:	68fb      	ldr	r3, [r7, #12]
}
 8000a94:	bf00      	nop
 8000a96:	3730      	adds	r7, #48	@ 0x30
 8000a98:	46bd      	mov	sp, r7
 8000a9a:	bd80      	pop	{r7, pc}
 8000a9c:	40005400 	.word	0x40005400
 8000aa0:	40023800 	.word	0x40023800
 8000aa4:	40020400 	.word	0x40020400
 8000aa8:	40005800 	.word	0x40005800

08000aac <HAL_TIM_Base_MspInit>:
* This function configures the hardware resources used in this example
* @param htim_base: TIM_Base handle pointer
* @retval None
*/
void HAL_TIM_Base_MspInit(TIM_HandleTypeDef* htim_base)
{
 8000aac:	b580      	push	{r7, lr}
 8000aae:	b084      	sub	sp, #16
 8000ab0:	af00      	add	r7, sp, #0
 8000ab2:	6078      	str	r0, [r7, #4]
  if(htim_base->Instance==TIM2)
 8000ab4:	687b      	ldr	r3, [r7, #4]
 8000ab6:	681b      	ldr	r3, [r3, #0]
 8000ab8:	f1b3 4f80 	cmp.w	r3, #1073741824	@ 0x40000000
 8000abc:	d116      	bne.n	8000aec <HAL_TIM_Base_MspInit+0x40>
  {
  /* USER CODE BEGIN TIM2_MspInit 0 */

  /* USER CODE END TIM2_MspInit 0 */
    /* Peripheral clock enable */
    __HAL_RCC_TIM2_CLK_ENABLE();
 8000abe:	2300      	movs	r3, #0
 8000ac0:	60fb      	str	r3, [r7, #12]
 8000ac2:	4b16      	ldr	r3, [pc, #88]	@ (8000b1c <HAL_TIM_Base_MspInit+0x70>)
 8000ac4:	6c1b      	ldr	r3, [r3, #64]	@ 0x40
 8000ac6:	4a15      	ldr	r2, [pc, #84]	@ (8000b1c <HAL_TIM_Base_MspInit+0x70>)
 8000ac8:	f043 0301 	orr.w	r3, r3, #1
 8000acc:	6413      	str	r3, [r2, #64]	@ 0x40
 8000ace:	4b13      	ldr	r3, [pc, #76]	@ (8000b1c <HAL_TIM_Base_MspInit+0x70>)
 8000ad0:	6c1b      	ldr	r3, [r3, #64]	@ 0x40
 8000ad2:	f003 0301 	and.w	r3, r3, #1
 8000ad6:	60fb      	str	r3, [r7, #12]
 8000ad8:	68fb      	ldr	r3, [r7, #12]
    /* TIM2 interrupt Init */
    HAL_NVIC_SetPriority(TIM2_IRQn, 0, 0);
 8000ada:	2200      	movs	r2, #0
 8000adc:	2100      	movs	r1, #0
 8000ade:	201c      	movs	r0, #28
 8000ae0:	f000 fa65 	bl	8000fae <HAL_NVIC_SetPriority>
    HAL_NVIC_EnableIRQ(TIM2_IRQn);
 8000ae4:	201c      	movs	r0, #28
 8000ae6:	f000 fa7e 	bl	8000fe6 <HAL_NVIC_EnableIRQ>
  /* USER CODE BEGIN TIM5_MspInit 1 */

  /* USER CODE END TIM5_MspInit 1 */
  }

}
 8000aea:	e012      	b.n	8000b12 <HAL_TIM_Base_MspInit+0x66>
  else if(htim_base->Instance==TIM5)
 8000aec:	687b      	ldr	r3, [r7, #4]
 8000aee:	681b      	ldr	r3, [r3, #0]
 8000af0:	4a0b      	ldr	r2, [pc, #44]	@ (8000b20 <HAL_TIM_Base_MspInit+0x74>)
 8000af2:	4293      	cmp	r3, r2
 8000af4:	d10d      	bne.n	8000b12 <HAL_TIM_Base_MspInit+0x66>
    __HAL_RCC_TIM5_CLK_ENABLE();
 8000af6:	2300      	movs	r3, #0
 8000af8:	60bb      	str	r3, [r7, #8]
 8000afa:	4b08      	ldr	r3, [pc, #32]	@ (8000b1c <HAL_TIM_Base_MspInit+0x70>)
 8000afc:	6c1b      	ldr	r3, [r3, #64]	@ 0x40
 8000afe:	4a07      	ldr	r2, [pc, #28]	@ (8000b1c <HAL_TIM_Base_MspInit+0x70>)
 8000b00:	f043 0308 	orr.w	r3, r3, #8
 8000b04:	6413      	str	r3, [r2, #64]	@ 0x40
 8000b06:	4b05      	ldr	r3, [pc, #20]	@ (8000b1c <HAL_TIM_Base_MspInit+0x70>)
 8000b08:	6c1b      	ldr	r3, [r3, #64]	@ 0x40
 8000b0a:	f003 0308 	and.w	r3, r3, #8
 8000b0e:	60bb      	str	r3, [r7, #8]
 8000b10:	68bb      	ldr	r3, [r7, #8]
}
 8000b12:	bf00      	nop
 8000b14:	3710      	adds	r7, #16
 8000b16:	46bd      	mov	sp, r7
 8000b18:	bd80      	pop	{r7, pc}
 8000b1a:	bf00      	nop
 8000b1c:	40023800 	.word	0x40023800
 8000b20:	40000c00 	.word	0x40000c00

08000b24 <HAL_TIM_MspPostInit>:

void HAL_TIM_MspPostInit(TIM_HandleTypeDef* htim)
{
 8000b24:	b580      	push	{r7, lr}
 8000b26:	b088      	sub	sp, #32
 8000b28:	af00      	add	r7, sp, #0
 8000b2a:	6078      	str	r0, [r7, #4]
  GPIO_InitTypeDef GPIO_InitStruct = {0};
 8000b2c:	f107 030c 	add.w	r3, r7, #12
 8000b30:	2200      	movs	r2, #0
 8000b32:	601a      	str	r2, [r3, #0]
 8000b34:	605a      	str	r2, [r3, #4]
 8000b36:	609a      	str	r2, [r3, #8]
 8000b38:	60da      	str	r2, [r3, #12]
 8000b3a:	611a      	str	r2, [r3, #16]
  if(htim->Instance==TIM5)
 8000b3c:	687b      	ldr	r3, [r7, #4]
 8000b3e:	681b      	ldr	r3, [r3, #0]
 8000b40:	4a12      	ldr	r2, [pc, #72]	@ (8000b8c <HAL_TIM_MspPostInit+0x68>)
 8000b42:	4293      	cmp	r3, r2
 8000b44:	d11d      	bne.n	8000b82 <HAL_TIM_MspPostInit+0x5e>
  {
  /* USER CODE BEGIN TIM5_MspPostInit 0 */

  /* USER CODE END TIM5_MspPostInit 0 */

    __HAL_RCC_GPIOA_CLK_ENABLE();
 8000b46:	2300      	movs	r3, #0
 8000b48:	60bb      	str	r3, [r7, #8]
 8000b4a:	4b11      	ldr	r3, [pc, #68]	@ (8000b90 <HAL_TIM_MspPostInit+0x6c>)
 8000b4c:	6b1b      	ldr	r3, [r3, #48]	@ 0x30
 8000b4e:	4a10      	ldr	r2, [pc, #64]	@ (8000b90 <HAL_TIM_MspPostInit+0x6c>)
 8000b50:	f043 0301 	orr.w	r3, r3, #1
 8000b54:	6313      	str	r3, [r2, #48]	@ 0x30
 8000b56:	4b0e      	ldr	r3, [pc, #56]	@ (8000b90 <HAL_TIM_MspPostInit+0x6c>)
 8000b58:	6b1b      	ldr	r3, [r3, #48]	@ 0x30
 8000b5a:	f003 0301 	and.w	r3, r3, #1
 8000b5e:	60bb      	str	r3, [r7, #8]
 8000b60:	68bb      	ldr	r3, [r7, #8]
    /**TIM5 GPIO Configuration
    PA0-WKUP     ------> TIM5_CH1
    */
    GPIO_InitStruct.Pin = GPIO_PIN_0;
 8000b62:	2301      	movs	r3, #1
 8000b64:	60fb      	str	r3, [r7, #12]
    GPIO_InitStruct.Mode = GPIO_MODE_AF_PP;
 8000b66:	2302      	movs	r3, #2
 8000b68:	613b      	str	r3, [r7, #16]
    GPIO_InitStruct.Pull = GPIO_NOPULL;
 8000b6a:	2300      	movs	r3, #0
 8000b6c:	617b      	str	r3, [r7, #20]
    GPIO_InitStruct.Speed = GPIO_SPEED_FREQ_LOW;
 8000b6e:	2300      	movs	r3, #0
 8000b70:	61bb      	str	r3, [r7, #24]
    GPIO_InitStruct.Alternate = GPIO_AF2_TIM5;
 8000b72:	2302      	movs	r3, #2
 8000b74:	61fb      	str	r3, [r7, #28]
    HAL_GPIO_Init(GPIOA, &GPIO_InitStruct);
 8000b76:	f107 030c 	add.w	r3, r7, #12
 8000b7a:	4619      	mov	r1, r3
 8000b7c:	4805      	ldr	r0, [pc, #20]	@ (8000b94 <HAL_TIM_MspPostInit+0x70>)
 8000b7e:	f000 fa4d 	bl	800101c <HAL_GPIO_Init>
  /* USER CODE BEGIN TIM5_MspPostInit 1 */

  /* USER CODE END TIM5_MspPostInit 1 */
  }

}
 8000b82:	bf00      	nop
 8000b84:	3720      	adds	r7, #32
 8000b86:	46bd      	mov	sp, r7
 8000b88:	bd80      	pop	{r7, pc}
 8000b8a:	bf00      	nop
 8000b8c:	40000c00 	.word	0x40000c00
 8000b90:	40023800 	.word	0x40023800
 8000b94:	40020000 	.word	0x40020000

08000b98 <HAL_UART_MspInit>:
* This function configures the hardware resources used in this example
* @param huart: UART handle pointer
* @retval None
*/
void HAL_UART_MspInit(UART_HandleTypeDef* huart)
{
 8000b98:	b580      	push	{r7, lr}
 8000b9a:	b08a      	sub	sp, #40	@ 0x28
 8000b9c:	af00      	add	r7, sp, #0
 8000b9e:	6078      	str	r0, [r7, #4]
  GPIO_InitTypeDef GPIO_InitStruct = {0};
 8000ba0:	f107 0314 	add.w	r3, r7, #20
 8000ba4:	2200      	movs	r2, #0
 8000ba6:	601a      	str	r2, [r3, #0]
 8000ba8:	605a      	str	r2, [r3, #4]
 8000baa:	609a      	str	r2, [r3, #8]
 8000bac:	60da      	str	r2, [r3, #12]
 8000bae:	611a      	str	r2, [r3, #16]
  if(huart->Instance==USART2)
 8000bb0:	687b      	ldr	r3, [r7, #4]
 8000bb2:	681b      	ldr	r3, [r3, #0]
 8000bb4:	4a19      	ldr	r2, [pc, #100]	@ (8000c1c <HAL_UART_MspInit+0x84>)
 8000bb6:	4293      	cmp	r3, r2
 8000bb8:	d12b      	bne.n	8000c12 <HAL_UART_MspInit+0x7a>
  {
  /* USER CODE BEGIN USART2_MspInit 0 */

  /* USER CODE END USART2_MspInit 0 */
    /* Peripheral clock enable */
    __HAL_RCC_USART2_CLK_ENABLE();
 8000bba:	2300      	movs	r3, #0
 8000bbc:	613b      	str	r3, [r7, #16]
 8000bbe:	4b18      	ldr	r3, [pc, #96]	@ (8000c20 <HAL_UART_MspInit+0x88>)
 8000bc0:	6c1b      	ldr	r3, [r3, #64]	@ 0x40
 8000bc2:	4a17      	ldr	r2, [pc, #92]	@ (8000c20 <HAL_UART_MspInit+0x88>)
 8000bc4:	f443 3300 	orr.w	r3, r3, #131072	@ 0x20000
 8000bc8:	6413      	str	r3, [r2, #64]	@ 0x40
 8000bca:	4b15      	ldr	r3, [pc, #84]	@ (8000c20 <HAL_UART_MspInit+0x88>)
 8000bcc:	6c1b      	ldr	r3, [r3, #64]	@ 0x40
 8000bce:	f403 3300 	and.w	r3, r3, #131072	@ 0x20000
 8000bd2:	613b      	str	r3, [r7, #16]
 8000bd4:	693b      	ldr	r3, [r7, #16]

    __HAL_RCC_GPIOA_CLK_ENABLE();
 8000bd6:	2300      	movs	r3, #0
 8000bd8:	60fb      	str	r3, [r7, #12]
 8000bda:	4b11      	ldr	r3, [pc, #68]	@ (8000c20 <HAL_UART_MspInit+0x88>)
 8000bdc:	6b1b      	ldr	r3, [r3, #48]	@ 0x30
 8000bde:	4a10      	ldr	r2, [pc, #64]	@ (8000c20 <HAL_UART_MspInit+0x88>)
 8000be0:	f043 0301 	orr.w	r3, r3, #1
 8000be4:	6313      	str	r3, [r2, #48]	@ 0x30
 8000be6:	4b0e      	ldr	r3, [pc, #56]	@ (8000c20 <HAL_UART_MspInit+0x88>)
 8000be8:	6b1b      	ldr	r3, [r3, #48]	@ 0x30
 8000bea:	f003 0301 	and.w	r3, r3, #1
 8000bee:	60fb      	str	r3, [r7, #12]
 8000bf0:	68fb      	ldr	r3, [r7, #12]
    /**USART2 GPIO Configuration
    PA2     ------> USART2_TX
    PA3     ------> USART2_RX
    */
    GPIO_InitStruct.Pin = GPIO_PIN_2|GPIO_PIN_3;
 8000bf2:	230c      	movs	r3, #12
 8000bf4:	617b      	str	r3, [r7, #20]
    GPIO_InitStruct.Mode = GPIO_MODE_AF_PP;
 8000bf6:	2302      	movs	r3, #2
 8000bf8:	61bb      	str	r3, [r7, #24]
    GPIO_InitStruct.Pull = GPIO_NOPULL;
 8000bfa:	2300      	movs	r3, #0
 8000bfc:	61fb      	str	r3, [r7, #28]
    GPIO_InitStruct.Speed = GPIO_SPEED_FREQ_VERY_HIGH;
 8000bfe:	2303      	movs	r3, #3
 8000c00:	623b      	str	r3, [r7, #32]
    GPIO_InitStruct.Alternate = GPIO_AF7_USART2;
 8000c02:	2307      	movs	r3, #7
 8000c04:	627b      	str	r3, [r7, #36]	@ 0x24
    HAL_GPIO_Init(GPIOA, &GPIO_InitStruct);
 8000c06:	f107 0314 	add.w	r3, r7, #20
 8000c0a:	4619      	mov	r1, r3
 8000c0c:	4805      	ldr	r0, [pc, #20]	@ (8000c24 <HAL_UART_MspInit+0x8c>)
 8000c0e:	f000 fa05 	bl	800101c <HAL_GPIO_Init>

  /* USER CODE END USART2_MspInit 1 */

  }

}
 8000c12:	bf00      	nop
 8000c14:	3728      	adds	r7, #40	@ 0x28
 8000c16:	46bd      	mov	sp, r7
 8000c18:	bd80      	pop	{r7, pc}
 8000c1a:	bf00      	nop
 8000c1c:	40004400 	.word	0x40004400
 8000c20:	40023800 	.word	0x40023800
 8000c24:	40020000 	.word	0x40020000

08000c28 <NMI_Handler>:
/******************************************************************************/
/**
  * @brief This function handles Non maskable interrupt.
  */
void NMI_Handler(void)
{
 8000c28:	b480      	push	{r7}
 8000c2a:	af00      	add	r7, sp, #0
  /* USER CODE BEGIN NonMaskableInt_IRQn 0 */

  /* USER CODE END NonMaskableInt_IRQn 0 */
  /* USER CODE BEGIN NonMaskableInt_IRQn 1 */
   while (1)
 8000c2c:	bf00      	nop
 8000c2e:	e7fd      	b.n	8000c2c <NMI_Handler+0x4>

08000c30 <HardFault_Handler>:

/**
  * @brief This function handles Hard fault interrupt.
  */
void HardFault_Handler(void)
{
 8000c30:	b480      	push	{r7}
 8000c32:	af00      	add	r7, sp, #0
  /* USER CODE BEGIN HardFault_IRQn 0 */

  /* USER CODE END HardFault_IRQn 0 */
  while (1)
 8000c34:	bf00      	nop
 8000c36:	e7fd      	b.n	8000c34 <HardFault_Handler+0x4>

08000c38 <MemManage_Handler>:

/**
  * @brief This function handles Memory management fault.
  */
void MemManage_Handler(void)
{
 8000c38:	b480      	push	{r7}
 8000c3a:	af00      	add	r7, sp, #0
  /* USER CODE BEGIN MemoryManagement_IRQn 0 */

  /* USER CODE END MemoryManagement_IRQn 0 */
  while (1)
 8000c3c:	bf00      	nop
 8000c3e:	e7fd      	b.n	8000c3c <MemManage_Handler+0x4>

08000c40 <BusFault_Handler>:

/**
  * @brief This function handles Pre-fetch fault, memory access fault.
  */
void BusFault_Handler(void)
{
 8000c40:	b480      	push	{r7}
 8000c42:	af00      	add	r7, sp, #0
  /* USER CODE BEGIN BusFault_IRQn 0 */

  /* USER CODE END BusFault_IRQn 0 */
  while (1)
 8000c44:	bf00      	nop
 8000c46:	e7fd      	b.n	8000c44 <BusFault_Handler+0x4>

08000c48 <UsageFault_Handler>:

/**
  * @brief This function handles Undefined instruction or illegal state.
  */
void UsageFault_Handler(void)
{
 8000c48:	b480      	push	{r7}
 8000c4a:	af00      	add	r7, sp, #0
  /* USER CODE BEGIN UsageFault_IRQn 0 */

  /* USER CODE END UsageFault_IRQn 0 */
  while (1)
 8000c4c:	bf00      	nop
 8000c4e:	e7fd      	b.n	8000c4c <UsageFault_Handler+0x4>

08000c50 <SVC_Handler>:

/**
  * @brief This function handles System service call via SWI instruction.
  */
void SVC_Handler(void)
{
 8000c50:	b480      	push	{r7}
 8000c52:	af00      	add	r7, sp, #0

  /* USER CODE END SVCall_IRQn 0 */
  /* USER CODE BEGIN SVCall_IRQn 1 */

  /* USER CODE END SVCall_IRQn 1 */
}
 8000c54:	bf00      	nop
 8000c56:	46bd      	mov	sp, r7
 8000c58:	f85d 7b04 	ldr.w	r7, [sp], #4
 8000c5c:	4770      	bx	lr

08000c5e <DebugMon_Handler>:

/**
  * @brief This function handles Debug monitor.
  */
void DebugMon_Handler(void)
{
 8000c5e:	b480      	push	{r7}
 8000c60:	af00      	add	r7, sp, #0

  /* USER CODE END DebugMonitor_IRQn 0 */
  /* USER CODE BEGIN DebugMonitor_IRQn 1 */

  /* USER CODE END DebugMonitor_IRQn 1 */
}
 8000c62:	bf00      	nop
 8000c64:	46bd      	mov	sp, r7
 8000c66:	f85d 7b04 	ldr.w	r7, [sp], #4
 8000c6a:	4770      	bx	lr

08000c6c <PendSV_Handler>:

/**
  * @brief This function handles Pendable request for system service.
  */
void PendSV_Handler(void)
{
 8000c6c:	b480      	push	{r7}
 8000c6e:	af00      	add	r7, sp, #0

  /* USER CODE END PendSV_IRQn 0 */
  /* USER CODE BEGIN PendSV_IRQn 1 */

  /* USER CODE END PendSV_IRQn 1 */
}
 8000c70:	bf00      	nop
 8000c72:	46bd      	mov	sp, r7
 8000c74:	f85d 7b04 	ldr.w	r7, [sp], #4
 8000c78:	4770      	bx	lr

08000c7a <SysTick_Handler>:

/**
  * @brief This function handles System tick timer.
  */
void SysTick_Handler(void)
{
 8000c7a:	b580      	push	{r7, lr}
 8000c7c:	af00      	add	r7, sp, #0
  /* USER CODE BEGIN SysTick_IRQn 0 */

  /* USER CODE END SysTick_IRQn 0 */
  HAL_IncTick();
 8000c7e:	f000 f89b 	bl	8000db8 <HAL_IncTick>
  /* USER CODE BEGIN SysTick_IRQn 1 */

  /* USER CODE END SysTick_IRQn 1 */
}
 8000c82:	bf00      	nop
 8000c84:	bd80      	pop	{r7, pc}
	...

08000c88 <TIM2_IRQHandler>:

/**
  * @brief This function handles TIM2 global interrupt.
  */
void TIM2_IRQHandler(void)
{
 8000c88:	b580      	push	{r7, lr}
 8000c8a:	af00      	add	r7, sp, #0
  /* USER CODE BEGIN TIM2_IRQn 0 */

  /* USER CODE END TIM2_IRQn 0 */
  HAL_TIM_IRQHandler(&htim2);
 8000c8c:	4802      	ldr	r0, [pc, #8]	@ (8000c98 <TIM2_IRQHandler+0x10>)
 8000c8e:	f001 fa24 	bl	80020da <HAL_TIM_IRQHandler>
  /* USER CODE BEGIN TIM2_IRQn 1 */

  /* USER CODE END TIM2_IRQn 1 */
}
 8000c92:	bf00      	nop
 8000c94:	bd80      	pop	{r7, pc}
 8000c96:	bf00      	nop
 8000c98:	200000d0 	.word	0x200000d0

08000c9c <SystemInit>:
  *         configuration.
  * @param  None
  * @retval None
  */
void SystemInit(void)
{
 8000c9c:	b480      	push	{r7}
 8000c9e:	af00      	add	r7, sp, #0
  /* FPU settings ------------------------------------------------------------*/
  #if (__FPU_PRESENT == 1) && (__FPU_USED == 1)
    SCB->CPACR |= ((3UL << 10*2)|(3UL << 11*2));  /* set CP10 and CP11 Full Access */
 8000ca0:	4b06      	ldr	r3, [pc, #24]	@ (8000cbc <SystemInit+0x20>)
 8000ca2:	f8d3 3088 	ldr.w	r3, [r3, #136]	@ 0x88
 8000ca6:	4a05      	ldr	r2, [pc, #20]	@ (8000cbc <SystemInit+0x20>)
 8000ca8:	f443 0370 	orr.w	r3, r3, #15728640	@ 0xf00000
 8000cac:	f8c2 3088 	str.w	r3, [r2, #136]	@ 0x88

  /* Configure the Vector Table location -------------------------------------*/
#if defined(USER_VECT_TAB_ADDRESS)
  SCB->VTOR = VECT_TAB_BASE_ADDRESS | VECT_TAB_OFFSET; /* Vector Table Relocation in Internal SRAM */
#endif /* USER_VECT_TAB_ADDRESS */
}
 8000cb0:	bf00      	nop
 8000cb2:	46bd      	mov	sp, r7
 8000cb4:	f85d 7b04 	ldr.w	r7, [sp], #4
 8000cb8:	4770      	bx	lr
 8000cba:	bf00      	nop
 8000cbc:	e000ed00 	.word	0xe000ed00

08000cc0 <Reset_Handler>:

    .section  .text.Reset_Handler
  .weak  Reset_Handler
  .type  Reset_Handler, %function
Reset_Handler:  
  ldr   sp, =_estack    		 /* set stack pointer */
 8000cc0:	f8df d034 	ldr.w	sp, [pc, #52]	@ 8000cf8 <LoopFillZerobss+0xe>

/* Call the clock system initialization function.*/
  bl  SystemInit   
 8000cc4:	f7ff ffea 	bl	8000c9c <SystemInit>

/* Copy the data segment initializers from flash to SRAM */  
  ldr r0, =_sdata
 8000cc8:	480c      	ldr	r0, [pc, #48]	@ (8000cfc <LoopFillZerobss+0x12>)
  ldr r1, =_edata
 8000cca:	490d      	ldr	r1, [pc, #52]	@ (8000d00 <LoopFillZerobss+0x16>)
  ldr r2, =_sidata
 8000ccc:	4a0d      	ldr	r2, [pc, #52]	@ (8000d04 <LoopFillZerobss+0x1a>)
  movs r3, #0
 8000cce:	2300      	movs	r3, #0
  b LoopCopyDataInit
 8000cd0:	e002      	b.n	8000cd8 <LoopCopyDataInit>

08000cd2 <CopyDataInit>:

CopyDataInit:
  ldr r4, [r2, r3]
 8000cd2:	58d4      	ldr	r4, [r2, r3]
  str r4, [r0, r3]
 8000cd4:	50c4      	str	r4, [r0, r3]
  adds r3, r3, #4
 8000cd6:	3304      	adds	r3, #4

08000cd8 <LoopCopyDataInit>:

LoopCopyDataInit:
  adds r4, r0, r3
 8000cd8:	18c4      	adds	r4, r0, r3
  cmp r4, r1
 8000cda:	428c      	cmp	r4, r1
  bcc CopyDataInit
 8000cdc:	d3f9      	bcc.n	8000cd2 <CopyDataInit>
  
/* Zero fill the bss segment. */
  ldr r2, =_sbss
 8000cde:	4a0a      	ldr	r2, [pc, #40]	@ (8000d08 <LoopFillZerobss+0x1e>)
  ldr r4, =_ebss
 8000ce0:	4c0a      	ldr	r4, [pc, #40]	@ (8000d0c <LoopFillZerobss+0x22>)
  movs r3, #0
 8000ce2:	2300      	movs	r3, #0
  b LoopFillZerobss
 8000ce4:	e001      	b.n	8000cea <LoopFillZerobss>

08000ce6 <FillZerobss>:

FillZerobss:
  str  r3, [r2]
 8000ce6:	6013      	str	r3, [r2, #0]
  adds r2, r2, #4
 8000ce8:	3204      	adds	r2, #4

08000cea <LoopFillZerobss>:

LoopFillZerobss:
  cmp r2, r4
 8000cea:	42a2      	cmp	r2, r4
  bcc FillZerobss
 8000cec:	d3fb      	bcc.n	8000ce6 <FillZerobss>

/* Call static constructors */
    bl __libc_init_array
 8000cee:	f002 fa97 	bl	8003220 <__libc_init_array>
/* Call the application's entry point.*/
  bl  main
 8000cf2:	f7ff fbe9 	bl	80004c8 <main>
  bx  lr    
 8000cf6:	4770      	bx	lr
  ldr   sp, =_estack    		 /* set stack pointer */
 8000cf8:	20020000 	.word	0x20020000
  ldr r0, =_sdata
 8000cfc:	20000000 	.word	0x20000000
  ldr r1, =_edata
 8000d00:	2000000c 	.word	0x2000000c
  ldr r2, =_sidata
 8000d04:	080032a8 	.word	0x080032a8
  ldr r2, =_sbss
 8000d08:	2000000c 	.word	0x2000000c
  ldr r4, =_ebss
 8000d0c:	200001b0 	.word	0x200001b0

08000d10 <ADC_IRQHandler>:
 * @retval None       
*/
    .section  .text.Default_Handler,"ax",%progbits
Default_Handler:
Infinite_Loop:
  b  Infinite_Loop
 8000d10:	e7fe      	b.n	8000d10 <ADC_IRQHandler>
	...

08000d14 <HAL_Init>:
  *         need to ensure that the SysTick time base is always set to 1 millisecond
  *         to have correct HAL operation.
  * @retval HAL status
  */
HAL_StatusTypeDef HAL_Init(void)
{
 8000d14:	b580      	push	{r7, lr}
 8000d16:	af00      	add	r7, sp, #0
  /* Configure Flash prefetch, Instruction cache, Data cache */ 
#if (INSTRUCTION_CACHE_ENABLE != 0U)
  __HAL_FLASH_INSTRUCTION_CACHE_ENABLE();
 8000d18:	4b0e      	ldr	r3, [pc, #56]	@ (8000d54 <HAL_Init+0x40>)
 8000d1a:	681b      	ldr	r3, [r3, #0]
 8000d1c:	4a0d      	ldr	r2, [pc, #52]	@ (8000d54 <HAL_Init+0x40>)
 8000d1e:	f443 7300 	orr.w	r3, r3, #512	@ 0x200
 8000d22:	6013      	str	r3, [r2, #0]
#endif /* INSTRUCTION_CACHE_ENABLE */

#if (DATA_CACHE_ENABLE != 0U)
  __HAL_FLASH_DATA_CACHE_ENABLE();
 8000d24:	4b0b      	ldr	r3, [pc, #44]	@ (8000d54 <HAL_Init+0x40>)
 8000d26:	681b      	ldr	r3, [r3, #0]
 8000d28:	4a0a      	ldr	r2, [pc, #40]	@ (8000d54 <HAL_Init+0x40>)
 8000d2a:	f443 6380 	orr.w	r3, r3, #1024	@ 0x400
 8000d2e:	6013      	str	r3, [r2, #0]
#endif /* DATA_CACHE_ENABLE */

#if (PREFETCH_ENABLE != 0U)
  __HAL_FLASH_PREFETCH_BUFFER_ENABLE();
 8000d30:	4b08      	ldr	r3, [pc, #32]	@ (8000d54 <HAL_Init+0x40>)
 8000d32:	681b      	ldr	r3, [r3, #0]
 8000d34:	4a07      	ldr	r2, [pc, #28]	@ (8000d54 <HAL_Init+0x40>)
 8000d36:	f443 7380 	orr.w	r3, r3, #256	@ 0x100
 8000d3a:	6013      	str	r3, [r2, #0]
#endif /* PREFETCH_ENABLE */

  /* Set Interrupt Group Priority */
  HAL_NVIC_SetPriorityGrouping(NVIC_PRIORITYGROUP_4);
 8000d3c:	2003      	movs	r0, #3
 8000d3e:	f000 f92b 	bl	8000f98 <HAL_NVIC_SetPriorityGrouping>

  /* Use systick as time base source and configure 1ms tick (default clock after Reset is HSI) */
  HAL_InitTick(TICK_INT_PRIORITY);
 8000d42:	200f      	movs	r0, #15
 8000d44:	f000 f808 	bl	8000d58 <HAL_InitTick>

  /* Init the low level hardware */
  HAL_MspInit();
 8000d48:	f7ff fdfc 	bl	8000944 <HAL_MspInit>

  /* Return function status */
  return HAL_OK;
 8000d4c:	2300      	movs	r3, #0
}
 8000d4e:	4618      	mov	r0, r3
 8000d50:	bd80      	pop	{r7, pc}
 8000d52:	bf00      	nop
 8000d54:	40023c00 	.word	0x40023c00

08000d58 <HAL_InitTick>:
  *       implementation  in user file.
  * @param TickPriority Tick interrupt priority.
  * @retval HAL status
  */
__weak HAL_StatusTypeDef HAL_InitTick(uint32_t TickPriority)
{
 8000d58:	b580      	push	{r7, lr}
 8000d5a:	b082      	sub	sp, #8
 8000d5c:	af00      	add	r7, sp, #0
 8000d5e:	6078      	str	r0, [r7, #4]
  /* Configure the SysTick to have interrupt in 1ms time basis*/
  if (HAL_SYSTICK_Config(SystemCoreClock / (1000U / uwTickFreq)) > 0U)
 8000d60:	4b12      	ldr	r3, [pc, #72]	@ (8000dac <HAL_InitTick+0x54>)
 8000d62:	681a      	ldr	r2, [r3, #0]
 8000d64:	4b12      	ldr	r3, [pc, #72]	@ (8000db0 <HAL_InitTick+0x58>)
 8000d66:	781b      	ldrb	r3, [r3, #0]
 8000d68:	4619      	mov	r1, r3
 8000d6a:	f44f 737a 	mov.w	r3, #1000	@ 0x3e8
 8000d6e:	fbb3 f3f1 	udiv	r3, r3, r1
 8000d72:	fbb2 f3f3 	udiv	r3, r2, r3
 8000d76:	4618      	mov	r0, r3
 8000d78:	f000 f943 	bl	8001002 <HAL_SYSTICK_Config>
 8000d7c:	4603      	mov	r3, r0
 8000d7e:	2b00      	cmp	r3, #0
 8000d80:	d001      	beq.n	8000d86 <HAL_InitTick+0x2e>
  {
    return HAL_ERROR;
 8000d82:	2301      	movs	r3, #1
 8000d84:	e00e      	b.n	8000da4 <HAL_InitTick+0x4c>
  }

  /* Configure the SysTick IRQ priority */
  if (TickPriority < (1UL << __NVIC_PRIO_BITS))
 8000d86:	687b      	ldr	r3, [r7, #4]
 8000d88:	2b0f      	cmp	r3, #15
 8000d8a:	d80a      	bhi.n	8000da2 <HAL_InitTick+0x4a>
  {
    HAL_NVIC_SetPriority(SysTick_IRQn, TickPriority, 0U);
 8000d8c:	2200      	movs	r2, #0
 8000d8e:	6879      	ldr	r1, [r7, #4]
 8000d90:	f04f 30ff 	mov.w	r0, #4294967295
 8000d94:	f000 f90b 	bl	8000fae <HAL_NVIC_SetPriority>
    uwTickPrio = TickPriority;
 8000d98:	4a06      	ldr	r2, [pc, #24]	@ (8000db4 <HAL_InitTick+0x5c>)
 8000d9a:	687b      	ldr	r3, [r7, #4]
 8000d9c:	6013      	str	r3, [r2, #0]
  {
    return HAL_ERROR;
  }

  /* Return function status */
  return HAL_OK;
 8000d9e:	2300      	movs	r3, #0
 8000da0:	e000      	b.n	8000da4 <HAL_InitTick+0x4c>
    return HAL_ERROR;
 8000da2:	2301      	movs	r3, #1
}
 8000da4:	4618      	mov	r0, r3
 8000da6:	3708      	adds	r7, #8
 8000da8:	46bd      	mov	sp, r7
 8000daa:	bd80      	pop	{r7, pc}
 8000dac:	20000000 	.word	0x20000000
 8000db0:	20000008 	.word	0x20000008
 8000db4:	20000004 	.word	0x20000004

08000db8 <HAL_IncTick>:
 * @note This function is declared as __weak to be overwritten in case of other 
  *      implementations in user file.
  * @retval None
  */
__weak void HAL_IncTick(void)
{
 8000db8:	b480      	push	{r7}
 8000dba:	af00      	add	r7, sp, #0
  uwTick += uwTickFreq;
 8000dbc:	4b06      	ldr	r3, [pc, #24]	@ (8000dd8 <HAL_IncTick+0x20>)
 8000dbe:	781b      	ldrb	r3, [r3, #0]
 8000dc0:	461a      	mov	r2, r3
 8000dc2:	4b06      	ldr	r3, [pc, #24]	@ (8000ddc <HAL_IncTick+0x24>)
 8000dc4:	681b      	ldr	r3, [r3, #0]
 8000dc6:	4413      	add	r3, r2
 8000dc8:	4a04      	ldr	r2, [pc, #16]	@ (8000ddc <HAL_IncTick+0x24>)
 8000dca:	6013      	str	r3, [r2, #0]
}
 8000dcc:	bf00      	nop
 8000dce:	46bd      	mov	sp, r7
 8000dd0:	f85d 7b04 	ldr.w	r7, [sp], #4
 8000dd4:	4770      	bx	lr
 8000dd6:	bf00      	nop
 8000dd8:	20000008 	.word	0x20000008
 8000ddc:	200001ac 	.word	0x200001ac

08000de0 <HAL_GetTick>:
  * @note This function is declared as __weak to be overwritten in case of other 
  *       implementations in user file.
  * @retval tick value
  */
__weak uint32_t HAL_GetTick(void)
{
 8000de0:	b480      	push	{r7}
 8000de2:	af00      	add	r7, sp, #0
  return uwTick;
 8000de4:	4b03      	ldr	r3, [pc, #12]	@ (8000df4 <HAL_GetTick+0x14>)
 8000de6:	681b      	ldr	r3, [r3, #0]
}
 8000de8:	4618      	mov	r0, r3
 8000dea:	46bd      	mov	sp, r7
 8000dec:	f85d 7b04 	ldr.w	r7, [sp], #4
 8000df0:	4770      	bx	lr
 8000df2:	bf00      	nop
 8000df4:	200001ac 	.word	0x200001ac

08000df8 <__NVIC_SetPriorityGrouping>:
           In case of a conflict between priority grouping and available
           priority bits (__NVIC_PRIO_BITS), the smallest possible priority group is set.
  \param [in]      PriorityGroup  Priority grouping field.
 */
__STATIC_INLINE void __NVIC_SetPriorityGrouping(uint32_t PriorityGroup)
{
 8000df8:	b480      	push	{r7}
 8000dfa:	b085      	sub	sp, #20
 8000dfc:	af00      	add	r7, sp, #0
 8000dfe:	6078      	str	r0, [r7, #4]
  uint32_t reg_value;
  uint32_t PriorityGroupTmp = (PriorityGroup & (uint32_t)0x07UL);             /* only values 0..7 are used          */
 8000e00:	687b      	ldr	r3, [r7, #4]
 8000e02:	f003 0307 	and.w	r3, r3, #7
 8000e06:	60fb      	str	r3, [r7, #12]

  reg_value  =  SCB->AIRCR;                                                   /* read old register configuration    */
 8000e08:	4b0c      	ldr	r3, [pc, #48]	@ (8000e3c <__NVIC_SetPriorityGrouping+0x44>)
 8000e0a:	68db      	ldr	r3, [r3, #12]
 8000e0c:	60bb      	str	r3, [r7, #8]
  reg_value &= ~((uint32_t)(SCB_AIRCR_VECTKEY_Msk | SCB_AIRCR_PRIGROUP_Msk)); /* clear bits to change               */
 8000e0e:	68ba      	ldr	r2, [r7, #8]
 8000e10:	f64f 03ff 	movw	r3, #63743	@ 0xf8ff
 8000e14:	4013      	ands	r3, r2
 8000e16:	60bb      	str	r3, [r7, #8]
  reg_value  =  (reg_value                                   |
                ((uint32_t)0x5FAUL << SCB_AIRCR_VECTKEY_Pos) |
                (PriorityGroupTmp << SCB_AIRCR_PRIGROUP_Pos)  );              /* Insert write key and priority group */
 8000e18:	68fb      	ldr	r3, [r7, #12]
 8000e1a:	021a      	lsls	r2, r3, #8
                ((uint32_t)0x5FAUL << SCB_AIRCR_VECTKEY_Pos) |
 8000e1c:	68bb      	ldr	r3, [r7, #8]
 8000e1e:	4313      	orrs	r3, r2
  reg_value  =  (reg_value                                   |
 8000e20:	f043 63bf 	orr.w	r3, r3, #100139008	@ 0x5f80000
 8000e24:	f443 3300 	orr.w	r3, r3, #131072	@ 0x20000
 8000e28:	60bb      	str	r3, [r7, #8]
  SCB->AIRCR =  reg_value;
 8000e2a:	4a04      	ldr	r2, [pc, #16]	@ (8000e3c <__NVIC_SetPriorityGrouping+0x44>)
 8000e2c:	68bb      	ldr	r3, [r7, #8]
 8000e2e:	60d3      	str	r3, [r2, #12]
}
 8000e30:	bf00      	nop
 8000e32:	3714      	adds	r7, #20
 8000e34:	46bd      	mov	sp, r7
 8000e36:	f85d 7b04 	ldr.w	r7, [sp], #4
 8000e3a:	4770      	bx	lr
 8000e3c:	e000ed00 	.word	0xe000ed00

08000e40 <__NVIC_GetPriorityGrouping>:
  \brief   Get Priority Grouping
  \details Reads the priority grouping field from the NVIC Interrupt Controller.
  \return                Priority grouping field (SCB->AIRCR [10:8] PRIGROUP field).
 */
__STATIC_INLINE uint32_t __NVIC_GetPriorityGrouping(void)
{
 8000e40:	b480      	push	{r7}
 8000e42:	af00      	add	r7, sp, #0
  return ((uint32_t)((SCB->AIRCR & SCB_AIRCR_PRIGROUP_Msk) >> SCB_AIRCR_PRIGROUP_Pos));
 8000e44:	4b04      	ldr	r3, [pc, #16]	@ (8000e58 <__NVIC_GetPriorityGrouping+0x18>)
 8000e46:	68db      	ldr	r3, [r3, #12]
 8000e48:	0a1b      	lsrs	r3, r3, #8
 8000e4a:	f003 0307 	and.w	r3, r3, #7
}
 8000e4e:	4618      	mov	r0, r3
 8000e50:	46bd      	mov	sp, r7
 8000e52:	f85d 7b04 	ldr.w	r7, [sp], #4
 8000e56:	4770      	bx	lr
 8000e58:	e000ed00 	.word	0xe000ed00

08000e5c <__NVIC_EnableIRQ>:
  \details Enables a device specific interrupt in the NVIC interrupt controller.
  \param [in]      IRQn  Device specific interrupt number.
  \note    IRQn must not be negative.
 */
__STATIC_INLINE void __NVIC_EnableIRQ(IRQn_Type IRQn)
{
 8000e5c:	b480      	push	{r7}
 8000e5e:	b083      	sub	sp, #12
 8000e60:	af00      	add	r7, sp, #0
 8000e62:	4603      	mov	r3, r0
 8000e64:	71fb      	strb	r3, [r7, #7]
  if ((int32_t)(IRQn) >= 0)
 8000e66:	f997 3007 	ldrsb.w	r3, [r7, #7]
 8000e6a:	2b00      	cmp	r3, #0
 8000e6c:	db0b      	blt.n	8000e86 <__NVIC_EnableIRQ+0x2a>
  {
    __COMPILER_BARRIER();
    NVIC->ISER[(((uint32_t)IRQn) >> 5UL)] = (uint32_t)(1UL << (((uint32_t)IRQn) & 0x1FUL));
 8000e6e:	79fb      	ldrb	r3, [r7, #7]
 8000e70:	f003 021f 	and.w	r2, r3, #31
 8000e74:	4907      	ldr	r1, [pc, #28]	@ (8000e94 <__NVIC_EnableIRQ+0x38>)
 8000e76:	f997 3007 	ldrsb.w	r3, [r7, #7]
 8000e7a:	095b      	lsrs	r3, r3, #5
 8000e7c:	2001      	movs	r0, #1
 8000e7e:	fa00 f202 	lsl.w	r2, r0, r2
 8000e82:	f841 2023 	str.w	r2, [r1, r3, lsl #2]
    __COMPILER_BARRIER();
  }
}
 8000e86:	bf00      	nop
 8000e88:	370c      	adds	r7, #12
 8000e8a:	46bd      	mov	sp, r7
 8000e8c:	f85d 7b04 	ldr.w	r7, [sp], #4
 8000e90:	4770      	bx	lr
 8000e92:	bf00      	nop
 8000e94:	e000e100 	.word	0xe000e100

08000e98 <__NVIC_SetPriority>:
  \param [in]      IRQn  Interrupt number.
  \param [in]  priority  Priority to set.
  \note    The priority cannot be set for every processor exception.
 */
__STATIC_INLINE void __NVIC_SetPriority(IRQn_Type IRQn, uint32_t priority)
{
 8000e98:	b480      	push	{r7}
 8000e9a:	b083      	sub	sp, #12
 8000e9c:	af00      	add	r7, sp, #0
 8000e9e:	4603      	mov	r3, r0
 8000ea0:	6039      	str	r1, [r7, #0]
 8000ea2:	71fb      	strb	r3, [r7, #7]
  if ((int32_t)(IRQn) >= 0)
 8000ea4:	f997 3007 	ldrsb.w	r3, [r7, #7]
 8000ea8:	2b00      	cmp	r3, #0
 8000eaa:	db0a      	blt.n	8000ec2 <__NVIC_SetPriority+0x2a>
  {
    NVIC->IP[((uint32_t)IRQn)]               = (uint8_t)((priority << (8U - __NVIC_PRIO_BITS)) & (uint32_t)0xFFUL);
 8000eac:	683b      	ldr	r3, [r7, #0]
 8000eae:	b2da      	uxtb	r2, r3
 8000eb0:	490c      	ldr	r1, [pc, #48]	@ (8000ee4 <__NVIC_SetPriority+0x4c>)
 8000eb2:	f997 3007 	ldrsb.w	r3, [r7, #7]
 8000eb6:	0112      	lsls	r2, r2, #4
 8000eb8:	b2d2      	uxtb	r2, r2
 8000eba:	440b      	add	r3, r1
 8000ebc:	f883 2300 	strb.w	r2, [r3, #768]	@ 0x300
  }
  else
  {
    SCB->SHP[(((uint32_t)IRQn) & 0xFUL)-4UL] = (uint8_t)((priority << (8U - __NVIC_PRIO_BITS)) & (uint32_t)0xFFUL);
  }
}
 8000ec0:	e00a      	b.n	8000ed8 <__NVIC_SetPriority+0x40>
    SCB->SHP[(((uint32_t)IRQn) & 0xFUL)-4UL] = (uint8_t)((priority << (8U - __NVIC_PRIO_BITS)) & (uint32_t)0xFFUL);
 8000ec2:	683b      	ldr	r3, [r7, #0]
 8000ec4:	b2da      	uxtb	r2, r3
 8000ec6:	4908      	ldr	r1, [pc, #32]	@ (8000ee8 <__NVIC_SetPriority+0x50>)
 8000ec8:	79fb      	ldrb	r3, [r7, #7]
 8000eca:	f003 030f 	and.w	r3, r3, #15
 8000ece:	3b04      	subs	r3, #4
 8000ed0:	0112      	lsls	r2, r2, #4
 8000ed2:	b2d2      	uxtb	r2, r2
 8000ed4:	440b      	add	r3, r1
 8000ed6:	761a      	strb	r2, [r3, #24]
}
 8000ed8:	bf00      	nop
 8000eda:	370c      	adds	r7, #12
 8000edc:	46bd      	mov	sp, r7
 8000ede:	f85d 7b04 	ldr.w	r7, [sp], #4
 8000ee2:	4770      	bx	lr
 8000ee4:	e000e100 	.word	0xe000e100
 8000ee8:	e000ed00 	.word	0xe000ed00

08000eec <NVIC_EncodePriority>:
  \param [in]   PreemptPriority  Preemptive priority value (starting from 0).
  \param [in]       SubPriority  Subpriority value (starting from 0).
  \return                        Encoded priority. Value can be used in the function \ref NVIC_SetPriority().
 */
__STATIC_INLINE uint32_t NVIC_EncodePriority (uint32_t PriorityGroup, uint32_t PreemptPriority, uint32_t SubPriority)
{
 8000eec:	b480      	push	{r7}
 8000eee:	b089      	sub	sp, #36	@ 0x24
 8000ef0:	af00      	add	r7, sp, #0
 8000ef2:	60f8      	str	r0, [r7, #12]
 8000ef4:	60b9      	str	r1, [r7, #8]
 8000ef6:	607a      	str	r2, [r7, #4]
  uint32_t PriorityGroupTmp = (PriorityGroup & (uint32_t)0x07UL);   /* only values 0..7 are used          */
 8000ef8:	68fb      	ldr	r3, [r7, #12]
 8000efa:	f003 0307 	and.w	r3, r3, #7
 8000efe:	61fb      	str	r3, [r7, #28]
  uint32_t PreemptPriorityBits;
  uint32_t SubPriorityBits;

  PreemptPriorityBits = ((7UL - PriorityGroupTmp) > (uint32_t)(__NVIC_PRIO_BITS)) ? (uint32_t)(__NVIC_PRIO_BITS) : (uint32_t)(7UL - PriorityGroupTmp);
 8000f00:	69fb      	ldr	r3, [r7, #28]
 8000f02:	f1c3 0307 	rsb	r3, r3, #7
 8000f06:	2b04      	cmp	r3, #4
 8000f08:	bf28      	it	cs
 8000f0a:	2304      	movcs	r3, #4
 8000f0c:	61bb      	str	r3, [r7, #24]
  SubPriorityBits     = ((PriorityGroupTmp + (uint32_t)(__NVIC_PRIO_BITS)) < (uint32_t)7UL) ? (uint32_t)0UL : (uint32_t)((PriorityGroupTmp - 7UL) + (uint32_t)(__NVIC_PRIO_BITS));
 8000f0e:	69fb      	ldr	r3, [r7, #28]
 8000f10:	3304      	adds	r3, #4
 8000f12:	2b06      	cmp	r3, #6
 8000f14:	d902      	bls.n	8000f1c <NVIC_EncodePriority+0x30>
 8000f16:	69fb      	ldr	r3, [r7, #28]
 8000f18:	3b03      	subs	r3, #3
 8000f1a:	e000      	b.n	8000f1e <NVIC_EncodePriority+0x32>
 8000f1c:	2300      	movs	r3, #0
 8000f1e:	617b      	str	r3, [r7, #20]

  return (
           ((PreemptPriority & (uint32_t)((1UL << (PreemptPriorityBits)) - 1UL)) << SubPriorityBits) |
 8000f20:	f04f 32ff 	mov.w	r2, #4294967295
 8000f24:	69bb      	ldr	r3, [r7, #24]
 8000f26:	fa02 f303 	lsl.w	r3, r2, r3
 8000f2a:	43da      	mvns	r2, r3
 8000f2c:	68bb      	ldr	r3, [r7, #8]
 8000f2e:	401a      	ands	r2, r3
 8000f30:	697b      	ldr	r3, [r7, #20]
 8000f32:	409a      	lsls	r2, r3
           ((SubPriority     & (uint32_t)((1UL << (SubPriorityBits    )) - 1UL)))
 8000f34:	f04f 31ff 	mov.w	r1, #4294967295
 8000f38:	697b      	ldr	r3, [r7, #20]
 8000f3a:	fa01 f303 	lsl.w	r3, r1, r3
 8000f3e:	43d9      	mvns	r1, r3
 8000f40:	687b      	ldr	r3, [r7, #4]
 8000f42:	400b      	ands	r3, r1
           ((PreemptPriority & (uint32_t)((1UL << (PreemptPriorityBits)) - 1UL)) << SubPriorityBits) |
 8000f44:	4313      	orrs	r3, r2
         );
}
 8000f46:	4618      	mov	r0, r3
 8000f48:	3724      	adds	r7, #36	@ 0x24
 8000f4a:	46bd      	mov	sp, r7
 8000f4c:	f85d 7b04 	ldr.w	r7, [sp], #4
 8000f50:	4770      	bx	lr
	...

08000f54 <SysTick_Config>:
  \note    When the variable <b>__Vendor_SysTickConfig</b> is set to 1, then the
           function <b>SysTick_Config</b> is not included. In this case, the file <b><i>device</i>.h</b>
           must contain a vendor-specific implementation of this function.
 */
__STATIC_INLINE uint32_t SysTick_Config(uint32_t ticks)
{
 8000f54:	b580      	push	{r7, lr}
 8000f56:	b082      	sub	sp, #8
 8000f58:	af00      	add	r7, sp, #0
 8000f5a:	6078      	str	r0, [r7, #4]
  if ((ticks - 1UL) > SysTick_LOAD_RELOAD_Msk)
 8000f5c:	687b      	ldr	r3, [r7, #4]
 8000f5e:	3b01      	subs	r3, #1
 8000f60:	f1b3 7f80 	cmp.w	r3, #16777216	@ 0x1000000
 8000f64:	d301      	bcc.n	8000f6a <SysTick_Config+0x16>
  {
    return (1UL);                                                   /* Reload value impossible */
 8000f66:	2301      	movs	r3, #1
 8000f68:	e00f      	b.n	8000f8a <SysTick_Config+0x36>
  }

  SysTick->LOAD  = (uint32_t)(ticks - 1UL);                         /* set reload register */
 8000f6a:	4a0a      	ldr	r2, [pc, #40]	@ (8000f94 <SysTick_Config+0x40>)
 8000f6c:	687b      	ldr	r3, [r7, #4]
 8000f6e:	3b01      	subs	r3, #1
 8000f70:	6053      	str	r3, [r2, #4]
  NVIC_SetPriority (SysTick_IRQn, (1UL << __NVIC_PRIO_BITS) - 1UL); /* set Priority for Systick Interrupt */
 8000f72:	210f      	movs	r1, #15
 8000f74:	f04f 30ff 	mov.w	r0, #4294967295
 8000f78:	f7ff ff8e 	bl	8000e98 <__NVIC_SetPriority>
  SysTick->VAL   = 0UL;                                             /* Load the SysTick Counter Value */
 8000f7c:	4b05      	ldr	r3, [pc, #20]	@ (8000f94 <SysTick_Config+0x40>)
 8000f7e:	2200      	movs	r2, #0
 8000f80:	609a      	str	r2, [r3, #8]
  SysTick->CTRL  = SysTick_CTRL_CLKSOURCE_Msk |
 8000f82:	4b04      	ldr	r3, [pc, #16]	@ (8000f94 <SysTick_Config+0x40>)
 8000f84:	2207      	movs	r2, #7
 8000f86:	601a      	str	r2, [r3, #0]
                   SysTick_CTRL_TICKINT_Msk   |
                   SysTick_CTRL_ENABLE_Msk;                         /* Enable SysTick IRQ and SysTick Timer */
  return (0UL);                                                     /* Function successful */
 8000f88:	2300      	movs	r3, #0
}
 8000f8a:	4618      	mov	r0, r3
 8000f8c:	3708      	adds	r7, #8
 8000f8e:	46bd      	mov	sp, r7
 8000f90:	bd80      	pop	{r7, pc}
 8000f92:	bf00      	nop
 8000f94:	e000e010 	.word	0xe000e010

08000f98 <HAL_NVIC_SetPriorityGrouping>:
  * @note   When the NVIC_PriorityGroup_0 is selected, IRQ preemption is no more possible. 
  *         The pending IRQ priority will be managed only by the subpriority. 
  * @retval None
  */
void HAL_NVIC_SetPriorityGrouping(uint32_t PriorityGroup)
{
 8000f98:	b580      	push	{r7, lr}
 8000f9a:	b082      	sub	sp, #8
 8000f9c:	af00      	add	r7, sp, #0
 8000f9e:	6078      	str	r0, [r7, #4]
  /* Check the parameters */
  assert_param(IS_NVIC_PRIORITY_GROUP(PriorityGroup));
  
  /* Set the PRIGROUP[10:8] bits according to the PriorityGroup parameter value */
  NVIC_SetPriorityGrouping(PriorityGroup);
 8000fa0:	6878      	ldr	r0, [r7, #4]
 8000fa2:	f7ff ff29 	bl	8000df8 <__NVIC_SetPriorityGrouping>
}
 8000fa6:	bf00      	nop
 8000fa8:	3708      	adds	r7, #8
 8000faa:	46bd      	mov	sp, r7
 8000fac:	bd80      	pop	{r7, pc}

08000fae <HAL_NVIC_SetPriority>:
  *         This parameter can be a value between 0 and 15
  *         A lower priority value indicates a higher priority.          
  * @retval None
  */
void HAL_NVIC_SetPriority(IRQn_Type IRQn, uint32_t PreemptPriority, uint32_t SubPriority)
{ 
 8000fae:	b580      	push	{r7, lr}
 8000fb0:	b086      	sub	sp, #24
 8000fb2:	af00      	add	r7, sp, #0
 8000fb4:	4603      	mov	r3, r0
 8000fb6:	60b9      	str	r1, [r7, #8]
 8000fb8:	607a      	str	r2, [r7, #4]
 8000fba:	73fb      	strb	r3, [r7, #15]
  uint32_t prioritygroup = 0x00U;
 8000fbc:	2300      	movs	r3, #0
 8000fbe:	617b      	str	r3, [r7, #20]
  
  /* Check the parameters */
  assert_param(IS_NVIC_SUB_PRIORITY(SubPriority));
  assert_param(IS_NVIC_PREEMPTION_PRIORITY(PreemptPriority));
  
  prioritygroup = NVIC_GetPriorityGrouping();
 8000fc0:	f7ff ff3e 	bl	8000e40 <__NVIC_GetPriorityGrouping>
 8000fc4:	6178      	str	r0, [r7, #20]
  
  NVIC_SetPriority(IRQn, NVIC_EncodePriority(prioritygroup, PreemptPriority, SubPriority));
 8000fc6:	687a      	ldr	r2, [r7, #4]
 8000fc8:	68b9      	ldr	r1, [r7, #8]
 8000fca:	6978      	ldr	r0, [r7, #20]
 8000fcc:	f7ff ff8e 	bl	8000eec <NVIC_EncodePriority>
 8000fd0:	4602      	mov	r2, r0
 8000fd2:	f997 300f 	ldrsb.w	r3, [r7, #15]
 8000fd6:	4611      	mov	r1, r2
 8000fd8:	4618      	mov	r0, r3
 8000fda:	f7ff ff5d 	bl	8000e98 <__NVIC_SetPriority>
}
 8000fde:	bf00      	nop
 8000fe0:	3718      	adds	r7, #24
 8000fe2:	46bd      	mov	sp, r7
 8000fe4:	bd80      	pop	{r7, pc}

08000fe6 <HAL_NVIC_EnableIRQ>:
  *         This parameter can be an enumerator of IRQn_Type enumeration
  *         (For the complete STM32 Devices IRQ Channels list, please refer to the appropriate CMSIS device file (stm32f4xxxx.h))
  * @retval None
  */
void HAL_NVIC_EnableIRQ(IRQn_Type IRQn)
{
 8000fe6:	b580      	push	{r7, lr}
 8000fe8:	b082      	sub	sp, #8
 8000fea:	af00      	add	r7, sp, #0
 8000fec:	4603      	mov	r3, r0
 8000fee:	71fb      	strb	r3, [r7, #7]
  /* Check the parameters */
  assert_param(IS_NVIC_DEVICE_IRQ(IRQn));
  
  /* Enable interrupt */
  NVIC_EnableIRQ(IRQn);
 8000ff0:	f997 3007 	ldrsb.w	r3, [r7, #7]
 8000ff4:	4618      	mov	r0, r3
 8000ff6:	f7ff ff31 	bl	8000e5c <__NVIC_EnableIRQ>
}
 8000ffa:	bf00      	nop
 8000ffc:	3708      	adds	r7, #8
 8000ffe:	46bd      	mov	sp, r7
 8001000:	bd80      	pop	{r7, pc}

08001002 <HAL_SYSTICK_Config>:
  * @param  TicksNumb Specifies the ticks Number of ticks between two interrupts.
  * @retval status:  - 0  Function succeeded.
  *                  - 1  Function failed.
  */
uint32_t HAL_SYSTICK_Config(uint32_t TicksNumb)
{
 8001002:	b580      	push	{r7, lr}
 8001004:	b082      	sub	sp, #8
 8001006:	af00      	add	r7, sp, #0
 8001008:	6078      	str	r0, [r7, #4]
   return SysTick_Config(TicksNumb);
 800100a:	6878      	ldr	r0, [r7, #4]
 800100c:	f7ff ffa2 	bl	8000f54 <SysTick_Config>
 8001010:	4603      	mov	r3, r0
}
 8001012:	4618      	mov	r0, r3
 8001014:	3708      	adds	r7, #8
 8001016:	46bd      	mov	sp, r7
 8001018:	bd80      	pop	{r7, pc}
	...

0800101c <HAL_GPIO_Init>:
  * @param  GPIO_Init pointer to a GPIO_InitTypeDef structure that contains
  *         the configuration information for the specified GPIO peripheral.
  * @retval None
  */
void HAL_GPIO_Init(GPIO_TypeDef  *GPIOx, GPIO_InitTypeDef *GPIO_Init)
{
 800101c:	b480      	push	{r7}
 800101e:	b089      	sub	sp, #36	@ 0x24
 8001020:	af00      	add	r7, sp, #0
 8001022:	6078      	str	r0, [r7, #4]
 8001024:	6039      	str	r1, [r7, #0]
  uint32_t position;
  uint32_t ioposition = 0x00U;
 8001026:	2300      	movs	r3, #0
 8001028:	617b      	str	r3, [r7, #20]
  uint32_t iocurrent = 0x00U;
 800102a:	2300      	movs	r3, #0
 800102c:	613b      	str	r3, [r7, #16]
  uint32_t temp = 0x00U;
 800102e:	2300      	movs	r3, #0
 8001030:	61bb      	str	r3, [r7, #24]
  assert_param(IS_GPIO_ALL_INSTANCE(GPIOx));
  assert_param(IS_GPIO_PIN(GPIO_Init->Pin));
  assert_param(IS_GPIO_MODE(GPIO_Init->Mode));

  /* Configure the port pins */
  for(position = 0U; position < GPIO_NUMBER; position++)
 8001032:	2300      	movs	r3, #0
 8001034:	61fb      	str	r3, [r7, #28]
 8001036:	e159      	b.n	80012ec <HAL_GPIO_Init+0x2d0>
  {
    /* Get the IO position */
    ioposition = 0x01U << position;
 8001038:	2201      	movs	r2, #1
 800103a:	69fb      	ldr	r3, [r7, #28]
 800103c:	fa02 f303 	lsl.w	r3, r2, r3
 8001040:	617b      	str	r3, [r7, #20]
    /* Get the current IO position */
    iocurrent = (uint32_t)(GPIO_Init->Pin) & ioposition;
 8001042:	683b      	ldr	r3, [r7, #0]
 8001044:	681b      	ldr	r3, [r3, #0]
 8001046:	697a      	ldr	r2, [r7, #20]
 8001048:	4013      	ands	r3, r2
 800104a:	613b      	str	r3, [r7, #16]

    if(iocurrent == ioposition)
 800104c:	693a      	ldr	r2, [r7, #16]
 800104e:	697b      	ldr	r3, [r7, #20]
 8001050:	429a      	cmp	r2, r3
 8001052:	f040 8148 	bne.w	80012e6 <HAL_GPIO_Init+0x2ca>
    {
      /*--------------------- GPIO Mode Configuration ------------------------*/
      /* In case of Output or Alternate function mode selection */
      if(((GPIO_Init->Mode & GPIO_MODE) == MODE_OUTPUT) || \
 8001056:	683b      	ldr	r3, [r7, #0]
 8001058:	685b      	ldr	r3, [r3, #4]
 800105a:	f003 0303 	and.w	r3, r3, #3
 800105e:	2b01      	cmp	r3, #1
 8001060:	d005      	beq.n	800106e <HAL_GPIO_Init+0x52>
          (GPIO_Init->Mode & GPIO_MODE) == MODE_AF)
 8001062:	683b      	ldr	r3, [r7, #0]
 8001064:	685b      	ldr	r3, [r3, #4]
 8001066:	f003 0303 	and.w	r3, r3, #3
      if(((GPIO_Init->Mode & GPIO_MODE) == MODE_OUTPUT) || \
 800106a:	2b02      	cmp	r3, #2
 800106c:	d130      	bne.n	80010d0 <HAL_GPIO_Init+0xb4>
      {
        /* Check the Speed parameter */
        assert_param(IS_GPIO_SPEED(GPIO_Init->Speed));
        /* Configure the IO Speed */
        temp = GPIOx->OSPEEDR; 
 800106e:	687b      	ldr	r3, [r7, #4]
 8001070:	689b      	ldr	r3, [r3, #8]
 8001072:	61bb      	str	r3, [r7, #24]
        temp &= ~(GPIO_OSPEEDER_OSPEEDR0 << (position * 2U));
 8001074:	69fb      	ldr	r3, [r7, #28]
 8001076:	005b      	lsls	r3, r3, #1
 8001078:	2203      	movs	r2, #3
 800107a:	fa02 f303 	lsl.w	r3, r2, r3
 800107e:	43db      	mvns	r3, r3
 8001080:	69ba      	ldr	r2, [r7, #24]
 8001082:	4013      	ands	r3, r2
 8001084:	61bb      	str	r3, [r7, #24]
        temp |= (GPIO_Init->Speed << (position * 2U));
 8001086:	683b      	ldr	r3, [r7, #0]
 8001088:	68da      	ldr	r2, [r3, #12]
 800108a:	69fb      	ldr	r3, [r7, #28]
 800108c:	005b      	lsls	r3, r3, #1
 800108e:	fa02 f303 	lsl.w	r3, r2, r3
 8001092:	69ba      	ldr	r2, [r7, #24]
 8001094:	4313      	orrs	r3, r2
 8001096:	61bb      	str	r3, [r7, #24]
        GPIOx->OSPEEDR = temp;
 8001098:	687b      	ldr	r3, [r7, #4]
 800109a:	69ba      	ldr	r2, [r7, #24]
 800109c:	609a      	str	r2, [r3, #8]

        /* Configure the IO Output Type */
        temp = GPIOx->OTYPER;
 800109e:	687b      	ldr	r3, [r7, #4]
 80010a0:	685b      	ldr	r3, [r3, #4]
 80010a2:	61bb      	str	r3, [r7, #24]
        temp &= ~(GPIO_OTYPER_OT_0 << position) ;
 80010a4:	2201      	movs	r2, #1
 80010a6:	69fb      	ldr	r3, [r7, #28]
 80010a8:	fa02 f303 	lsl.w	r3, r2, r3
 80010ac:	43db      	mvns	r3, r3
 80010ae:	69ba      	ldr	r2, [r7, #24]
 80010b0:	4013      	ands	r3, r2
 80010b2:	61bb      	str	r3, [r7, #24]
        temp |= (((GPIO_Init->Mode & OUTPUT_TYPE) >> OUTPUT_TYPE_Pos) << position);
 80010b4:	683b      	ldr	r3, [r7, #0]
 80010b6:	685b      	ldr	r3, [r3, #4]
 80010b8:	091b      	lsrs	r3, r3, #4
 80010ba:	f003 0201 	and.w	r2, r3, #1
 80010be:	69fb      	ldr	r3, [r7, #28]
 80010c0:	fa02 f303 	lsl.w	r3, r2, r3
 80010c4:	69ba      	ldr	r2, [r7, #24]
 80010c6:	4313      	orrs	r3, r2
 80010c8:	61bb      	str	r3, [r7, #24]
        GPIOx->OTYPER = temp;
 80010ca:	687b      	ldr	r3, [r7, #4]
 80010cc:	69ba      	ldr	r2, [r7, #24]
 80010ce:	605a      	str	r2, [r3, #4]
       }

      if((GPIO_Init->Mode & GPIO_MODE) != MODE_ANALOG)
 80010d0:	683b      	ldr	r3, [r7, #0]
 80010d2:	685b      	ldr	r3, [r3, #4]
 80010d4:	f003 0303 	and.w	r3, r3, #3
 80010d8:	2b03      	cmp	r3, #3
 80010da:	d017      	beq.n	800110c <HAL_GPIO_Init+0xf0>
      {
        /* Check the parameters */
        assert_param(IS_GPIO_PULL(GPIO_Init->Pull));
        
        /* Activate the Pull-up or Pull down resistor for the current IO */
        temp = GPIOx->PUPDR;
 80010dc:	687b      	ldr	r3, [r7, #4]
 80010de:	68db      	ldr	r3, [r3, #12]
 80010e0:	61bb      	str	r3, [r7, #24]
        temp &= ~(GPIO_PUPDR_PUPDR0 << (position * 2U));
 80010e2:	69fb      	ldr	r3, [r7, #28]
 80010e4:	005b      	lsls	r3, r3, #1
 80010e6:	2203      	movs	r2, #3
 80010e8:	fa02 f303 	lsl.w	r3, r2, r3
 80010ec:	43db      	mvns	r3, r3
 80010ee:	69ba      	ldr	r2, [r7, #24]
 80010f0:	4013      	ands	r3, r2
 80010f2:	61bb      	str	r3, [r7, #24]
        temp |= ((GPIO_Init->Pull) << (position * 2U));
 80010f4:	683b      	ldr	r3, [r7, #0]
 80010f6:	689a      	ldr	r2, [r3, #8]
 80010f8:	69fb      	ldr	r3, [r7, #28]
 80010fa:	005b      	lsls	r3, r3, #1
 80010fc:	fa02 f303 	lsl.w	r3, r2, r3
 8001100:	69ba      	ldr	r2, [r7, #24]
 8001102:	4313      	orrs	r3, r2
 8001104:	61bb      	str	r3, [r7, #24]
        GPIOx->PUPDR = temp;
 8001106:	687b      	ldr	r3, [r7, #4]
 8001108:	69ba      	ldr	r2, [r7, #24]
 800110a:	60da      	str	r2, [r3, #12]
      }

      /* In case of Alternate function mode selection */
      if((GPIO_Init->Mode & GPIO_MODE) == MODE_AF)
 800110c:	683b      	ldr	r3, [r7, #0]
 800110e:	685b      	ldr	r3, [r3, #4]
 8001110:	f003 0303 	and.w	r3, r3, #3
 8001114:	2b02      	cmp	r3, #2
 8001116:	d123      	bne.n	8001160 <HAL_GPIO_Init+0x144>
      {
        /* Check the Alternate function parameter */
        assert_param(IS_GPIO_AF(GPIO_Init->Alternate));
        /* Configure Alternate function mapped with the current IO */
        temp = GPIOx->AFR[position >> 3U];
 8001118:	69fb      	ldr	r3, [r7, #28]
 800111a:	08da      	lsrs	r2, r3, #3
 800111c:	687b      	ldr	r3, [r7, #4]
 800111e:	3208      	adds	r2, #8
 8001120:	f853 3022 	ldr.w	r3, [r3, r2, lsl #2]
 8001124:	61bb      	str	r3, [r7, #24]
        temp &= ~(0xFU << ((uint32_t)(position & 0x07U) * 4U)) ;
 8001126:	69fb      	ldr	r3, [r7, #28]
 8001128:	f003 0307 	and.w	r3, r3, #7
 800112c:	009b      	lsls	r3, r3, #2
 800112e:	220f      	movs	r2, #15
 8001130:	fa02 f303 	lsl.w	r3, r2, r3
 8001134:	43db      	mvns	r3, r3
 8001136:	69ba      	ldr	r2, [r7, #24]
 8001138:	4013      	ands	r3, r2
 800113a:	61bb      	str	r3, [r7, #24]
        temp |= ((uint32_t)(GPIO_Init->Alternate) << (((uint32_t)position & 0x07U) * 4U));
 800113c:	683b      	ldr	r3, [r7, #0]
 800113e:	691a      	ldr	r2, [r3, #16]
 8001140:	69fb      	ldr	r3, [r7, #28]
 8001142:	f003 0307 	and.w	r3, r3, #7
 8001146:	009b      	lsls	r3, r3, #2
 8001148:	fa02 f303 	lsl.w	r3, r2, r3
 800114c:	69ba      	ldr	r2, [r7, #24]
 800114e:	4313      	orrs	r3, r2
 8001150:	61bb      	str	r3, [r7, #24]
        GPIOx->AFR[position >> 3U] = temp;
 8001152:	69fb      	ldr	r3, [r7, #28]
 8001154:	08da      	lsrs	r2, r3, #3
 8001156:	687b      	ldr	r3, [r7, #4]
 8001158:	3208      	adds	r2, #8
 800115a:	69b9      	ldr	r1, [r7, #24]
 800115c:	f843 1022 	str.w	r1, [r3, r2, lsl #2]
      }

      /* Configure IO Direction mode (Input, Output, Alternate or Analog) */
      temp = GPIOx->MODER;
 8001160:	687b      	ldr	r3, [r7, #4]
 8001162:	681b      	ldr	r3, [r3, #0]
 8001164:	61bb      	str	r3, [r7, #24]
      temp &= ~(GPIO_MODER_MODER0 << (position * 2U));
 8001166:	69fb      	ldr	r3, [r7, #28]
 8001168:	005b      	lsls	r3, r3, #1
 800116a:	2203      	movs	r2, #3
 800116c:	fa02 f303 	lsl.w	r3, r2, r3
 8001170:	43db      	mvns	r3, r3
 8001172:	69ba      	ldr	r2, [r7, #24]
 8001174:	4013      	ands	r3, r2
 8001176:	61bb      	str	r3, [r7, #24]
      temp |= ((GPIO_Init->Mode & GPIO_MODE) << (position * 2U));
 8001178:	683b      	ldr	r3, [r7, #0]
 800117a:	685b      	ldr	r3, [r3, #4]
 800117c:	f003 0203 	and.w	r2, r3, #3
 8001180:	69fb      	ldr	r3, [r7, #28]
 8001182:	005b      	lsls	r3, r3, #1
 8001184:	fa02 f303 	lsl.w	r3, r2, r3
 8001188:	69ba      	ldr	r2, [r7, #24]
 800118a:	4313      	orrs	r3, r2
 800118c:	61bb      	str	r3, [r7, #24]
      GPIOx->MODER = temp;
 800118e:	687b      	ldr	r3, [r7, #4]
 8001190:	69ba      	ldr	r2, [r7, #24]
 8001192:	601a      	str	r2, [r3, #0]

      /*--------------------- EXTI Mode Configuration ------------------------*/
      /* Configure the External Interrupt or event for the current IO */
      if((GPIO_Init->Mode & EXTI_MODE) != 0x00U)
 8001194:	683b      	ldr	r3, [r7, #0]
 8001196:	685b      	ldr	r3, [r3, #4]
 8001198:	f403 3340 	and.w	r3, r3, #196608	@ 0x30000
 800119c:	2b00      	cmp	r3, #0
 800119e:	f000 80a2 	beq.w	80012e6 <HAL_GPIO_Init+0x2ca>
      {
        /* Enable SYSCFG Clock */
        __HAL_RCC_SYSCFG_CLK_ENABLE();
 80011a2:	2300      	movs	r3, #0
 80011a4:	60fb      	str	r3, [r7, #12]
 80011a6:	4b57      	ldr	r3, [pc, #348]	@ (8001304 <HAL_GPIO_Init+0x2e8>)
 80011a8:	6c5b      	ldr	r3, [r3, #68]	@ 0x44
 80011aa:	4a56      	ldr	r2, [pc, #344]	@ (8001304 <HAL_GPIO_Init+0x2e8>)
 80011ac:	f443 4380 	orr.w	r3, r3, #16384	@ 0x4000
 80011b0:	6453      	str	r3, [r2, #68]	@ 0x44
 80011b2:	4b54      	ldr	r3, [pc, #336]	@ (8001304 <HAL_GPIO_Init+0x2e8>)
 80011b4:	6c5b      	ldr	r3, [r3, #68]	@ 0x44
 80011b6:	f403 4380 	and.w	r3, r3, #16384	@ 0x4000
 80011ba:	60fb      	str	r3, [r7, #12]
 80011bc:	68fb      	ldr	r3, [r7, #12]

        temp = SYSCFG->EXTICR[position >> 2U];
 80011be:	4a52      	ldr	r2, [pc, #328]	@ (8001308 <HAL_GPIO_Init+0x2ec>)
 80011c0:	69fb      	ldr	r3, [r7, #28]
 80011c2:	089b      	lsrs	r3, r3, #2
 80011c4:	3302      	adds	r3, #2
 80011c6:	f852 3023 	ldr.w	r3, [r2, r3, lsl #2]
 80011ca:	61bb      	str	r3, [r7, #24]
        temp &= ~(0x0FU << (4U * (position & 0x03U)));
 80011cc:	69fb      	ldr	r3, [r7, #28]
 80011ce:	f003 0303 	and.w	r3, r3, #3
 80011d2:	009b      	lsls	r3, r3, #2
 80011d4:	220f      	movs	r2, #15
 80011d6:	fa02 f303 	lsl.w	r3, r2, r3
 80011da:	43db      	mvns	r3, r3
 80011dc:	69ba      	ldr	r2, [r7, #24]
 80011de:	4013      	ands	r3, r2
 80011e0:	61bb      	str	r3, [r7, #24]
        temp |= ((uint32_t)(GPIO_GET_INDEX(GPIOx)) << (4U * (position & 0x03U)));
 80011e2:	687b      	ldr	r3, [r7, #4]
 80011e4:	4a49      	ldr	r2, [pc, #292]	@ (800130c <HAL_GPIO_Init+0x2f0>)
 80011e6:	4293      	cmp	r3, r2
 80011e8:	d019      	beq.n	800121e <HAL_GPIO_Init+0x202>
 80011ea:	687b      	ldr	r3, [r7, #4]
 80011ec:	4a48      	ldr	r2, [pc, #288]	@ (8001310 <HAL_GPIO_Init+0x2f4>)
 80011ee:	4293      	cmp	r3, r2
 80011f0:	d013      	beq.n	800121a <HAL_GPIO_Init+0x1fe>
 80011f2:	687b      	ldr	r3, [r7, #4]
 80011f4:	4a47      	ldr	r2, [pc, #284]	@ (8001314 <HAL_GPIO_Init+0x2f8>)
 80011f6:	4293      	cmp	r3, r2
 80011f8:	d00d      	beq.n	8001216 <HAL_GPIO_Init+0x1fa>
 80011fa:	687b      	ldr	r3, [r7, #4]
 80011fc:	4a46      	ldr	r2, [pc, #280]	@ (8001318 <HAL_GPIO_Init+0x2fc>)
 80011fe:	4293      	cmp	r3, r2
 8001200:	d007      	beq.n	8001212 <HAL_GPIO_Init+0x1f6>
 8001202:	687b      	ldr	r3, [r7, #4]
 8001204:	4a45      	ldr	r2, [pc, #276]	@ (800131c <HAL_GPIO_Init+0x300>)
 8001206:	4293      	cmp	r3, r2
 8001208:	d101      	bne.n	800120e <HAL_GPIO_Init+0x1f2>
 800120a:	2304      	movs	r3, #4
 800120c:	e008      	b.n	8001220 <HAL_GPIO_Init+0x204>
 800120e:	2307      	movs	r3, #7
 8001210:	e006      	b.n	8001220 <HAL_GPIO_Init+0x204>
 8001212:	2303      	movs	r3, #3
 8001214:	e004      	b.n	8001220 <HAL_GPIO_Init+0x204>
 8001216:	2302      	movs	r3, #2
 8001218:	e002      	b.n	8001220 <HAL_GPIO_Init+0x204>
 800121a:	2301      	movs	r3, #1
 800121c:	e000      	b.n	8001220 <HAL_GPIO_Init+0x204>
 800121e:	2300      	movs	r3, #0
 8001220:	69fa      	ldr	r2, [r7, #28]
 8001222:	f002 0203 	and.w	r2, r2, #3
 8001226:	0092      	lsls	r2, r2, #2
 8001228:	4093      	lsls	r3, r2
 800122a:	69ba      	ldr	r2, [r7, #24]
 800122c:	4313      	orrs	r3, r2
 800122e:	61bb      	str	r3, [r7, #24]
        SYSCFG->EXTICR[position >> 2U] = temp;
 8001230:	4935      	ldr	r1, [pc, #212]	@ (8001308 <HAL_GPIO_Init+0x2ec>)
 8001232:	69fb      	ldr	r3, [r7, #28]
 8001234:	089b      	lsrs	r3, r3, #2
 8001236:	3302      	adds	r3, #2
 8001238:	69ba      	ldr	r2, [r7, #24]
 800123a:	f841 2023 	str.w	r2, [r1, r3, lsl #2]

        /* Clear Rising Falling edge configuration */
        temp = EXTI->RTSR;
 800123e:	4b38      	ldr	r3, [pc, #224]	@ (8001320 <HAL_GPIO_Init+0x304>)
 8001240:	689b      	ldr	r3, [r3, #8]
 8001242:	61bb      	str	r3, [r7, #24]
        temp &= ~((uint32_t)iocurrent);
 8001244:	693b      	ldr	r3, [r7, #16]
 8001246:	43db      	mvns	r3, r3
 8001248:	69ba      	ldr	r2, [r7, #24]
 800124a:	4013      	ands	r3, r2
 800124c:	61bb      	str	r3, [r7, #24]
        if((GPIO_Init->Mode & TRIGGER_RISING) != 0x00U)
 800124e:	683b      	ldr	r3, [r7, #0]
 8001250:	685b      	ldr	r3, [r3, #4]
 8001252:	f403 1380 	and.w	r3, r3, #1048576	@ 0x100000
 8001256:	2b00      	cmp	r3, #0
 8001258:	d003      	beq.n	8001262 <HAL_GPIO_Init+0x246>
        {
          temp |= iocurrent;
 800125a:	69ba      	ldr	r2, [r7, #24]
 800125c:	693b      	ldr	r3, [r7, #16]
 800125e:	4313      	orrs	r3, r2
 8001260:	61bb      	str	r3, [r7, #24]
        }
        EXTI->RTSR = temp;
 8001262:	4a2f      	ldr	r2, [pc, #188]	@ (8001320 <HAL_GPIO_Init+0x304>)
 8001264:	69bb      	ldr	r3, [r7, #24]
 8001266:	6093      	str	r3, [r2, #8]

        temp = EXTI->FTSR;
 8001268:	4b2d      	ldr	r3, [pc, #180]	@ (8001320 <HAL_GPIO_Init+0x304>)
 800126a:	68db      	ldr	r3, [r3, #12]
 800126c:	61bb      	str	r3, [r7, #24]
        temp &= ~((uint32_t)iocurrent);
 800126e:	693b      	ldr	r3, [r7, #16]
 8001270:	43db      	mvns	r3, r3
 8001272:	69ba      	ldr	r2, [r7, #24]
 8001274:	4013      	ands	r3, r2
 8001276:	61bb      	str	r3, [r7, #24]
        if((GPIO_Init->Mode & TRIGGER_FALLING) != 0x00U)
 8001278:	683b      	ldr	r3, [r7, #0]
 800127a:	685b      	ldr	r3, [r3, #4]
 800127c:	f403 1300 	and.w	r3, r3, #2097152	@ 0x200000
 8001280:	2b00      	cmp	r3, #0
 8001282:	d003      	beq.n	800128c <HAL_GPIO_Init+0x270>
        {
          temp |= iocurrent;
 8001284:	69ba      	ldr	r2, [r7, #24]
 8001286:	693b      	ldr	r3, [r7, #16]
 8001288:	4313      	orrs	r3, r2
 800128a:	61bb      	str	r3, [r7, #24]
        }
        EXTI->FTSR = temp;
 800128c:	4a24      	ldr	r2, [pc, #144]	@ (8001320 <HAL_GPIO_Init+0x304>)
 800128e:	69bb      	ldr	r3, [r7, #24]
 8001290:	60d3      	str	r3, [r2, #12]

        temp = EXTI->EMR;
 8001292:	4b23      	ldr	r3, [pc, #140]	@ (8001320 <HAL_GPIO_Init+0x304>)
 8001294:	685b      	ldr	r3, [r3, #4]
 8001296:	61bb      	str	r3, [r7, #24]
        temp &= ~((uint32_t)iocurrent);
 8001298:	693b      	ldr	r3, [r7, #16]
 800129a:	43db      	mvns	r3, r3
 800129c:	69ba      	ldr	r2, [r7, #24]
 800129e:	4013      	ands	r3, r2
 80012a0:	61bb      	str	r3, [r7, #24]
        if((GPIO_Init->Mode & EXTI_EVT) != 0x00U)
 80012a2:	683b      	ldr	r3, [r7, #0]
 80012a4:	685b      	ldr	r3, [r3, #4]
 80012a6:	f403 3300 	and.w	r3, r3, #131072	@ 0x20000
 80012aa:	2b00      	cmp	r3, #0
 80012ac:	d003      	beq.n	80012b6 <HAL_GPIO_Init+0x29a>
        {
          temp |= iocurrent;
 80012ae:	69ba      	ldr	r2, [r7, #24]
 80012b0:	693b      	ldr	r3, [r7, #16]
 80012b2:	4313      	orrs	r3, r2
 80012b4:	61bb      	str	r3, [r7, #24]
        }
        EXTI->EMR = temp;
 80012b6:	4a1a      	ldr	r2, [pc, #104]	@ (8001320 <HAL_GPIO_Init+0x304>)
 80012b8:	69bb      	ldr	r3, [r7, #24]
 80012ba:	6053      	str	r3, [r2, #4]

        /* Clear EXTI line configuration */
        temp = EXTI->IMR;
 80012bc:	4b18      	ldr	r3, [pc, #96]	@ (8001320 <HAL_GPIO_Init+0x304>)
 80012be:	681b      	ldr	r3, [r3, #0]
 80012c0:	61bb      	str	r3, [r7, #24]
        temp &= ~((uint32_t)iocurrent);
 80012c2:	693b      	ldr	r3, [r7, #16]
 80012c4:	43db      	mvns	r3, r3
 80012c6:	69ba      	ldr	r2, [r7, #24]
 80012c8:	4013      	ands	r3, r2
 80012ca:	61bb      	str	r3, [r7, #24]
        if((GPIO_Init->Mode & EXTI_IT) != 0x00U)
 80012cc:	683b      	ldr	r3, [r7, #0]
 80012ce:	685b      	ldr	r3, [r3, #4]
 80012d0:	f403 3380 	and.w	r3, r3, #65536	@ 0x10000
 80012d4:	2b00      	cmp	r3, #0
 80012d6:	d003      	beq.n	80012e0 <HAL_GPIO_Init+0x2c4>
        {
          temp |= iocurrent;
 80012d8:	69ba      	ldr	r2, [r7, #24]
 80012da:	693b      	ldr	r3, [r7, #16]
 80012dc:	4313      	orrs	r3, r2
 80012de:	61bb      	str	r3, [r7, #24]
        }
        EXTI->IMR = temp;
 80012e0:	4a0f      	ldr	r2, [pc, #60]	@ (8001320 <HAL_GPIO_Init+0x304>)
 80012e2:	69bb      	ldr	r3, [r7, #24]
 80012e4:	6013      	str	r3, [r2, #0]
  for(position = 0U; position < GPIO_NUMBER; position++)
 80012e6:	69fb      	ldr	r3, [r7, #28]
 80012e8:	3301      	adds	r3, #1
 80012ea:	61fb      	str	r3, [r7, #28]
 80012ec:	69fb      	ldr	r3, [r7, #28]
 80012ee:	2b0f      	cmp	r3, #15
 80012f0:	f67f aea2 	bls.w	8001038 <HAL_GPIO_Init+0x1c>
      }
    }
  }
}
 80012f4:	bf00      	nop
 80012f6:	bf00      	nop
 80012f8:	3724      	adds	r7, #36	@ 0x24
 80012fa:	46bd      	mov	sp, r7
 80012fc:	f85d 7b04 	ldr.w	r7, [sp], #4
 8001300:	4770      	bx	lr
 8001302:	bf00      	nop
 8001304:	40023800 	.word	0x40023800
 8001308:	40013800 	.word	0x40013800
 800130c:	40020000 	.word	0x40020000
 8001310:	40020400 	.word	0x40020400
 8001314:	40020800 	.word	0x40020800
 8001318:	40020c00 	.word	0x40020c00
 800131c:	40021000 	.word	0x40021000
 8001320:	40013c00 	.word	0x40013c00

08001324 <HAL_GPIO_WritePin>:
  *            @arg GPIO_PIN_RESET: to clear the port pin
  *            @arg GPIO_PIN_SET: to set the port pin
  * @retval None
  */
void HAL_GPIO_WritePin(GPIO_TypeDef* GPIOx, uint16_t GPIO_Pin, GPIO_PinState PinState)
{
 8001324:	b480      	push	{r7}
 8001326:	b083      	sub	sp, #12
 8001328:	af00      	add	r7, sp, #0
 800132a:	6078      	str	r0, [r7, #4]
 800132c:	460b      	mov	r3, r1
 800132e:	807b      	strh	r3, [r7, #2]
 8001330:	4613      	mov	r3, r2
 8001332:	707b      	strb	r3, [r7, #1]
  /* Check the parameters */
  assert_param(IS_GPIO_PIN(GPIO_Pin));
  assert_param(IS_GPIO_PIN_ACTION(PinState));

  if(PinState != GPIO_PIN_RESET)
 8001334:	787b      	ldrb	r3, [r7, #1]
 8001336:	2b00      	cmp	r3, #0
 8001338:	d003      	beq.n	8001342 <HAL_GPIO_WritePin+0x1e>
  {
    GPIOx->BSRR = GPIO_Pin;
 800133a:	887a      	ldrh	r2, [r7, #2]
 800133c:	687b      	ldr	r3, [r7, #4]
 800133e:	619a      	str	r2, [r3, #24]
  }
  else
  {
    GPIOx->BSRR = (uint32_t)GPIO_Pin << 16U;
  }
}
 8001340:	e003      	b.n	800134a <HAL_GPIO_WritePin+0x26>
    GPIOx->BSRR = (uint32_t)GPIO_Pin << 16U;
 8001342:	887b      	ldrh	r3, [r7, #2]
 8001344:	041a      	lsls	r2, r3, #16
 8001346:	687b      	ldr	r3, [r7, #4]
 8001348:	619a      	str	r2, [r3, #24]
}
 800134a:	bf00      	nop
 800134c:	370c      	adds	r7, #12
 800134e:	46bd      	mov	sp, r7
 8001350:	f85d 7b04 	ldr.w	r7, [sp], #4
 8001354:	4770      	bx	lr

08001356 <HAL_GPIO_TogglePin>:
  *                      x can be (A..I) to select the GPIO peripheral for STM32F40XX and STM32F427X devices.
  * @param  GPIO_Pin Specifies the pins to be toggled.
  * @retval None
  */
void HAL_GPIO_TogglePin(GPIO_TypeDef* GPIOx, uint16_t GPIO_Pin)
{
 8001356:	b480      	push	{r7}
 8001358:	b085      	sub	sp, #20
 800135a:	af00      	add	r7, sp, #0
 800135c:	6078      	str	r0, [r7, #4]
 800135e:	460b      	mov	r3, r1
 8001360:	807b      	strh	r3, [r7, #2]

  /* Check the parameters */
  assert_param(IS_GPIO_PIN(GPIO_Pin));

  /* get current Output Data Register value */
  odr = GPIOx->ODR;
 8001362:	687b      	ldr	r3, [r7, #4]
 8001364:	695b      	ldr	r3, [r3, #20]
 8001366:	60fb      	str	r3, [r7, #12]

  /* Set selected pins that were at low level, and reset ones that were high */
  GPIOx->BSRR = ((odr & GPIO_Pin) << GPIO_NUMBER) | (~odr & GPIO_Pin);
 8001368:	887a      	ldrh	r2, [r7, #2]
 800136a:	68fb      	ldr	r3, [r7, #12]
 800136c:	4013      	ands	r3, r2
 800136e:	041a      	lsls	r2, r3, #16
 8001370:	68fb      	ldr	r3, [r7, #12]
 8001372:	43d9      	mvns	r1, r3
 8001374:	887b      	ldrh	r3, [r7, #2]
 8001376:	400b      	ands	r3, r1
 8001378:	431a      	orrs	r2, r3
 800137a:	687b      	ldr	r3, [r7, #4]
 800137c:	619a      	str	r2, [r3, #24]
}
 800137e:	bf00      	nop
 8001380:	3714      	adds	r7, #20
 8001382:	46bd      	mov	sp, r7
 8001384:	f85d 7b04 	ldr.w	r7, [sp], #4
 8001388:	4770      	bx	lr
	...

0800138c <HAL_I2C_Init>:
  * @param  hi2c Pointer to a I2C_HandleTypeDef structure that contains
  *                the configuration information for the specified I2C.
  * @retval HAL status
  */
HAL_StatusTypeDef HAL_I2C_Init(I2C_HandleTypeDef *hi2c)
{
 800138c:	b580      	push	{r7, lr}
 800138e:	b084      	sub	sp, #16
 8001390:	af00      	add	r7, sp, #0
 8001392:	6078      	str	r0, [r7, #4]
  uint32_t freqrange;
  uint32_t pclk1;

  /* Check the I2C handle allocation */
  if (hi2c == NULL)
 8001394:	687b      	ldr	r3, [r7, #4]
 8001396:	2b00      	cmp	r3, #0
 8001398:	d101      	bne.n	800139e <HAL_I2C_Init+0x12>
  {
    return HAL_ERROR;
 800139a:	2301      	movs	r3, #1
 800139c:	e12b      	b.n	80015f6 <HAL_I2C_Init+0x26a>
  assert_param(IS_I2C_DUAL_ADDRESS(hi2c->Init.DualAddressMode));
  assert_param(IS_I2C_OWN_ADDRESS2(hi2c->Init.OwnAddress2));
  assert_param(IS_I2C_GENERAL_CALL(hi2c->Init.GeneralCallMode));
  assert_param(IS_I2C_NO_STRETCH(hi2c->Init.NoStretchMode));

  if (hi2c->State == HAL_I2C_STATE_RESET)
 800139e:	687b      	ldr	r3, [r7, #4]
 80013a0:	f893 303d 	ldrb.w	r3, [r3, #61]	@ 0x3d
 80013a4:	b2db      	uxtb	r3, r3
 80013a6:	2b00      	cmp	r3, #0
 80013a8:	d106      	bne.n	80013b8 <HAL_I2C_Init+0x2c>
  {
    /* Allocate lock resource and initialize it */
    hi2c->Lock = HAL_UNLOCKED;
 80013aa:	687b      	ldr	r3, [r7, #4]
 80013ac:	2200      	movs	r2, #0
 80013ae:	f883 203c 	strb.w	r2, [r3, #60]	@ 0x3c

    /* Init the low level hardware : GPIO, CLOCK, NVIC */
    hi2c->MspInitCallback(hi2c);
#else
    /* Init the low level hardware : GPIO, CLOCK, NVIC */
    HAL_I2C_MspInit(hi2c);
 80013b2:	6878      	ldr	r0, [r7, #4]
 80013b4:	f7ff faee 	bl	8000994 <HAL_I2C_MspInit>
#endif /* USE_HAL_I2C_REGISTER_CALLBACKS */
  }

  hi2c->State = HAL_I2C_STATE_BUSY;
 80013b8:	687b      	ldr	r3, [r7, #4]
 80013ba:	2224      	movs	r2, #36	@ 0x24
 80013bc:	f883 203d 	strb.w	r2, [r3, #61]	@ 0x3d

  /* Disable the selected I2C peripheral */
  __HAL_I2C_DISABLE(hi2c);
 80013c0:	687b      	ldr	r3, [r7, #4]
 80013c2:	681b      	ldr	r3, [r3, #0]
 80013c4:	681a      	ldr	r2, [r3, #0]
 80013c6:	687b      	ldr	r3, [r7, #4]
 80013c8:	681b      	ldr	r3, [r3, #0]
 80013ca:	f022 0201 	bic.w	r2, r2, #1
 80013ce:	601a      	str	r2, [r3, #0]

  /*Reset I2C*/
  hi2c->Instance->CR1 |= I2C_CR1_SWRST;
 80013d0:	687b      	ldr	r3, [r7, #4]
 80013d2:	681b      	ldr	r3, [r3, #0]
 80013d4:	681a      	ldr	r2, [r3, #0]
 80013d6:	687b      	ldr	r3, [r7, #4]
 80013d8:	681b      	ldr	r3, [r3, #0]
 80013da:	f442 4200 	orr.w	r2, r2, #32768	@ 0x8000
 80013de:	601a      	str	r2, [r3, #0]
  hi2c->Instance->CR1 &= ~I2C_CR1_SWRST;
 80013e0:	687b      	ldr	r3, [r7, #4]
 80013e2:	681b      	ldr	r3, [r3, #0]
 80013e4:	681a      	ldr	r2, [r3, #0]
 80013e6:	687b      	ldr	r3, [r7, #4]
 80013e8:	681b      	ldr	r3, [r3, #0]
 80013ea:	f422 4200 	bic.w	r2, r2, #32768	@ 0x8000
 80013ee:	601a      	str	r2, [r3, #0]

  /* Get PCLK1 frequency */
  pclk1 = HAL_RCC_GetPCLK1Freq();
 80013f0:	f000 fd40 	bl	8001e74 <HAL_RCC_GetPCLK1Freq>
 80013f4:	60f8      	str	r0, [r7, #12]

  /* Check the minimum allowed PCLK1 frequency */
  if (I2C_MIN_PCLK_FREQ(pclk1, hi2c->Init.ClockSpeed) == 1U)
 80013f6:	687b      	ldr	r3, [r7, #4]
 80013f8:	685b      	ldr	r3, [r3, #4]
 80013fa:	4a81      	ldr	r2, [pc, #516]	@ (8001600 <HAL_I2C_Init+0x274>)
 80013fc:	4293      	cmp	r3, r2
 80013fe:	d807      	bhi.n	8001410 <HAL_I2C_Init+0x84>
 8001400:	68fb      	ldr	r3, [r7, #12]
 8001402:	4a80      	ldr	r2, [pc, #512]	@ (8001604 <HAL_I2C_Init+0x278>)
 8001404:	4293      	cmp	r3, r2
 8001406:	bf94      	ite	ls
 8001408:	2301      	movls	r3, #1
 800140a:	2300      	movhi	r3, #0
 800140c:	b2db      	uxtb	r3, r3
 800140e:	e006      	b.n	800141e <HAL_I2C_Init+0x92>
 8001410:	68fb      	ldr	r3, [r7, #12]
 8001412:	4a7d      	ldr	r2, [pc, #500]	@ (8001608 <HAL_I2C_Init+0x27c>)
 8001414:	4293      	cmp	r3, r2
 8001416:	bf94      	ite	ls
 8001418:	2301      	movls	r3, #1
 800141a:	2300      	movhi	r3, #0
 800141c:	b2db      	uxtb	r3, r3
 800141e:	2b00      	cmp	r3, #0
 8001420:	d001      	beq.n	8001426 <HAL_I2C_Init+0x9a>
  {
    return HAL_ERROR;
 8001422:	2301      	movs	r3, #1
 8001424:	e0e7      	b.n	80015f6 <HAL_I2C_Init+0x26a>
  }

  /* Calculate frequency range */
  freqrange = I2C_FREQRANGE(pclk1);
 8001426:	68fb      	ldr	r3, [r7, #12]
 8001428:	4a78      	ldr	r2, [pc, #480]	@ (800160c <HAL_I2C_Init+0x280>)
 800142a:	fba2 2303 	umull	r2, r3, r2, r3
 800142e:	0c9b      	lsrs	r3, r3, #18
 8001430:	60bb      	str	r3, [r7, #8]

  /*---------------------------- I2Cx CR2 Configuration ----------------------*/
  /* Configure I2Cx: Frequency range */
  MODIFY_REG(hi2c->Instance->CR2, I2C_CR2_FREQ, freqrange);
 8001432:	687b      	ldr	r3, [r7, #4]
 8001434:	681b      	ldr	r3, [r3, #0]
 8001436:	685b      	ldr	r3, [r3, #4]
 8001438:	f023 013f 	bic.w	r1, r3, #63	@ 0x3f
 800143c:	687b      	ldr	r3, [r7, #4]
 800143e:	681b      	ldr	r3, [r3, #0]
 8001440:	68ba      	ldr	r2, [r7, #8]
 8001442:	430a      	orrs	r2, r1
 8001444:	605a      	str	r2, [r3, #4]

  /*---------------------------- I2Cx TRISE Configuration --------------------*/
  /* Configure I2Cx: Rise Time */
  MODIFY_REG(hi2c->Instance->TRISE, I2C_TRISE_TRISE, I2C_RISE_TIME(freqrange, hi2c->Init.ClockSpeed));
 8001446:	687b      	ldr	r3, [r7, #4]
 8001448:	681b      	ldr	r3, [r3, #0]
 800144a:	6a1b      	ldr	r3, [r3, #32]
 800144c:	f023 013f 	bic.w	r1, r3, #63	@ 0x3f
 8001450:	687b      	ldr	r3, [r7, #4]
 8001452:	685b      	ldr	r3, [r3, #4]
 8001454:	4a6a      	ldr	r2, [pc, #424]	@ (8001600 <HAL_I2C_Init+0x274>)
 8001456:	4293      	cmp	r3, r2
 8001458:	d802      	bhi.n	8001460 <HAL_I2C_Init+0xd4>
 800145a:	68bb      	ldr	r3, [r7, #8]
 800145c:	3301      	adds	r3, #1
 800145e:	e009      	b.n	8001474 <HAL_I2C_Init+0xe8>
 8001460:	68bb      	ldr	r3, [r7, #8]
 8001462:	f44f 7296 	mov.w	r2, #300	@ 0x12c
 8001466:	fb02 f303 	mul.w	r3, r2, r3
 800146a:	4a69      	ldr	r2, [pc, #420]	@ (8001610 <HAL_I2C_Init+0x284>)
 800146c:	fba2 2303 	umull	r2, r3, r2, r3
 8001470:	099b      	lsrs	r3, r3, #6
 8001472:	3301      	adds	r3, #1
 8001474:	687a      	ldr	r2, [r7, #4]
 8001476:	6812      	ldr	r2, [r2, #0]
 8001478:	430b      	orrs	r3, r1
 800147a:	6213      	str	r3, [r2, #32]

  /*---------------------------- I2Cx CCR Configuration ----------------------*/
  /* Configure I2Cx: Speed */
  MODIFY_REG(hi2c->Instance->CCR, (I2C_CCR_FS | I2C_CCR_DUTY | I2C_CCR_CCR), I2C_SPEED(pclk1, hi2c->Init.ClockSpeed, hi2c->Init.DutyCycle));
 800147c:	687b      	ldr	r3, [r7, #4]
 800147e:	681b      	ldr	r3, [r3, #0]
 8001480:	69db      	ldr	r3, [r3, #28]
 8001482:	f423 424f 	bic.w	r2, r3, #52992	@ 0xcf00
 8001486:	f022 02ff 	bic.w	r2, r2, #255	@ 0xff
 800148a:	687b      	ldr	r3, [r7, #4]
 800148c:	685b      	ldr	r3, [r3, #4]
 800148e:	495c      	ldr	r1, [pc, #368]	@ (8001600 <HAL_I2C_Init+0x274>)
 8001490:	428b      	cmp	r3, r1
 8001492:	d819      	bhi.n	80014c8 <HAL_I2C_Init+0x13c>
 8001494:	68fb      	ldr	r3, [r7, #12]
 8001496:	1e59      	subs	r1, r3, #1
 8001498:	687b      	ldr	r3, [r7, #4]
 800149a:	685b      	ldr	r3, [r3, #4]
 800149c:	005b      	lsls	r3, r3, #1
 800149e:	fbb1 f3f3 	udiv	r3, r1, r3
 80014a2:	1c59      	adds	r1, r3, #1
 80014a4:	f640 73fc 	movw	r3, #4092	@ 0xffc
 80014a8:	400b      	ands	r3, r1
 80014aa:	2b00      	cmp	r3, #0
 80014ac:	d00a      	beq.n	80014c4 <HAL_I2C_Init+0x138>
 80014ae:	68fb      	ldr	r3, [r7, #12]
 80014b0:	1e59      	subs	r1, r3, #1
 80014b2:	687b      	ldr	r3, [r7, #4]
 80014b4:	685b      	ldr	r3, [r3, #4]
 80014b6:	005b      	lsls	r3, r3, #1
 80014b8:	fbb1 f3f3 	udiv	r3, r1, r3
 80014bc:	3301      	adds	r3, #1
 80014be:	f3c3 030b 	ubfx	r3, r3, #0, #12
 80014c2:	e051      	b.n	8001568 <HAL_I2C_Init+0x1dc>
 80014c4:	2304      	movs	r3, #4
 80014c6:	e04f      	b.n	8001568 <HAL_I2C_Init+0x1dc>
 80014c8:	687b      	ldr	r3, [r7, #4]
 80014ca:	689b      	ldr	r3, [r3, #8]
 80014cc:	2b00      	cmp	r3, #0
 80014ce:	d111      	bne.n	80014f4 <HAL_I2C_Init+0x168>
 80014d0:	68fb      	ldr	r3, [r7, #12]
 80014d2:	1e58      	subs	r0, r3, #1
 80014d4:	687b      	ldr	r3, [r7, #4]
 80014d6:	6859      	ldr	r1, [r3, #4]
 80014d8:	460b      	mov	r3, r1
 80014da:	005b      	lsls	r3, r3, #1
 80014dc:	440b      	add	r3, r1
 80014de:	fbb0 f3f3 	udiv	r3, r0, r3
 80014e2:	3301      	adds	r3, #1
 80014e4:	f3c3 030b 	ubfx	r3, r3, #0, #12
 80014e8:	2b00      	cmp	r3, #0
 80014ea:	bf0c      	ite	eq
 80014ec:	2301      	moveq	r3, #1
 80014ee:	2300      	movne	r3, #0
 80014f0:	b2db      	uxtb	r3, r3
 80014f2:	e012      	b.n	800151a <HAL_I2C_Init+0x18e>
 80014f4:	68fb      	ldr	r3, [r7, #12]
 80014f6:	1e58      	subs	r0, r3, #1
 80014f8:	687b      	ldr	r3, [r7, #4]
 80014fa:	6859      	ldr	r1, [r3, #4]
 80014fc:	460b      	mov	r3, r1
 80014fe:	009b      	lsls	r3, r3, #2
 8001500:	440b      	add	r3, r1
 8001502:	0099      	lsls	r1, r3, #2
 8001504:	440b      	add	r3, r1
 8001506:	fbb0 f3f3 	udiv	r3, r0, r3
 800150a:	3301      	adds	r3, #1
 800150c:	f3c3 030b 	ubfx	r3, r3, #0, #12
 8001510:	2b00      	cmp	r3, #0
 8001512:	bf0c      	ite	eq
 8001514:	2301      	moveq	r3, #1
 8001516:	2300      	movne	r3, #0
 8001518:	b2db      	uxtb	r3, r3
 800151a:	2b00      	cmp	r3, #0
 800151c:	d001      	beq.n	8001522 <HAL_I2C_Init+0x196>
 800151e:	2301      	movs	r3, #1
 8001520:	e022      	b.n	8001568 <HAL_I2C_Init+0x1dc>
 8001522:	687b      	ldr	r3, [r7, #4]
 8001524:	689b      	ldr	r3, [r3, #8]
 8001526:	2b00      	cmp	r3, #0
 8001528:	d10e      	bne.n	8001548 <HAL_I2C_Init+0x1bc>
 800152a:	68fb      	ldr	r3, [r7, #12]
 800152c:	1e58      	subs	r0, r3, #1
 800152e:	687b      	ldr	r3, [r7, #4]
 8001530:	6859      	ldr	r1, [r3, #4]
 8001532:	460b      	mov	r3, r1
 8001534:	005b      	lsls	r3, r3, #1
 8001536:	440b      	add	r3, r1
 8001538:	fbb0 f3f3 	udiv	r3, r0, r3
 800153c:	3301      	adds	r3, #1
 800153e:	f3c3 030b 	ubfx	r3, r3, #0, #12
 8001542:	f443 4300 	orr.w	r3, r3, #32768	@ 0x8000
 8001546:	e00f      	b.n	8001568 <HAL_I2C_Init+0x1dc>
 8001548:	68fb      	ldr	r3, [r7, #12]
 800154a:	1e58      	subs	r0, r3, #1
 800154c:	687b      	ldr	r3, [r7, #4]
 800154e:	6859      	ldr	r1, [r3, #4]
 8001550:	460b      	mov	r3, r1
 8001552:	009b      	lsls	r3, r3, #2
 8001554:	440b      	add	r3, r1
 8001556:	0099      	lsls	r1, r3, #2
 8001558:	440b      	add	r3, r1
 800155a:	fbb0 f3f3 	udiv	r3, r0, r3
 800155e:	3301      	adds	r3, #1
 8001560:	f3c3 030b 	ubfx	r3, r3, #0, #12
 8001564:	f443 4340 	orr.w	r3, r3, #49152	@ 0xc000
 8001568:	6879      	ldr	r1, [r7, #4]
 800156a:	6809      	ldr	r1, [r1, #0]
 800156c:	4313      	orrs	r3, r2
 800156e:	61cb      	str	r3, [r1, #28]

  /*---------------------------- I2Cx CR1 Configuration ----------------------*/
  /* Configure I2Cx: Generalcall and NoStretch mode */
  MODIFY_REG(hi2c->Instance->CR1, (I2C_CR1_ENGC | I2C_CR1_NOSTRETCH), (hi2c->Init.GeneralCallMode | hi2c->Init.NoStretchMode));
 8001570:	687b      	ldr	r3, [r7, #4]
 8001572:	681b      	ldr	r3, [r3, #0]
 8001574:	681b      	ldr	r3, [r3, #0]
 8001576:	f023 01c0 	bic.w	r1, r3, #192	@ 0xc0
 800157a:	687b      	ldr	r3, [r7, #4]
 800157c:	69da      	ldr	r2, [r3, #28]
 800157e:	687b      	ldr	r3, [r7, #4]
 8001580:	6a1b      	ldr	r3, [r3, #32]
 8001582:	431a      	orrs	r2, r3
 8001584:	687b      	ldr	r3, [r7, #4]
 8001586:	681b      	ldr	r3, [r3, #0]
 8001588:	430a      	orrs	r2, r1
 800158a:	601a      	str	r2, [r3, #0]

  /*---------------------------- I2Cx OAR1 Configuration ---------------------*/
  /* Configure I2Cx: Own Address1 and addressing mode */
  MODIFY_REG(hi2c->Instance->OAR1, (I2C_OAR1_ADDMODE | I2C_OAR1_ADD8_9 | I2C_OAR1_ADD1_7 | I2C_OAR1_ADD0), (hi2c->Init.AddressingMode | hi2c->Init.OwnAddress1));
 800158c:	687b      	ldr	r3, [r7, #4]
 800158e:	681b      	ldr	r3, [r3, #0]
 8001590:	689b      	ldr	r3, [r3, #8]
 8001592:	f423 4303 	bic.w	r3, r3, #33536	@ 0x8300
 8001596:	f023 03ff 	bic.w	r3, r3, #255	@ 0xff
 800159a:	687a      	ldr	r2, [r7, #4]
 800159c:	6911      	ldr	r1, [r2, #16]
 800159e:	687a      	ldr	r2, [r7, #4]
 80015a0:	68d2      	ldr	r2, [r2, #12]
 80015a2:	4311      	orrs	r1, r2
 80015a4:	687a      	ldr	r2, [r7, #4]
 80015a6:	6812      	ldr	r2, [r2, #0]
 80015a8:	430b      	orrs	r3, r1
 80015aa:	6093      	str	r3, [r2, #8]

  /*---------------------------- I2Cx OAR2 Configuration ---------------------*/
  /* Configure I2Cx: Dual mode and Own Address2 */
  MODIFY_REG(hi2c->Instance->OAR2, (I2C_OAR2_ENDUAL | I2C_OAR2_ADD2), (hi2c->Init.DualAddressMode | hi2c->Init.OwnAddress2));
 80015ac:	687b      	ldr	r3, [r7, #4]
 80015ae:	681b      	ldr	r3, [r3, #0]
 80015b0:	68db      	ldr	r3, [r3, #12]
 80015b2:	f023 01ff 	bic.w	r1, r3, #255	@ 0xff
 80015b6:	687b      	ldr	r3, [r7, #4]
 80015b8:	695a      	ldr	r2, [r3, #20]
 80015ba:	687b      	ldr	r3, [r7, #4]
 80015bc:	699b      	ldr	r3, [r3, #24]
 80015be:	431a      	orrs	r2, r3
 80015c0:	687b      	ldr	r3, [r7, #4]
 80015c2:	681b      	ldr	r3, [r3, #0]
 80015c4:	430a      	orrs	r2, r1
 80015c6:	60da      	str	r2, [r3, #12]

  /* Enable the selected I2C peripheral */
  __HAL_I2C_ENABLE(hi2c);
 80015c8:	687b      	ldr	r3, [r7, #4]
 80015ca:	681b      	ldr	r3, [r3, #0]
 80015cc:	681a      	ldr	r2, [r3, #0]
 80015ce:	687b      	ldr	r3, [r7, #4]
 80015d0:	681b      	ldr	r3, [r3, #0]
 80015d2:	f042 0201 	orr.w	r2, r2, #1
 80015d6:	601a      	str	r2, [r3, #0]

  hi2c->ErrorCode = HAL_I2C_ERROR_NONE;
 80015d8:	687b      	ldr	r3, [r7, #4]
 80015da:	2200      	movs	r2, #0
 80015dc:	641a      	str	r2, [r3, #64]	@ 0x40
  hi2c->State = HAL_I2C_STATE_READY;
 80015de:	687b      	ldr	r3, [r7, #4]
 80015e0:	2220      	movs	r2, #32
 80015e2:	f883 203d 	strb.w	r2, [r3, #61]	@ 0x3d
  hi2c->PreviousState = I2C_STATE_NONE;
 80015e6:	687b      	ldr	r3, [r7, #4]
 80015e8:	2200      	movs	r2, #0
 80015ea:	631a      	str	r2, [r3, #48]	@ 0x30
  hi2c->Mode = HAL_I2C_MODE_NONE;
 80015ec:	687b      	ldr	r3, [r7, #4]
 80015ee:	2200      	movs	r2, #0
 80015f0:	f883 203e 	strb.w	r2, [r3, #62]	@ 0x3e

  return HAL_OK;
 80015f4:	2300      	movs	r3, #0
}
 80015f6:	4618      	mov	r0, r3
 80015f8:	3710      	adds	r7, #16
 80015fa:	46bd      	mov	sp, r7
 80015fc:	bd80      	pop	{r7, pc}
 80015fe:	bf00      	nop
 8001600:	000186a0 	.word	0x000186a0
 8001604:	001e847f 	.word	0x001e847f
 8001608:	003d08ff 	.word	0x003d08ff
 800160c:	431bde83 	.word	0x431bde83
 8001610:	10624dd3 	.word	0x10624dd3

08001614 <HAL_RCC_OscConfig>:
  *         supported by this API. User should request a transition to HSE Off
  *         first and then HSE On or HSE Bypass.
  * @retval HAL status
  */
__weak HAL_StatusTypeDef HAL_RCC_OscConfig(RCC_OscInitTypeDef  *RCC_OscInitStruct)
{
 8001614:	b580      	push	{r7, lr}
 8001616:	b086      	sub	sp, #24
 8001618:	af00      	add	r7, sp, #0
 800161a:	6078      	str	r0, [r7, #4]
  uint32_t tickstart;
  uint32_t pll_config;
  /* Check Null pointer */
  if (RCC_OscInitStruct == NULL)
 800161c:	687b      	ldr	r3, [r7, #4]
 800161e:	2b00      	cmp	r3, #0
 8001620:	d101      	bne.n	8001626 <HAL_RCC_OscConfig+0x12>
  {
    return HAL_ERROR;
 8001622:	2301      	movs	r3, #1
 8001624:	e267      	b.n	8001af6 <HAL_RCC_OscConfig+0x4e2>
  }

  /* Check the parameters */
  assert_param(IS_RCC_OSCILLATORTYPE(RCC_OscInitStruct->OscillatorType));
  /*------------------------------- HSE Configuration ------------------------*/
  if (((RCC_OscInitStruct->OscillatorType) & RCC_OSCILLATORTYPE_HSE) == RCC_OSCILLATORTYPE_HSE)
 8001626:	687b      	ldr	r3, [r7, #4]
 8001628:	681b      	ldr	r3, [r3, #0]
 800162a:	f003 0301 	and.w	r3, r3, #1
 800162e:	2b00      	cmp	r3, #0
 8001630:	d075      	beq.n	800171e <HAL_RCC_OscConfig+0x10a>
  {
    /* Check the parameters */
    assert_param(IS_RCC_HSE(RCC_OscInitStruct->HSEState));
    /* When the HSE is used as system clock or clock source for PLL in these cases HSE will not disabled */
    if ((__HAL_RCC_GET_SYSCLK_SOURCE() == RCC_CFGR_SWS_HSE) || \
 8001632:	4b88      	ldr	r3, [pc, #544]	@ (8001854 <HAL_RCC_OscConfig+0x240>)
 8001634:	689b      	ldr	r3, [r3, #8]
 8001636:	f003 030c 	and.w	r3, r3, #12
 800163a:	2b04      	cmp	r3, #4
 800163c:	d00c      	beq.n	8001658 <HAL_RCC_OscConfig+0x44>
        ((__HAL_RCC_GET_SYSCLK_SOURCE() == RCC_CFGR_SWS_PLL) && ((RCC->PLLCFGR & RCC_PLLCFGR_PLLSRC) == RCC_PLLCFGR_PLLSRC_HSE)))
 800163e:	4b85      	ldr	r3, [pc, #532]	@ (8001854 <HAL_RCC_OscConfig+0x240>)
 8001640:	689b      	ldr	r3, [r3, #8]
 8001642:	f003 030c 	and.w	r3, r3, #12
    if ((__HAL_RCC_GET_SYSCLK_SOURCE() == RCC_CFGR_SWS_HSE) || \
 8001646:	2b08      	cmp	r3, #8
 8001648:	d112      	bne.n	8001670 <HAL_RCC_OscConfig+0x5c>
        ((__HAL_RCC_GET_SYSCLK_SOURCE() == RCC_CFGR_SWS_PLL) && ((RCC->PLLCFGR & RCC_PLLCFGR_PLLSRC) == RCC_PLLCFGR_PLLSRC_HSE)))
 800164a:	4b82      	ldr	r3, [pc, #520]	@ (8001854 <HAL_RCC_OscConfig+0x240>)
 800164c:	685b      	ldr	r3, [r3, #4]
 800164e:	f403 0380 	and.w	r3, r3, #4194304	@ 0x400000
 8001652:	f5b3 0f80 	cmp.w	r3, #4194304	@ 0x400000
 8001656:	d10b      	bne.n	8001670 <HAL_RCC_OscConfig+0x5c>
    {
      if ((__HAL_RCC_GET_FLAG(RCC_FLAG_HSERDY) != RESET) && (RCC_OscInitStruct->HSEState == RCC_HSE_OFF))
 8001658:	4b7e      	ldr	r3, [pc, #504]	@ (8001854 <HAL_RCC_OscConfig+0x240>)
 800165a:	681b      	ldr	r3, [r3, #0]
 800165c:	f403 3300 	and.w	r3, r3, #131072	@ 0x20000
 8001660:	2b00      	cmp	r3, #0
 8001662:	d05b      	beq.n	800171c <HAL_RCC_OscConfig+0x108>
 8001664:	687b      	ldr	r3, [r7, #4]
 8001666:	685b      	ldr	r3, [r3, #4]
 8001668:	2b00      	cmp	r3, #0
 800166a:	d157      	bne.n	800171c <HAL_RCC_OscConfig+0x108>
      {
        return HAL_ERROR;
 800166c:	2301      	movs	r3, #1
 800166e:	e242      	b.n	8001af6 <HAL_RCC_OscConfig+0x4e2>
      }
    }
    else
    {
      /* Set the new HSE configuration ---------------------------------------*/
      __HAL_RCC_HSE_CONFIG(RCC_OscInitStruct->HSEState);
 8001670:	687b      	ldr	r3, [r7, #4]
 8001672:	685b      	ldr	r3, [r3, #4]
 8001674:	f5b3 3f80 	cmp.w	r3, #65536	@ 0x10000
 8001678:	d106      	bne.n	8001688 <HAL_RCC_OscConfig+0x74>
 800167a:	4b76      	ldr	r3, [pc, #472]	@ (8001854 <HAL_RCC_OscConfig+0x240>)
 800167c:	681b      	ldr	r3, [r3, #0]
 800167e:	4a75      	ldr	r2, [pc, #468]	@ (8001854 <HAL_RCC_OscConfig+0x240>)
 8001680:	f443 3380 	orr.w	r3, r3, #65536	@ 0x10000
 8001684:	6013      	str	r3, [r2, #0]
 8001686:	e01d      	b.n	80016c4 <HAL_RCC_OscConfig+0xb0>
 8001688:	687b      	ldr	r3, [r7, #4]
 800168a:	685b      	ldr	r3, [r3, #4]
 800168c:	f5b3 2fa0 	cmp.w	r3, #327680	@ 0x50000
 8001690:	d10c      	bne.n	80016ac <HAL_RCC_OscConfig+0x98>
 8001692:	4b70      	ldr	r3, [pc, #448]	@ (8001854 <HAL_RCC_OscConfig+0x240>)
 8001694:	681b      	ldr	r3, [r3, #0]
 8001696:	4a6f      	ldr	r2, [pc, #444]	@ (8001854 <HAL_RCC_OscConfig+0x240>)
 8001698:	f443 2380 	orr.w	r3, r3, #262144	@ 0x40000
 800169c:	6013      	str	r3, [r2, #0]
 800169e:	4b6d      	ldr	r3, [pc, #436]	@ (8001854 <HAL_RCC_OscConfig+0x240>)
 80016a0:	681b      	ldr	r3, [r3, #0]
 80016a2:	4a6c      	ldr	r2, [pc, #432]	@ (8001854 <HAL_RCC_OscConfig+0x240>)
 80016a4:	f443 3380 	orr.w	r3, r3, #65536	@ 0x10000
 80016a8:	6013      	str	r3, [r2, #0]
 80016aa:	e00b      	b.n	80016c4 <HAL_RCC_OscConfig+0xb0>
 80016ac:	4b69      	ldr	r3, [pc, #420]	@ (8001854 <HAL_RCC_OscConfig+0x240>)
 80016ae:	681b      	ldr	r3, [r3, #0]
 80016b0:	4a68      	ldr	r2, [pc, #416]	@ (8001854 <HAL_RCC_OscConfig+0x240>)
 80016b2:	f423 3380 	bic.w	r3, r3, #65536	@ 0x10000
 80016b6:	6013      	str	r3, [r2, #0]
 80016b8:	4b66      	ldr	r3, [pc, #408]	@ (8001854 <HAL_RCC_OscConfig+0x240>)
 80016ba:	681b      	ldr	r3, [r3, #0]
 80016bc:	4a65      	ldr	r2, [pc, #404]	@ (8001854 <HAL_RCC_OscConfig+0x240>)
 80016be:	f423 2380 	bic.w	r3, r3, #262144	@ 0x40000
 80016c2:	6013      	str	r3, [r2, #0]

      /* Check the HSE State */
      if ((RCC_OscInitStruct->HSEState) != RCC_HSE_OFF)
 80016c4:	687b      	ldr	r3, [r7, #4]
 80016c6:	685b      	ldr	r3, [r3, #4]
 80016c8:	2b00      	cmp	r3, #0
 80016ca:	d013      	beq.n	80016f4 <HAL_RCC_OscConfig+0xe0>
      {
        /* Get Start Tick */
        tickstart = HAL_GetTick();
 80016cc:	f7ff fb88 	bl	8000de0 <HAL_GetTick>
 80016d0:	6138      	str	r0, [r7, #16]

        /* Wait till HSE is ready */
        while (__HAL_RCC_GET_FLAG(RCC_FLAG_HSERDY) == RESET)
 80016d2:	e008      	b.n	80016e6 <HAL_RCC_OscConfig+0xd2>
        {
          if ((HAL_GetTick() - tickstart) > HSE_TIMEOUT_VALUE)
 80016d4:	f7ff fb84 	bl	8000de0 <HAL_GetTick>
 80016d8:	4602      	mov	r2, r0
 80016da:	693b      	ldr	r3, [r7, #16]
 80016dc:	1ad3      	subs	r3, r2, r3
 80016de:	2b64      	cmp	r3, #100	@ 0x64
 80016e0:	d901      	bls.n	80016e6 <HAL_RCC_OscConfig+0xd2>
          {
            return HAL_TIMEOUT;
 80016e2:	2303      	movs	r3, #3
 80016e4:	e207      	b.n	8001af6 <HAL_RCC_OscConfig+0x4e2>
        while (__HAL_RCC_GET_FLAG(RCC_FLAG_HSERDY) == RESET)
 80016e6:	4b5b      	ldr	r3, [pc, #364]	@ (8001854 <HAL_RCC_OscConfig+0x240>)
 80016e8:	681b      	ldr	r3, [r3, #0]
 80016ea:	f403 3300 	and.w	r3, r3, #131072	@ 0x20000
 80016ee:	2b00      	cmp	r3, #0
 80016f0:	d0f0      	beq.n	80016d4 <HAL_RCC_OscConfig+0xc0>
 80016f2:	e014      	b.n	800171e <HAL_RCC_OscConfig+0x10a>
        }
      }
      else
      {
        /* Get Start Tick */
        tickstart = HAL_GetTick();
 80016f4:	f7ff fb74 	bl	8000de0 <HAL_GetTick>
 80016f8:	6138      	str	r0, [r7, #16]

        /* Wait till HSE is bypassed or disabled */
        while (__HAL_RCC_GET_FLAG(RCC_FLAG_HSERDY) != RESET)
 80016fa:	e008      	b.n	800170e <HAL_RCC_OscConfig+0xfa>
        {
          if ((HAL_GetTick() - tickstart) > HSE_TIMEOUT_VALUE)
 80016fc:	f7ff fb70 	bl	8000de0 <HAL_GetTick>
 8001700:	4602      	mov	r2, r0
 8001702:	693b      	ldr	r3, [r7, #16]
 8001704:	1ad3      	subs	r3, r2, r3
 8001706:	2b64      	cmp	r3, #100	@ 0x64
 8001708:	d901      	bls.n	800170e <HAL_RCC_OscConfig+0xfa>
          {
            return HAL_TIMEOUT;
 800170a:	2303      	movs	r3, #3
 800170c:	e1f3      	b.n	8001af6 <HAL_RCC_OscConfig+0x4e2>
        while (__HAL_RCC_GET_FLAG(RCC_FLAG_HSERDY) != RESET)
 800170e:	4b51      	ldr	r3, [pc, #324]	@ (8001854 <HAL_RCC_OscConfig+0x240>)
 8001710:	681b      	ldr	r3, [r3, #0]
 8001712:	f403 3300 	and.w	r3, r3, #131072	@ 0x20000
 8001716:	2b00      	cmp	r3, #0
 8001718:	d1f0      	bne.n	80016fc <HAL_RCC_OscConfig+0xe8>
 800171a:	e000      	b.n	800171e <HAL_RCC_OscConfig+0x10a>
      if ((__HAL_RCC_GET_FLAG(RCC_FLAG_HSERDY) != RESET) && (RCC_OscInitStruct->HSEState == RCC_HSE_OFF))
 800171c:	bf00      	nop
        }
      }
    }
  }
  /*----------------------------- HSI Configuration --------------------------*/
  if (((RCC_OscInitStruct->OscillatorType) & RCC_OSCILLATORTYPE_HSI) == RCC_OSCILLATORTYPE_HSI)
 800171e:	687b      	ldr	r3, [r7, #4]
 8001720:	681b      	ldr	r3, [r3, #0]
 8001722:	f003 0302 	and.w	r3, r3, #2
 8001726:	2b00      	cmp	r3, #0
 8001728:	d063      	beq.n	80017f2 <HAL_RCC_OscConfig+0x1de>
    /* Check the parameters */
    assert_param(IS_RCC_HSI(RCC_OscInitStruct->HSIState));
    assert_param(IS_RCC_CALIBRATION_VALUE(RCC_OscInitStruct->HSICalibrationValue));

    /* Check if HSI is used as system clock or as PLL source when PLL is selected as system clock */
    if ((__HAL_RCC_GET_SYSCLK_SOURCE() == RCC_CFGR_SWS_HSI) || \
 800172a:	4b4a      	ldr	r3, [pc, #296]	@ (8001854 <HAL_RCC_OscConfig+0x240>)
 800172c:	689b      	ldr	r3, [r3, #8]
 800172e:	f003 030c 	and.w	r3, r3, #12
 8001732:	2b00      	cmp	r3, #0
 8001734:	d00b      	beq.n	800174e <HAL_RCC_OscConfig+0x13a>
        ((__HAL_RCC_GET_SYSCLK_SOURCE() == RCC_CFGR_SWS_PLL) && ((RCC->PLLCFGR & RCC_PLLCFGR_PLLSRC) == RCC_PLLCFGR_PLLSRC_HSI)))
 8001736:	4b47      	ldr	r3, [pc, #284]	@ (8001854 <HAL_RCC_OscConfig+0x240>)
 8001738:	689b      	ldr	r3, [r3, #8]
 800173a:	f003 030c 	and.w	r3, r3, #12
    if ((__HAL_RCC_GET_SYSCLK_SOURCE() == RCC_CFGR_SWS_HSI) || \
 800173e:	2b08      	cmp	r3, #8
 8001740:	d11c      	bne.n	800177c <HAL_RCC_OscConfig+0x168>
        ((__HAL_RCC_GET_SYSCLK_SOURCE() == RCC_CFGR_SWS_PLL) && ((RCC->PLLCFGR & RCC_PLLCFGR_PLLSRC) == RCC_PLLCFGR_PLLSRC_HSI)))
 8001742:	4b44      	ldr	r3, [pc, #272]	@ (8001854 <HAL_RCC_OscConfig+0x240>)
 8001744:	685b      	ldr	r3, [r3, #4]
 8001746:	f403 0380 	and.w	r3, r3, #4194304	@ 0x400000
 800174a:	2b00      	cmp	r3, #0
 800174c:	d116      	bne.n	800177c <HAL_RCC_OscConfig+0x168>
    {
      /* When HSI is used as system clock it will not disabled */
      if ((__HAL_RCC_GET_FLAG(RCC_FLAG_HSIRDY) != RESET) && (RCC_OscInitStruct->HSIState != RCC_HSI_ON))
 800174e:	4b41      	ldr	r3, [pc, #260]	@ (8001854 <HAL_RCC_OscConfig+0x240>)
 8001750:	681b      	ldr	r3, [r3, #0]
 8001752:	f003 0302 	and.w	r3, r3, #2
 8001756:	2b00      	cmp	r3, #0
 8001758:	d005      	beq.n	8001766 <HAL_RCC_OscConfig+0x152>
 800175a:	687b      	ldr	r3, [r7, #4]
 800175c:	68db      	ldr	r3, [r3, #12]
 800175e:	2b01      	cmp	r3, #1
 8001760:	d001      	beq.n	8001766 <HAL_RCC_OscConfig+0x152>
      {
        return HAL_ERROR;
 8001762:	2301      	movs	r3, #1
 8001764:	e1c7      	b.n	8001af6 <HAL_RCC_OscConfig+0x4e2>
      }
      /* Otherwise, just the calibration is allowed */
      else
      {
        /* Adjusts the Internal High Speed oscillator (HSI) calibration value.*/
        __HAL_RCC_HSI_CALIBRATIONVALUE_ADJUST(RCC_OscInitStruct->HSICalibrationValue);
 8001766:	4b3b      	ldr	r3, [pc, #236]	@ (8001854 <HAL_RCC_OscConfig+0x240>)
 8001768:	681b      	ldr	r3, [r3, #0]
 800176a:	f023 02f8 	bic.w	r2, r3, #248	@ 0xf8
 800176e:	687b      	ldr	r3, [r7, #4]
 8001770:	691b      	ldr	r3, [r3, #16]
 8001772:	00db      	lsls	r3, r3, #3
 8001774:	4937      	ldr	r1, [pc, #220]	@ (8001854 <HAL_RCC_OscConfig+0x240>)
 8001776:	4313      	orrs	r3, r2
 8001778:	600b      	str	r3, [r1, #0]
      if ((__HAL_RCC_GET_FLAG(RCC_FLAG_HSIRDY) != RESET) && (RCC_OscInitStruct->HSIState != RCC_HSI_ON))
 800177a:	e03a      	b.n	80017f2 <HAL_RCC_OscConfig+0x1de>
      }
    }
    else
    {
      /* Check the HSI State */
      if ((RCC_OscInitStruct->HSIState) != RCC_HSI_OFF)
 800177c:	687b      	ldr	r3, [r7, #4]
 800177e:	68db      	ldr	r3, [r3, #12]
 8001780:	2b00      	cmp	r3, #0
 8001782:	d020      	beq.n	80017c6 <HAL_RCC_OscConfig+0x1b2>
      {
        /* Enable the Internal High Speed oscillator (HSI). */
        __HAL_RCC_HSI_ENABLE();
 8001784:	4b34      	ldr	r3, [pc, #208]	@ (8001858 <HAL_RCC_OscConfig+0x244>)
 8001786:	2201      	movs	r2, #1
 8001788:	601a      	str	r2, [r3, #0]

        /* Get Start Tick*/
        tickstart = HAL_GetTick();
 800178a:	f7ff fb29 	bl	8000de0 <HAL_GetTick>
 800178e:	6138      	str	r0, [r7, #16]

        /* Wait till HSI is ready */
        while (__HAL_RCC_GET_FLAG(RCC_FLAG_HSIRDY) == RESET)
 8001790:	e008      	b.n	80017a4 <HAL_RCC_OscConfig+0x190>
        {
          if ((HAL_GetTick() - tickstart) > HSI_TIMEOUT_VALUE)
 8001792:	f7ff fb25 	bl	8000de0 <HAL_GetTick>
 8001796:	4602      	mov	r2, r0
 8001798:	693b      	ldr	r3, [r7, #16]
 800179a:	1ad3      	subs	r3, r2, r3
 800179c:	2b02      	cmp	r3, #2
 800179e:	d901      	bls.n	80017a4 <HAL_RCC_OscConfig+0x190>
          {
            return HAL_TIMEOUT;
 80017a0:	2303      	movs	r3, #3
 80017a2:	e1a8      	b.n	8001af6 <HAL_RCC_OscConfig+0x4e2>
        while (__HAL_RCC_GET_FLAG(RCC_FLAG_HSIRDY) == RESET)
 80017a4:	4b2b      	ldr	r3, [pc, #172]	@ (8001854 <HAL_RCC_OscConfig+0x240>)
 80017a6:	681b      	ldr	r3, [r3, #0]
 80017a8:	f003 0302 	and.w	r3, r3, #2
 80017ac:	2b00      	cmp	r3, #0
 80017ae:	d0f0      	beq.n	8001792 <HAL_RCC_OscConfig+0x17e>
          }
        }

        /* Adjusts the Internal High Speed oscillator (HSI) calibration value. */
        __HAL_RCC_HSI_CALIBRATIONVALUE_ADJUST(RCC_OscInitStruct->HSICalibrationValue);
 80017b0:	4b28      	ldr	r3, [pc, #160]	@ (8001854 <HAL_RCC_OscConfig+0x240>)
 80017b2:	681b      	ldr	r3, [r3, #0]
 80017b4:	f023 02f8 	bic.w	r2, r3, #248	@ 0xf8
 80017b8:	687b      	ldr	r3, [r7, #4]
 80017ba:	691b      	ldr	r3, [r3, #16]
 80017bc:	00db      	lsls	r3, r3, #3
 80017be:	4925      	ldr	r1, [pc, #148]	@ (8001854 <HAL_RCC_OscConfig+0x240>)
 80017c0:	4313      	orrs	r3, r2
 80017c2:	600b      	str	r3, [r1, #0]
 80017c4:	e015      	b.n	80017f2 <HAL_RCC_OscConfig+0x1de>
      }
      else
      {
        /* Disable the Internal High Speed oscillator (HSI). */
        __HAL_RCC_HSI_DISABLE();
 80017c6:	4b24      	ldr	r3, [pc, #144]	@ (8001858 <HAL_RCC_OscConfig+0x244>)
 80017c8:	2200      	movs	r2, #0
 80017ca:	601a      	str	r2, [r3, #0]

        /* Get Start Tick*/
        tickstart = HAL_GetTick();
 80017cc:	f7ff fb08 	bl	8000de0 <HAL_GetTick>
 80017d0:	6138      	str	r0, [r7, #16]

        /* Wait till HSI is ready */
        while (__HAL_RCC_GET_FLAG(RCC_FLAG_HSIRDY) != RESET)
 80017d2:	e008      	b.n	80017e6 <HAL_RCC_OscConfig+0x1d2>
        {
          if ((HAL_GetTick() - tickstart) > HSI_TIMEOUT_VALUE)
 80017d4:	f7ff fb04 	bl	8000de0 <HAL_GetTick>
 80017d8:	4602      	mov	r2, r0
 80017da:	693b      	ldr	r3, [r7, #16]
 80017dc:	1ad3      	subs	r3, r2, r3
 80017de:	2b02      	cmp	r3, #2
 80017e0:	d901      	bls.n	80017e6 <HAL_RCC_OscConfig+0x1d2>
          {
            return HAL_TIMEOUT;
 80017e2:	2303      	movs	r3, #3
 80017e4:	e187      	b.n	8001af6 <HAL_RCC_OscConfig+0x4e2>
        while (__HAL_RCC_GET_FLAG(RCC_FLAG_HSIRDY) != RESET)
 80017e6:	4b1b      	ldr	r3, [pc, #108]	@ (8001854 <HAL_RCC_OscConfig+0x240>)
 80017e8:	681b      	ldr	r3, [r3, #0]
 80017ea:	f003 0302 	and.w	r3, r3, #2
 80017ee:	2b00      	cmp	r3, #0
 80017f0:	d1f0      	bne.n	80017d4 <HAL_RCC_OscConfig+0x1c0>
        }
      }
    }
  }
  /*------------------------------ LSI Configuration -------------------------*/
  if (((RCC_OscInitStruct->OscillatorType) & RCC_OSCILLATORTYPE_LSI) == RCC_OSCILLATORTYPE_LSI)
 80017f2:	687b      	ldr	r3, [r7, #4]
 80017f4:	681b      	ldr	r3, [r3, #0]
 80017f6:	f003 0308 	and.w	r3, r3, #8
 80017fa:	2b00      	cmp	r3, #0
 80017fc:	d036      	beq.n	800186c <HAL_RCC_OscConfig+0x258>
  {
    /* Check the parameters */
    assert_param(IS_RCC_LSI(RCC_OscInitStruct->LSIState));

    /* Check the LSI State */
    if ((RCC_OscInitStruct->LSIState) != RCC_LSI_OFF)
 80017fe:	687b      	ldr	r3, [r7, #4]
 8001800:	695b      	ldr	r3, [r3, #20]
 8001802:	2b00      	cmp	r3, #0
 8001804:	d016      	beq.n	8001834 <HAL_RCC_OscConfig+0x220>
    {
      /* Enable the Internal Low Speed oscillator (LSI). */
      __HAL_RCC_LSI_ENABLE();
 8001806:	4b15      	ldr	r3, [pc, #84]	@ (800185c <HAL_RCC_OscConfig+0x248>)
 8001808:	2201      	movs	r2, #1
 800180a:	601a      	str	r2, [r3, #0]

      /* Get Start Tick*/
      tickstart = HAL_GetTick();
 800180c:	f7ff fae8 	bl	8000de0 <HAL_GetTick>
 8001810:	6138      	str	r0, [r7, #16]

      /* Wait till LSI is ready */
      while (__HAL_RCC_GET_FLAG(RCC_FLAG_LSIRDY) == RESET)
 8001812:	e008      	b.n	8001826 <HAL_RCC_OscConfig+0x212>
      {
        if ((HAL_GetTick() - tickstart) > LSI_TIMEOUT_VALUE)
 8001814:	f7ff fae4 	bl	8000de0 <HAL_GetTick>
 8001818:	4602      	mov	r2, r0
 800181a:	693b      	ldr	r3, [r7, #16]
 800181c:	1ad3      	subs	r3, r2, r3
 800181e:	2b02      	cmp	r3, #2
 8001820:	d901      	bls.n	8001826 <HAL_RCC_OscConfig+0x212>
        {
          return HAL_TIMEOUT;
 8001822:	2303      	movs	r3, #3
 8001824:	e167      	b.n	8001af6 <HAL_RCC_OscConfig+0x4e2>
      while (__HAL_RCC_GET_FLAG(RCC_FLAG_LSIRDY) == RESET)
 8001826:	4b0b      	ldr	r3, [pc, #44]	@ (8001854 <HAL_RCC_OscConfig+0x240>)
 8001828:	6f5b      	ldr	r3, [r3, #116]	@ 0x74
 800182a:	f003 0302 	and.w	r3, r3, #2
 800182e:	2b00      	cmp	r3, #0
 8001830:	d0f0      	beq.n	8001814 <HAL_RCC_OscConfig+0x200>
 8001832:	e01b      	b.n	800186c <HAL_RCC_OscConfig+0x258>
      }
    }
    else
    {
      /* Disable the Internal Low Speed oscillator (LSI). */
      __HAL_RCC_LSI_DISABLE();
 8001834:	4b09      	ldr	r3, [pc, #36]	@ (800185c <HAL_RCC_OscConfig+0x248>)
 8001836:	2200      	movs	r2, #0
 8001838:	601a      	str	r2, [r3, #0]

      /* Get Start Tick */
      tickstart = HAL_GetTick();
 800183a:	f7ff fad1 	bl	8000de0 <HAL_GetTick>
 800183e:	6138      	str	r0, [r7, #16]

      /* Wait till LSI is ready */
      while (__HAL_RCC_GET_FLAG(RCC_FLAG_LSIRDY) != RESET)
 8001840:	e00e      	b.n	8001860 <HAL_RCC_OscConfig+0x24c>
      {
        if ((HAL_GetTick() - tickstart) > LSI_TIMEOUT_VALUE)
 8001842:	f7ff facd 	bl	8000de0 <HAL_GetTick>
 8001846:	4602      	mov	r2, r0
 8001848:	693b      	ldr	r3, [r7, #16]
 800184a:	1ad3      	subs	r3, r2, r3
 800184c:	2b02      	cmp	r3, #2
 800184e:	d907      	bls.n	8001860 <HAL_RCC_OscConfig+0x24c>
        {
          return HAL_TIMEOUT;
 8001850:	2303      	movs	r3, #3
 8001852:	e150      	b.n	8001af6 <HAL_RCC_OscConfig+0x4e2>
 8001854:	40023800 	.word	0x40023800
 8001858:	42470000 	.word	0x42470000
 800185c:	42470e80 	.word	0x42470e80
      while (__HAL_RCC_GET_FLAG(RCC_FLAG_LSIRDY) != RESET)
 8001860:	4b88      	ldr	r3, [pc, #544]	@ (8001a84 <HAL_RCC_OscConfig+0x470>)
 8001862:	6f5b      	ldr	r3, [r3, #116]	@ 0x74
 8001864:	f003 0302 	and.w	r3, r3, #2
 8001868:	2b00      	cmp	r3, #0
 800186a:	d1ea      	bne.n	8001842 <HAL_RCC_OscConfig+0x22e>
        }
      }
    }
  }
  /*------------------------------ LSE Configuration -------------------------*/
  if (((RCC_OscInitStruct->OscillatorType) & RCC_OSCILLATORTYPE_LSE) == RCC_OSCILLATORTYPE_LSE)
 800186c:	687b      	ldr	r3, [r7, #4]
 800186e:	681b      	ldr	r3, [r3, #0]
 8001870:	f003 0304 	and.w	r3, r3, #4
 8001874:	2b00      	cmp	r3, #0
 8001876:	f000 8097 	beq.w	80019a8 <HAL_RCC_OscConfig+0x394>
  {
    FlagStatus       pwrclkchanged = RESET;
 800187a:	2300      	movs	r3, #0
 800187c:	75fb      	strb	r3, [r7, #23]
    /* Check the parameters */
    assert_param(IS_RCC_LSE(RCC_OscInitStruct->LSEState));

    /* Update LSE configuration in Backup Domain control register    */
    /* Requires to enable write access to Backup Domain of necessary */
    if (__HAL_RCC_PWR_IS_CLK_DISABLED())
 800187e:	4b81      	ldr	r3, [pc, #516]	@ (8001a84 <HAL_RCC_OscConfig+0x470>)
 8001880:	6c1b      	ldr	r3, [r3, #64]	@ 0x40
 8001882:	f003 5380 	and.w	r3, r3, #268435456	@ 0x10000000
 8001886:	2b00      	cmp	r3, #0
 8001888:	d10f      	bne.n	80018aa <HAL_RCC_OscConfig+0x296>
    {
      __HAL_RCC_PWR_CLK_ENABLE();
 800188a:	2300      	movs	r3, #0
 800188c:	60bb      	str	r3, [r7, #8]
 800188e:	4b7d      	ldr	r3, [pc, #500]	@ (8001a84 <HAL_RCC_OscConfig+0x470>)
 8001890:	6c1b      	ldr	r3, [r3, #64]	@ 0x40
 8001892:	4a7c      	ldr	r2, [pc, #496]	@ (8001a84 <HAL_RCC_OscConfig+0x470>)
 8001894:	f043 5380 	orr.w	r3, r3, #268435456	@ 0x10000000
 8001898:	6413      	str	r3, [r2, #64]	@ 0x40
 800189a:	4b7a      	ldr	r3, [pc, #488]	@ (8001a84 <HAL_RCC_OscConfig+0x470>)
 800189c:	6c1b      	ldr	r3, [r3, #64]	@ 0x40
 800189e:	f003 5380 	and.w	r3, r3, #268435456	@ 0x10000000
 80018a2:	60bb      	str	r3, [r7, #8]
 80018a4:	68bb      	ldr	r3, [r7, #8]
      pwrclkchanged = SET;
 80018a6:	2301      	movs	r3, #1
 80018a8:	75fb      	strb	r3, [r7, #23]
    }

    if (HAL_IS_BIT_CLR(PWR->CR, PWR_CR_DBP))
 80018aa:	4b77      	ldr	r3, [pc, #476]	@ (8001a88 <HAL_RCC_OscConfig+0x474>)
 80018ac:	681b      	ldr	r3, [r3, #0]
 80018ae:	f403 7380 	and.w	r3, r3, #256	@ 0x100
 80018b2:	2b00      	cmp	r3, #0
 80018b4:	d118      	bne.n	80018e8 <HAL_RCC_OscConfig+0x2d4>
    {
      /* Enable write access to Backup domain */
      SET_BIT(PWR->CR, PWR_CR_DBP);
 80018b6:	4b74      	ldr	r3, [pc, #464]	@ (8001a88 <HAL_RCC_OscConfig+0x474>)
 80018b8:	681b      	ldr	r3, [r3, #0]
 80018ba:	4a73      	ldr	r2, [pc, #460]	@ (8001a88 <HAL_RCC_OscConfig+0x474>)
 80018bc:	f443 7380 	orr.w	r3, r3, #256	@ 0x100
 80018c0:	6013      	str	r3, [r2, #0]

      /* Wait for Backup domain Write protection disable */
      tickstart = HAL_GetTick();
 80018c2:	f7ff fa8d 	bl	8000de0 <HAL_GetTick>
 80018c6:	6138      	str	r0, [r7, #16]

      while (HAL_IS_BIT_CLR(PWR->CR, PWR_CR_DBP))
 80018c8:	e008      	b.n	80018dc <HAL_RCC_OscConfig+0x2c8>
      {
        if ((HAL_GetTick() - tickstart) > RCC_DBP_TIMEOUT_VALUE)
 80018ca:	f7ff fa89 	bl	8000de0 <HAL_GetTick>
 80018ce:	4602      	mov	r2, r0
 80018d0:	693b      	ldr	r3, [r7, #16]
 80018d2:	1ad3      	subs	r3, r2, r3
 80018d4:	2b02      	cmp	r3, #2
 80018d6:	d901      	bls.n	80018dc <HAL_RCC_OscConfig+0x2c8>
        {
          return HAL_TIMEOUT;
 80018d8:	2303      	movs	r3, #3
 80018da:	e10c      	b.n	8001af6 <HAL_RCC_OscConfig+0x4e2>
      while (HAL_IS_BIT_CLR(PWR->CR, PWR_CR_DBP))
 80018dc:	4b6a      	ldr	r3, [pc, #424]	@ (8001a88 <HAL_RCC_OscConfig+0x474>)
 80018de:	681b      	ldr	r3, [r3, #0]
 80018e0:	f403 7380 	and.w	r3, r3, #256	@ 0x100
 80018e4:	2b00      	cmp	r3, #0
 80018e6:	d0f0      	beq.n	80018ca <HAL_RCC_OscConfig+0x2b6>
        }
      }
    }

    /* Set the new LSE configuration -----------------------------------------*/
    __HAL_RCC_LSE_CONFIG(RCC_OscInitStruct->LSEState);
 80018e8:	687b      	ldr	r3, [r7, #4]
 80018ea:	689b      	ldr	r3, [r3, #8]
 80018ec:	2b01      	cmp	r3, #1
 80018ee:	d106      	bne.n	80018fe <HAL_RCC_OscConfig+0x2ea>
 80018f0:	4b64      	ldr	r3, [pc, #400]	@ (8001a84 <HAL_RCC_OscConfig+0x470>)
 80018f2:	6f1b      	ldr	r3, [r3, #112]	@ 0x70
 80018f4:	4a63      	ldr	r2, [pc, #396]	@ (8001a84 <HAL_RCC_OscConfig+0x470>)
 80018f6:	f043 0301 	orr.w	r3, r3, #1
 80018fa:	6713      	str	r3, [r2, #112]	@ 0x70
 80018fc:	e01c      	b.n	8001938 <HAL_RCC_OscConfig+0x324>
 80018fe:	687b      	ldr	r3, [r7, #4]
 8001900:	689b      	ldr	r3, [r3, #8]
 8001902:	2b05      	cmp	r3, #5
 8001904:	d10c      	bne.n	8001920 <HAL_RCC_OscConfig+0x30c>
 8001906:	4b5f      	ldr	r3, [pc, #380]	@ (8001a84 <HAL_RCC_OscConfig+0x470>)
 8001908:	6f1b      	ldr	r3, [r3, #112]	@ 0x70
 800190a:	4a5e      	ldr	r2, [pc, #376]	@ (8001a84 <HAL_RCC_OscConfig+0x470>)
 800190c:	f043 0304 	orr.w	r3, r3, #4
 8001910:	6713      	str	r3, [r2, #112]	@ 0x70
 8001912:	4b5c      	ldr	r3, [pc, #368]	@ (8001a84 <HAL_RCC_OscConfig+0x470>)
 8001914:	6f1b      	ldr	r3, [r3, #112]	@ 0x70
 8001916:	4a5b      	ldr	r2, [pc, #364]	@ (8001a84 <HAL_RCC_OscConfig+0x470>)
 8001918:	f043 0301 	orr.w	r3, r3, #1
 800191c:	6713      	str	r3, [r2, #112]	@ 0x70
 800191e:	e00b      	b.n	8001938 <HAL_RCC_OscConfig+0x324>
 8001920:	4b58      	ldr	r3, [pc, #352]	@ (8001a84 <HAL_RCC_OscConfig+0x470>)
 8001922:	6f1b      	ldr	r3, [r3, #112]	@ 0x70
 8001924:	4a57      	ldr	r2, [pc, #348]	@ (8001a84 <HAL_RCC_OscConfig+0x470>)
 8001926:	f023 0301 	bic.w	r3, r3, #1
 800192a:	6713      	str	r3, [r2, #112]	@ 0x70
 800192c:	4b55      	ldr	r3, [pc, #340]	@ (8001a84 <HAL_RCC_OscConfig+0x470>)
 800192e:	6f1b      	ldr	r3, [r3, #112]	@ 0x70
 8001930:	4a54      	ldr	r2, [pc, #336]	@ (8001a84 <HAL_RCC_OscConfig+0x470>)
 8001932:	f023 0304 	bic.w	r3, r3, #4
 8001936:	6713      	str	r3, [r2, #112]	@ 0x70
    /* Check the LSE State */
    if ((RCC_OscInitStruct->LSEState) != RCC_LSE_OFF)
 8001938:	687b      	ldr	r3, [r7, #4]
 800193a:	689b      	ldr	r3, [r3, #8]
 800193c:	2b00      	cmp	r3, #0
 800193e:	d015      	beq.n	800196c <HAL_RCC_OscConfig+0x358>
    {
      /* Get Start Tick*/
      tickstart = HAL_GetTick();
 8001940:	f7ff fa4e 	bl	8000de0 <HAL_GetTick>
 8001944:	6138      	str	r0, [r7, #16]

      /* Wait till LSE is ready */
      while (__HAL_RCC_GET_FLAG(RCC_FLAG_LSERDY) == RESET)
 8001946:	e00a      	b.n	800195e <HAL_RCC_OscConfig+0x34a>
      {
        if ((HAL_GetTick() - tickstart) > RCC_LSE_TIMEOUT_VALUE)
 8001948:	f7ff fa4a 	bl	8000de0 <HAL_GetTick>
 800194c:	4602      	mov	r2, r0
 800194e:	693b      	ldr	r3, [r7, #16]
 8001950:	1ad3      	subs	r3, r2, r3
 8001952:	f241 3288 	movw	r2, #5000	@ 0x1388
 8001956:	4293      	cmp	r3, r2
 8001958:	d901      	bls.n	800195e <HAL_RCC_OscConfig+0x34a>
        {
          return HAL_TIMEOUT;
 800195a:	2303      	movs	r3, #3
 800195c:	e0cb      	b.n	8001af6 <HAL_RCC_OscConfig+0x4e2>
      while (__HAL_RCC_GET_FLAG(RCC_FLAG_LSERDY) == RESET)
 800195e:	4b49      	ldr	r3, [pc, #292]	@ (8001a84 <HAL_RCC_OscConfig+0x470>)
 8001960:	6f1b      	ldr	r3, [r3, #112]	@ 0x70
 8001962:	f003 0302 	and.w	r3, r3, #2
 8001966:	2b00      	cmp	r3, #0
 8001968:	d0ee      	beq.n	8001948 <HAL_RCC_OscConfig+0x334>
 800196a:	e014      	b.n	8001996 <HAL_RCC_OscConfig+0x382>
      }
    }
    else
    {
      /* Get Start Tick */
      tickstart = HAL_GetTick();
 800196c:	f7ff fa38 	bl	8000de0 <HAL_GetTick>
 8001970:	6138      	str	r0, [r7, #16]

      /* Wait till LSE is ready */
      while (__HAL_RCC_GET_FLAG(RCC_FLAG_LSERDY) != RESET)
 8001972:	e00a      	b.n	800198a <HAL_RCC_OscConfig+0x376>
      {
        if ((HAL_GetTick() - tickstart) > RCC_LSE_TIMEOUT_VALUE)
 8001974:	f7ff fa34 	bl	8000de0 <HAL_GetTick>
 8001978:	4602      	mov	r2, r0
 800197a:	693b      	ldr	r3, [r7, #16]
 800197c:	1ad3      	subs	r3, r2, r3
 800197e:	f241 3288 	movw	r2, #5000	@ 0x1388
 8001982:	4293      	cmp	r3, r2
 8001984:	d901      	bls.n	800198a <HAL_RCC_OscConfig+0x376>
        {
          return HAL_TIMEOUT;
 8001986:	2303      	movs	r3, #3
 8001988:	e0b5      	b.n	8001af6 <HAL_RCC_OscConfig+0x4e2>
      while (__HAL_RCC_GET_FLAG(RCC_FLAG_LSERDY) != RESET)
 800198a:	4b3e      	ldr	r3, [pc, #248]	@ (8001a84 <HAL_RCC_OscConfig+0x470>)
 800198c:	6f1b      	ldr	r3, [r3, #112]	@ 0x70
 800198e:	f003 0302 	and.w	r3, r3, #2
 8001992:	2b00      	cmp	r3, #0
 8001994:	d1ee      	bne.n	8001974 <HAL_RCC_OscConfig+0x360>
        }
      }
    }

    /* Restore clock configuration if changed */
    if (pwrclkchanged == SET)
 8001996:	7dfb      	ldrb	r3, [r7, #23]
 8001998:	2b01      	cmp	r3, #1
 800199a:	d105      	bne.n	80019a8 <HAL_RCC_OscConfig+0x394>
    {
      __HAL_RCC_PWR_CLK_DISABLE();
 800199c:	4b39      	ldr	r3, [pc, #228]	@ (8001a84 <HAL_RCC_OscConfig+0x470>)
 800199e:	6c1b      	ldr	r3, [r3, #64]	@ 0x40
 80019a0:	4a38      	ldr	r2, [pc, #224]	@ (8001a84 <HAL_RCC_OscConfig+0x470>)
 80019a2:	f023 5380 	bic.w	r3, r3, #268435456	@ 0x10000000
 80019a6:	6413      	str	r3, [r2, #64]	@ 0x40
    }
  }
  /*-------------------------------- PLL Configuration -----------------------*/
  /* Check the parameters */
  assert_param(IS_RCC_PLL(RCC_OscInitStruct->PLL.PLLState));
  if ((RCC_OscInitStruct->PLL.PLLState) != RCC_PLL_NONE)
 80019a8:	687b      	ldr	r3, [r7, #4]
 80019aa:	699b      	ldr	r3, [r3, #24]
 80019ac:	2b00      	cmp	r3, #0
 80019ae:	f000 80a1 	beq.w	8001af4 <HAL_RCC_OscConfig+0x4e0>
  {
    /* Check if the PLL is used as system clock or not */
    if (__HAL_RCC_GET_SYSCLK_SOURCE() != RCC_CFGR_SWS_PLL)
 80019b2:	4b34      	ldr	r3, [pc, #208]	@ (8001a84 <HAL_RCC_OscConfig+0x470>)
 80019b4:	689b      	ldr	r3, [r3, #8]
 80019b6:	f003 030c 	and.w	r3, r3, #12
 80019ba:	2b08      	cmp	r3, #8
 80019bc:	d05c      	beq.n	8001a78 <HAL_RCC_OscConfig+0x464>
    {
      if ((RCC_OscInitStruct->PLL.PLLState) == RCC_PLL_ON)
 80019be:	687b      	ldr	r3, [r7, #4]
 80019c0:	699b      	ldr	r3, [r3, #24]
 80019c2:	2b02      	cmp	r3, #2
 80019c4:	d141      	bne.n	8001a4a <HAL_RCC_OscConfig+0x436>
        assert_param(IS_RCC_PLLN_VALUE(RCC_OscInitStruct->PLL.PLLN));
        assert_param(IS_RCC_PLLP_VALUE(RCC_OscInitStruct->PLL.PLLP));
        assert_param(IS_RCC_PLLQ_VALUE(RCC_OscInitStruct->PLL.PLLQ));

        /* Disable the main PLL. */
        __HAL_RCC_PLL_DISABLE();
 80019c6:	4b31      	ldr	r3, [pc, #196]	@ (8001a8c <HAL_RCC_OscConfig+0x478>)
 80019c8:	2200      	movs	r2, #0
 80019ca:	601a      	str	r2, [r3, #0]

        /* Get Start Tick */
        tickstart = HAL_GetTick();
 80019cc:	f7ff fa08 	bl	8000de0 <HAL_GetTick>
 80019d0:	6138      	str	r0, [r7, #16]

        /* Wait till PLL is disabled */
        while (__HAL_RCC_GET_FLAG(RCC_FLAG_PLLRDY) != RESET)
 80019d2:	e008      	b.n	80019e6 <HAL_RCC_OscConfig+0x3d2>
        {
          if ((HAL_GetTick() - tickstart) > PLL_TIMEOUT_VALUE)
 80019d4:	f7ff fa04 	bl	8000de0 <HAL_GetTick>
 80019d8:	4602      	mov	r2, r0
 80019da:	693b      	ldr	r3, [r7, #16]
 80019dc:	1ad3      	subs	r3, r2, r3
 80019de:	2b02      	cmp	r3, #2
 80019e0:	d901      	bls.n	80019e6 <HAL_RCC_OscConfig+0x3d2>
          {
            return HAL_TIMEOUT;
 80019e2:	2303      	movs	r3, #3
 80019e4:	e087      	b.n	8001af6 <HAL_RCC_OscConfig+0x4e2>
        while (__HAL_RCC_GET_FLAG(RCC_FLAG_PLLRDY) != RESET)
 80019e6:	4b27      	ldr	r3, [pc, #156]	@ (8001a84 <HAL_RCC_OscConfig+0x470>)
 80019e8:	681b      	ldr	r3, [r3, #0]
 80019ea:	f003 7300 	and.w	r3, r3, #33554432	@ 0x2000000
 80019ee:	2b00      	cmp	r3, #0
 80019f0:	d1f0      	bne.n	80019d4 <HAL_RCC_OscConfig+0x3c0>
          }
        }

        /* Configure the main PLL clock source, multiplication and division factors. */
        WRITE_REG(RCC->PLLCFGR, (RCC_OscInitStruct->PLL.PLLSource                                            | \
 80019f2:	687b      	ldr	r3, [r7, #4]
 80019f4:	69da      	ldr	r2, [r3, #28]
 80019f6:	687b      	ldr	r3, [r7, #4]
 80019f8:	6a1b      	ldr	r3, [r3, #32]
 80019fa:	431a      	orrs	r2, r3
 80019fc:	687b      	ldr	r3, [r7, #4]
 80019fe:	6a5b      	ldr	r3, [r3, #36]	@ 0x24
 8001a00:	019b      	lsls	r3, r3, #6
 8001a02:	431a      	orrs	r2, r3
 8001a04:	687b      	ldr	r3, [r7, #4]
 8001a06:	6a9b      	ldr	r3, [r3, #40]	@ 0x28
 8001a08:	085b      	lsrs	r3, r3, #1
 8001a0a:	3b01      	subs	r3, #1
 8001a0c:	041b      	lsls	r3, r3, #16
 8001a0e:	431a      	orrs	r2, r3
 8001a10:	687b      	ldr	r3, [r7, #4]
 8001a12:	6adb      	ldr	r3, [r3, #44]	@ 0x2c
 8001a14:	061b      	lsls	r3, r3, #24
 8001a16:	491b      	ldr	r1, [pc, #108]	@ (8001a84 <HAL_RCC_OscConfig+0x470>)
 8001a18:	4313      	orrs	r3, r2
 8001a1a:	604b      	str	r3, [r1, #4]
                                 RCC_OscInitStruct->PLL.PLLM                                                 | \
                                 (RCC_OscInitStruct->PLL.PLLN << RCC_PLLCFGR_PLLN_Pos)             | \
                                 (((RCC_OscInitStruct->PLL.PLLP >> 1U) - 1U) << RCC_PLLCFGR_PLLP_Pos) | \
                                 (RCC_OscInitStruct->PLL.PLLQ << RCC_PLLCFGR_PLLQ_Pos)));
        /* Enable the main PLL. */
        __HAL_RCC_PLL_ENABLE();
 8001a1c:	4b1b      	ldr	r3, [pc, #108]	@ (8001a8c <HAL_RCC_OscConfig+0x478>)
 8001a1e:	2201      	movs	r2, #1
 8001a20:	601a      	str	r2, [r3, #0]

        /* Get Start Tick */
        tickstart = HAL_GetTick();
 8001a22:	f7ff f9dd 	bl	8000de0 <HAL_GetTick>
 8001a26:	6138      	str	r0, [r7, #16]

        /* Wait till PLL is ready */
        while (__HAL_RCC_GET_FLAG(RCC_FLAG_PLLRDY) == RESET)
 8001a28:	e008      	b.n	8001a3c <HAL_RCC_OscConfig+0x428>
        {
          if ((HAL_GetTick() - tickstart) > PLL_TIMEOUT_VALUE)
 8001a2a:	f7ff f9d9 	bl	8000de0 <HAL_GetTick>
 8001a2e:	4602      	mov	r2, r0
 8001a30:	693b      	ldr	r3, [r7, #16]
 8001a32:	1ad3      	subs	r3, r2, r3
 8001a34:	2b02      	cmp	r3, #2
 8001a36:	d901      	bls.n	8001a3c <HAL_RCC_OscConfig+0x428>
          {
            return HAL_TIMEOUT;
 8001a38:	2303      	movs	r3, #3
 8001a3a:	e05c      	b.n	8001af6 <HAL_RCC_OscConfig+0x4e2>
        while (__HAL_RCC_GET_FLAG(RCC_FLAG_PLLRDY) == RESET)
 8001a3c:	4b11      	ldr	r3, [pc, #68]	@ (8001a84 <HAL_RCC_OscConfig+0x470>)
 8001a3e:	681b      	ldr	r3, [r3, #0]
 8001a40:	f003 7300 	and.w	r3, r3, #33554432	@ 0x2000000
 8001a44:	2b00      	cmp	r3, #0
 8001a46:	d0f0      	beq.n	8001a2a <HAL_RCC_OscConfig+0x416>
 8001a48:	e054      	b.n	8001af4 <HAL_RCC_OscConfig+0x4e0>
        }
      }
      else
      {
        /* Disable the main PLL. */
        __HAL_RCC_PLL_DISABLE();
 8001a4a:	4b10      	ldr	r3, [pc, #64]	@ (8001a8c <HAL_RCC_OscConfig+0x478>)
 8001a4c:	2200      	movs	r2, #0
 8001a4e:	601a      	str	r2, [r3, #0]

        /* Get Start Tick */
        tickstart = HAL_GetTick();
 8001a50:	f7ff f9c6 	bl	8000de0 <HAL_GetTick>
 8001a54:	6138      	str	r0, [r7, #16]

        /* Wait till PLL is disabled */
        while (__HAL_RCC_GET_FLAG(RCC_FLAG_PLLRDY) != RESET)
 8001a56:	e008      	b.n	8001a6a <HAL_RCC_OscConfig+0x456>
        {
          if ((HAL_GetTick() - tickstart) > PLL_TIMEOUT_VALUE)
 8001a58:	f7ff f9c2 	bl	8000de0 <HAL_GetTick>
 8001a5c:	4602      	mov	r2, r0
 8001a5e:	693b      	ldr	r3, [r7, #16]
 8001a60:	1ad3      	subs	r3, r2, r3
 8001a62:	2b02      	cmp	r3, #2
 8001a64:	d901      	bls.n	8001a6a <HAL_RCC_OscConfig+0x456>
          {
            return HAL_TIMEOUT;
 8001a66:	2303      	movs	r3, #3
 8001a68:	e045      	b.n	8001af6 <HAL_RCC_OscConfig+0x4e2>
        while (__HAL_RCC_GET_FLAG(RCC_FLAG_PLLRDY) != RESET)
 8001a6a:	4b06      	ldr	r3, [pc, #24]	@ (8001a84 <HAL_RCC_OscConfig+0x470>)
 8001a6c:	681b      	ldr	r3, [r3, #0]
 8001a6e:	f003 7300 	and.w	r3, r3, #33554432	@ 0x2000000
 8001a72:	2b00      	cmp	r3, #0
 8001a74:	d1f0      	bne.n	8001a58 <HAL_RCC_OscConfig+0x444>
 8001a76:	e03d      	b.n	8001af4 <HAL_RCC_OscConfig+0x4e0>
      }
    }
    else
    {
      /* Check if there is a request to disable the PLL used as System clock source */
      if ((RCC_OscInitStruct->PLL.PLLState) == RCC_PLL_OFF)
 8001a78:	687b      	ldr	r3, [r7, #4]
 8001a7a:	699b      	ldr	r3, [r3, #24]
 8001a7c:	2b01      	cmp	r3, #1
 8001a7e:	d107      	bne.n	8001a90 <HAL_RCC_OscConfig+0x47c>
      {
        return HAL_ERROR;
 8001a80:	2301      	movs	r3, #1
 8001a82:	e038      	b.n	8001af6 <HAL_RCC_OscConfig+0x4e2>
 8001a84:	40023800 	.word	0x40023800
 8001a88:	40007000 	.word	0x40007000
 8001a8c:	42470060 	.word	0x42470060
      }
      else
      {
        /* Do not return HAL_ERROR if request repeats the current configuration */
        pll_config = RCC->PLLCFGR;
 8001a90:	4b1b      	ldr	r3, [pc, #108]	@ (8001b00 <HAL_RCC_OscConfig+0x4ec>)
 8001a92:	685b      	ldr	r3, [r3, #4]
 8001a94:	60fb      	str	r3, [r7, #12]
            (READ_BIT(pll_config, RCC_PLLCFGR_PLLN) != (RCC_OscInitStruct->PLL.PLLN) << RCC_PLLCFGR_PLLN_Pos) ||
            (READ_BIT(pll_config, RCC_PLLCFGR_PLLP) != (((RCC_OscInitStruct->PLL.PLLP >> 1U) - 1U)) << RCC_PLLCFGR_PLLP_Pos) ||
            (READ_BIT(pll_config, RCC_PLLCFGR_PLLQ) != (RCC_OscInitStruct->PLL.PLLQ << RCC_PLLCFGR_PLLQ_Pos)) ||
            (READ_BIT(pll_config, RCC_PLLCFGR_PLLR) != (RCC_OscInitStruct->PLL.PLLR << RCC_PLLCFGR_PLLR_Pos)))
#else
        if (((RCC_OscInitStruct->PLL.PLLState) == RCC_PLL_OFF) ||
 8001a96:	687b      	ldr	r3, [r7, #4]
 8001a98:	699b      	ldr	r3, [r3, #24]
 8001a9a:	2b01      	cmp	r3, #1
 8001a9c:	d028      	beq.n	8001af0 <HAL_RCC_OscConfig+0x4dc>
            (READ_BIT(pll_config, RCC_PLLCFGR_PLLSRC) != RCC_OscInitStruct->PLL.PLLSource) ||
 8001a9e:	68fb      	ldr	r3, [r7, #12]
 8001aa0:	f403 0280 	and.w	r2, r3, #4194304	@ 0x400000
 8001aa4:	687b      	ldr	r3, [r7, #4]
 8001aa6:	69db      	ldr	r3, [r3, #28]
        if (((RCC_OscInitStruct->PLL.PLLState) == RCC_PLL_OFF) ||
 8001aa8:	429a      	cmp	r2, r3
 8001aaa:	d121      	bne.n	8001af0 <HAL_RCC_OscConfig+0x4dc>
            (READ_BIT(pll_config, RCC_PLLCFGR_PLLM) != (RCC_OscInitStruct->PLL.PLLM) << RCC_PLLCFGR_PLLM_Pos) ||
 8001aac:	68fb      	ldr	r3, [r7, #12]
 8001aae:	f003 023f 	and.w	r2, r3, #63	@ 0x3f
 8001ab2:	687b      	ldr	r3, [r7, #4]
 8001ab4:	6a1b      	ldr	r3, [r3, #32]
            (READ_BIT(pll_config, RCC_PLLCFGR_PLLSRC) != RCC_OscInitStruct->PLL.PLLSource) ||
 8001ab6:	429a      	cmp	r2, r3
 8001ab8:	d11a      	bne.n	8001af0 <HAL_RCC_OscConfig+0x4dc>
            (READ_BIT(pll_config, RCC_PLLCFGR_PLLN) != (RCC_OscInitStruct->PLL.PLLN) << RCC_PLLCFGR_PLLN_Pos) ||
 8001aba:	68fa      	ldr	r2, [r7, #12]
 8001abc:	f647 73c0 	movw	r3, #32704	@ 0x7fc0
 8001ac0:	4013      	ands	r3, r2
 8001ac2:	687a      	ldr	r2, [r7, #4]
 8001ac4:	6a52      	ldr	r2, [r2, #36]	@ 0x24
 8001ac6:	0192      	lsls	r2, r2, #6
            (READ_BIT(pll_config, RCC_PLLCFGR_PLLM) != (RCC_OscInitStruct->PLL.PLLM) << RCC_PLLCFGR_PLLM_Pos) ||
 8001ac8:	4293      	cmp	r3, r2
 8001aca:	d111      	bne.n	8001af0 <HAL_RCC_OscConfig+0x4dc>
            (READ_BIT(pll_config, RCC_PLLCFGR_PLLP) != (((RCC_OscInitStruct->PLL.PLLP >> 1U) - 1U)) << RCC_PLLCFGR_PLLP_Pos) ||
 8001acc:	68fb      	ldr	r3, [r7, #12]
 8001ace:	f403 3240 	and.w	r2, r3, #196608	@ 0x30000
 8001ad2:	687b      	ldr	r3, [r7, #4]
 8001ad4:	6a9b      	ldr	r3, [r3, #40]	@ 0x28
 8001ad6:	085b      	lsrs	r3, r3, #1
 8001ad8:	3b01      	subs	r3, #1
 8001ada:	041b      	lsls	r3, r3, #16
            (READ_BIT(pll_config, RCC_PLLCFGR_PLLN) != (RCC_OscInitStruct->PLL.PLLN) << RCC_PLLCFGR_PLLN_Pos) ||
 8001adc:	429a      	cmp	r2, r3
 8001ade:	d107      	bne.n	8001af0 <HAL_RCC_OscConfig+0x4dc>
            (READ_BIT(pll_config, RCC_PLLCFGR_PLLQ) != (RCC_OscInitStruct->PLL.PLLQ << RCC_PLLCFGR_PLLQ_Pos)))
 8001ae0:	68fb      	ldr	r3, [r7, #12]
 8001ae2:	f003 6270 	and.w	r2, r3, #251658240	@ 0xf000000
 8001ae6:	687b      	ldr	r3, [r7, #4]
 8001ae8:	6adb      	ldr	r3, [r3, #44]	@ 0x2c
 8001aea:	061b      	lsls	r3, r3, #24
            (READ_BIT(pll_config, RCC_PLLCFGR_PLLP) != (((RCC_OscInitStruct->PLL.PLLP >> 1U) - 1U)) << RCC_PLLCFGR_PLLP_Pos) ||
 8001aec:	429a      	cmp	r2, r3
 8001aee:	d001      	beq.n	8001af4 <HAL_RCC_OscConfig+0x4e0>
#endif /* RCC_PLLCFGR_PLLR */
        {
          return HAL_ERROR;
 8001af0:	2301      	movs	r3, #1
 8001af2:	e000      	b.n	8001af6 <HAL_RCC_OscConfig+0x4e2>
        }
      }
    }
  }
  return HAL_OK;
 8001af4:	2300      	movs	r3, #0
}
 8001af6:	4618      	mov	r0, r3
 8001af8:	3718      	adds	r7, #24
 8001afa:	46bd      	mov	sp, r7
 8001afc:	bd80      	pop	{r7, pc}
 8001afe:	bf00      	nop
 8001b00:	40023800 	.word	0x40023800

08001b04 <HAL_RCC_ClockConfig>:
  *         HPRE[3:0] bits to ensure that HCLK not exceed the maximum allowed frequency
  *         (for more details refer to section above "Initialization/de-initialization functions")
  * @retval None
  */
HAL_StatusTypeDef HAL_RCC_ClockConfig(RCC_ClkInitTypeDef  *RCC_ClkInitStruct, uint32_t FLatency)
{
 8001b04:	b580      	push	{r7, lr}
 8001b06:	b084      	sub	sp, #16
 8001b08:	af00      	add	r7, sp, #0
 8001b0a:	6078      	str	r0, [r7, #4]
 8001b0c:	6039      	str	r1, [r7, #0]
  uint32_t tickstart;

  /* Check Null pointer */
  if (RCC_ClkInitStruct == NULL)
 8001b0e:	687b      	ldr	r3, [r7, #4]
 8001b10:	2b00      	cmp	r3, #0
 8001b12:	d101      	bne.n	8001b18 <HAL_RCC_ClockConfig+0x14>
  {
    return HAL_ERROR;
 8001b14:	2301      	movs	r3, #1
 8001b16:	e0cc      	b.n	8001cb2 <HAL_RCC_ClockConfig+0x1ae>
  /* To correctly read data from FLASH memory, the number of wait states (LATENCY)
    must be correctly programmed according to the frequency of the CPU clock
    (HCLK) and the supply voltage of the device. */

  /* Increasing the number of wait states because of higher CPU frequency */
  if (FLatency > __HAL_FLASH_GET_LATENCY())
 8001b18:	4b68      	ldr	r3, [pc, #416]	@ (8001cbc <HAL_RCC_ClockConfig+0x1b8>)
 8001b1a:	681b      	ldr	r3, [r3, #0]
 8001b1c:	f003 0307 	and.w	r3, r3, #7
 8001b20:	683a      	ldr	r2, [r7, #0]
 8001b22:	429a      	cmp	r2, r3
 8001b24:	d90c      	bls.n	8001b40 <HAL_RCC_ClockConfig+0x3c>
  {
    /* Program the new number of wait states to the LATENCY bits in the FLASH_ACR register */
    __HAL_FLASH_SET_LATENCY(FLatency);
 8001b26:	4b65      	ldr	r3, [pc, #404]	@ (8001cbc <HAL_RCC_ClockConfig+0x1b8>)
 8001b28:	683a      	ldr	r2, [r7, #0]
 8001b2a:	b2d2      	uxtb	r2, r2
 8001b2c:	701a      	strb	r2, [r3, #0]

    /* Check that the new number of wait states is taken into account to access the Flash
    memory by reading the FLASH_ACR register */
    if (__HAL_FLASH_GET_LATENCY() != FLatency)
 8001b2e:	4b63      	ldr	r3, [pc, #396]	@ (8001cbc <HAL_RCC_ClockConfig+0x1b8>)
 8001b30:	681b      	ldr	r3, [r3, #0]
 8001b32:	f003 0307 	and.w	r3, r3, #7
 8001b36:	683a      	ldr	r2, [r7, #0]
 8001b38:	429a      	cmp	r2, r3
 8001b3a:	d001      	beq.n	8001b40 <HAL_RCC_ClockConfig+0x3c>
    {
      return HAL_ERROR;
 8001b3c:	2301      	movs	r3, #1
 8001b3e:	e0b8      	b.n	8001cb2 <HAL_RCC_ClockConfig+0x1ae>
    }
  }

  /*-------------------------- HCLK Configuration --------------------------*/
  if (((RCC_ClkInitStruct->ClockType) & RCC_CLOCKTYPE_HCLK) == RCC_CLOCKTYPE_HCLK)
 8001b40:	687b      	ldr	r3, [r7, #4]
 8001b42:	681b      	ldr	r3, [r3, #0]
 8001b44:	f003 0302 	and.w	r3, r3, #2
 8001b48:	2b00      	cmp	r3, #0
 8001b4a:	d020      	beq.n	8001b8e <HAL_RCC_ClockConfig+0x8a>
  {
    /* Set the highest APBx dividers in order to ensure that we do not go through
       a non-spec phase whatever we decrease or increase HCLK. */
    if (((RCC_ClkInitStruct->ClockType) & RCC_CLOCKTYPE_PCLK1) == RCC_CLOCKTYPE_PCLK1)
 8001b4c:	687b      	ldr	r3, [r7, #4]
 8001b4e:	681b      	ldr	r3, [r3, #0]
 8001b50:	f003 0304 	and.w	r3, r3, #4
 8001b54:	2b00      	cmp	r3, #0
 8001b56:	d005      	beq.n	8001b64 <HAL_RCC_ClockConfig+0x60>
    {
      MODIFY_REG(RCC->CFGR, RCC_CFGR_PPRE1, RCC_HCLK_DIV16);
 8001b58:	4b59      	ldr	r3, [pc, #356]	@ (8001cc0 <HAL_RCC_ClockConfig+0x1bc>)
 8001b5a:	689b      	ldr	r3, [r3, #8]
 8001b5c:	4a58      	ldr	r2, [pc, #352]	@ (8001cc0 <HAL_RCC_ClockConfig+0x1bc>)
 8001b5e:	f443 53e0 	orr.w	r3, r3, #7168	@ 0x1c00
 8001b62:	6093      	str	r3, [r2, #8]
    }

    if (((RCC_ClkInitStruct->ClockType) & RCC_CLOCKTYPE_PCLK2) == RCC_CLOCKTYPE_PCLK2)
 8001b64:	687b      	ldr	r3, [r7, #4]
 8001b66:	681b      	ldr	r3, [r3, #0]
 8001b68:	f003 0308 	and.w	r3, r3, #8
 8001b6c:	2b00      	cmp	r3, #0
 8001b6e:	d005      	beq.n	8001b7c <HAL_RCC_ClockConfig+0x78>
    {
      MODIFY_REG(RCC->CFGR, RCC_CFGR_PPRE2, (RCC_HCLK_DIV16 << 3));
 8001b70:	4b53      	ldr	r3, [pc, #332]	@ (8001cc0 <HAL_RCC_ClockConfig+0x1bc>)
 8001b72:	689b      	ldr	r3, [r3, #8]
 8001b74:	4a52      	ldr	r2, [pc, #328]	@ (8001cc0 <HAL_RCC_ClockConfig+0x1bc>)
 8001b76:	f443 4360 	orr.w	r3, r3, #57344	@ 0xe000
 8001b7a:	6093      	str	r3, [r2, #8]
    }

    assert_param(IS_RCC_HCLK(RCC_ClkInitStruct->AHBCLKDivider));
    MODIFY_REG(RCC->CFGR, RCC_CFGR_HPRE, RCC_ClkInitStruct->AHBCLKDivider);
 8001b7c:	4b50      	ldr	r3, [pc, #320]	@ (8001cc0 <HAL_RCC_ClockConfig+0x1bc>)
 8001b7e:	689b      	ldr	r3, [r3, #8]
 8001b80:	f023 02f0 	bic.w	r2, r3, #240	@ 0xf0
 8001b84:	687b      	ldr	r3, [r7, #4]
 8001b86:	689b      	ldr	r3, [r3, #8]
 8001b88:	494d      	ldr	r1, [pc, #308]	@ (8001cc0 <HAL_RCC_ClockConfig+0x1bc>)
 8001b8a:	4313      	orrs	r3, r2
 8001b8c:	608b      	str	r3, [r1, #8]
  }

  /*------------------------- SYSCLK Configuration ---------------------------*/
  if (((RCC_ClkInitStruct->ClockType) & RCC_CLOCKTYPE_SYSCLK) == RCC_CLOCKTYPE_SYSCLK)
 8001b8e:	687b      	ldr	r3, [r7, #4]
 8001b90:	681b      	ldr	r3, [r3, #0]
 8001b92:	f003 0301 	and.w	r3, r3, #1
 8001b96:	2b00      	cmp	r3, #0
 8001b98:	d044      	beq.n	8001c24 <HAL_RCC_ClockConfig+0x120>
  {
    assert_param(IS_RCC_SYSCLKSOURCE(RCC_ClkInitStruct->SYSCLKSource));

    /* HSE is selected as System Clock Source */
    if (RCC_ClkInitStruct->SYSCLKSource == RCC_SYSCLKSOURCE_HSE)
 8001b9a:	687b      	ldr	r3, [r7, #4]
 8001b9c:	685b      	ldr	r3, [r3, #4]
 8001b9e:	2b01      	cmp	r3, #1
 8001ba0:	d107      	bne.n	8001bb2 <HAL_RCC_ClockConfig+0xae>
    {
      /* Check the HSE ready flag */
      if (__HAL_RCC_GET_FLAG(RCC_FLAG_HSERDY) == RESET)
 8001ba2:	4b47      	ldr	r3, [pc, #284]	@ (8001cc0 <HAL_RCC_ClockConfig+0x1bc>)
 8001ba4:	681b      	ldr	r3, [r3, #0]
 8001ba6:	f403 3300 	and.w	r3, r3, #131072	@ 0x20000
 8001baa:	2b00      	cmp	r3, #0
 8001bac:	d119      	bne.n	8001be2 <HAL_RCC_ClockConfig+0xde>
      {
        return HAL_ERROR;
 8001bae:	2301      	movs	r3, #1
 8001bb0:	e07f      	b.n	8001cb2 <HAL_RCC_ClockConfig+0x1ae>
      }
    }
    /* PLL is selected as System Clock Source */
    else if ((RCC_ClkInitStruct->SYSCLKSource == RCC_SYSCLKSOURCE_PLLCLK)   ||
 8001bb2:	687b      	ldr	r3, [r7, #4]
 8001bb4:	685b      	ldr	r3, [r3, #4]
 8001bb6:	2b02      	cmp	r3, #2
 8001bb8:	d003      	beq.n	8001bc2 <HAL_RCC_ClockConfig+0xbe>
             (RCC_ClkInitStruct->SYSCLKSource == RCC_SYSCLKSOURCE_PLLRCLK))
 8001bba:	687b      	ldr	r3, [r7, #4]
 8001bbc:	685b      	ldr	r3, [r3, #4]
    else if ((RCC_ClkInitStruct->SYSCLKSource == RCC_SYSCLKSOURCE_PLLCLK)   ||
 8001bbe:	2b03      	cmp	r3, #3
 8001bc0:	d107      	bne.n	8001bd2 <HAL_RCC_ClockConfig+0xce>
    {
      /* Check the PLL ready flag */
      if (__HAL_RCC_GET_FLAG(RCC_FLAG_PLLRDY) == RESET)
 8001bc2:	4b3f      	ldr	r3, [pc, #252]	@ (8001cc0 <HAL_RCC_ClockConfig+0x1bc>)
 8001bc4:	681b      	ldr	r3, [r3, #0]
 8001bc6:	f003 7300 	and.w	r3, r3, #33554432	@ 0x2000000
 8001bca:	2b00      	cmp	r3, #0
 8001bcc:	d109      	bne.n	8001be2 <HAL_RCC_ClockConfig+0xde>
      {
        return HAL_ERROR;
 8001bce:	2301      	movs	r3, #1
 8001bd0:	e06f      	b.n	8001cb2 <HAL_RCC_ClockConfig+0x1ae>
    }
    /* HSI is selected as System Clock Source */
    else
    {
      /* Check the HSI ready flag */
      if (__HAL_RCC_GET_FLAG(RCC_FLAG_HSIRDY) == RESET)
 8001bd2:	4b3b      	ldr	r3, [pc, #236]	@ (8001cc0 <HAL_RCC_ClockConfig+0x1bc>)
 8001bd4:	681b      	ldr	r3, [r3, #0]
 8001bd6:	f003 0302 	and.w	r3, r3, #2
 8001bda:	2b00      	cmp	r3, #0
 8001bdc:	d101      	bne.n	8001be2 <HAL_RCC_ClockConfig+0xde>
      {
        return HAL_ERROR;
 8001bde:	2301      	movs	r3, #1
 8001be0:	e067      	b.n	8001cb2 <HAL_RCC_ClockConfig+0x1ae>
      }
    }

    __HAL_RCC_SYSCLK_CONFIG(RCC_ClkInitStruct->SYSCLKSource);
 8001be2:	4b37      	ldr	r3, [pc, #220]	@ (8001cc0 <HAL_RCC_ClockConfig+0x1bc>)
 8001be4:	689b      	ldr	r3, [r3, #8]
 8001be6:	f023 0203 	bic.w	r2, r3, #3
 8001bea:	687b      	ldr	r3, [r7, #4]
 8001bec:	685b      	ldr	r3, [r3, #4]
 8001bee:	4934      	ldr	r1, [pc, #208]	@ (8001cc0 <HAL_RCC_ClockConfig+0x1bc>)
 8001bf0:	4313      	orrs	r3, r2
 8001bf2:	608b      	str	r3, [r1, #8]

    /* Get Start Tick */
    tickstart = HAL_GetTick();
 8001bf4:	f7ff f8f4 	bl	8000de0 <HAL_GetTick>
 8001bf8:	60f8      	str	r0, [r7, #12]

    while (__HAL_RCC_GET_SYSCLK_SOURCE() != (RCC_ClkInitStruct->SYSCLKSource << RCC_CFGR_SWS_Pos))
 8001bfa:	e00a      	b.n	8001c12 <HAL_RCC_ClockConfig+0x10e>
    {
      if ((HAL_GetTick() - tickstart) > CLOCKSWITCH_TIMEOUT_VALUE)
 8001bfc:	f7ff f8f0 	bl	8000de0 <HAL_GetTick>
 8001c00:	4602      	mov	r2, r0
 8001c02:	68fb      	ldr	r3, [r7, #12]
 8001c04:	1ad3      	subs	r3, r2, r3
 8001c06:	f241 3288 	movw	r2, #5000	@ 0x1388
 8001c0a:	4293      	cmp	r3, r2
 8001c0c:	d901      	bls.n	8001c12 <HAL_RCC_ClockConfig+0x10e>
      {
        return HAL_TIMEOUT;
 8001c0e:	2303      	movs	r3, #3
 8001c10:	e04f      	b.n	8001cb2 <HAL_RCC_ClockConfig+0x1ae>
    while (__HAL_RCC_GET_SYSCLK_SOURCE() != (RCC_ClkInitStruct->SYSCLKSource << RCC_CFGR_SWS_Pos))
 8001c12:	4b2b      	ldr	r3, [pc, #172]	@ (8001cc0 <HAL_RCC_ClockConfig+0x1bc>)
 8001c14:	689b      	ldr	r3, [r3, #8]
 8001c16:	f003 020c 	and.w	r2, r3, #12
 8001c1a:	687b      	ldr	r3, [r7, #4]
 8001c1c:	685b      	ldr	r3, [r3, #4]
 8001c1e:	009b      	lsls	r3, r3, #2
 8001c20:	429a      	cmp	r2, r3
 8001c22:	d1eb      	bne.n	8001bfc <HAL_RCC_ClockConfig+0xf8>
      }
    }
  }

  /* Decreasing the number of wait states because of lower CPU frequency */
  if (FLatency < __HAL_FLASH_GET_LATENCY())
 8001c24:	4b25      	ldr	r3, [pc, #148]	@ (8001cbc <HAL_RCC_ClockConfig+0x1b8>)
 8001c26:	681b      	ldr	r3, [r3, #0]
 8001c28:	f003 0307 	and.w	r3, r3, #7
 8001c2c:	683a      	ldr	r2, [r7, #0]
 8001c2e:	429a      	cmp	r2, r3
 8001c30:	d20c      	bcs.n	8001c4c <HAL_RCC_ClockConfig+0x148>
  {
    /* Program the new number of wait states to the LATENCY bits in the FLASH_ACR register */
    __HAL_FLASH_SET_LATENCY(FLatency);
 8001c32:	4b22      	ldr	r3, [pc, #136]	@ (8001cbc <HAL_RCC_ClockConfig+0x1b8>)
 8001c34:	683a      	ldr	r2, [r7, #0]
 8001c36:	b2d2      	uxtb	r2, r2
 8001c38:	701a      	strb	r2, [r3, #0]

    /* Check that the new number of wait states is taken into account to access the Flash
    memory by reading the FLASH_ACR register */
    if (__HAL_FLASH_GET_LATENCY() != FLatency)
 8001c3a:	4b20      	ldr	r3, [pc, #128]	@ (8001cbc <HAL_RCC_ClockConfig+0x1b8>)
 8001c3c:	681b      	ldr	r3, [r3, #0]
 8001c3e:	f003 0307 	and.w	r3, r3, #7
 8001c42:	683a      	ldr	r2, [r7, #0]
 8001c44:	429a      	cmp	r2, r3
 8001c46:	d001      	beq.n	8001c4c <HAL_RCC_ClockConfig+0x148>
    {
      return HAL_ERROR;
 8001c48:	2301      	movs	r3, #1
 8001c4a:	e032      	b.n	8001cb2 <HAL_RCC_ClockConfig+0x1ae>
    }
  }

  /*-------------------------- PCLK1 Configuration ---------------------------*/
  if (((RCC_ClkInitStruct->ClockType) & RCC_CLOCKTYPE_PCLK1) == RCC_CLOCKTYPE_PCLK1)
 8001c4c:	687b      	ldr	r3, [r7, #4]
 8001c4e:	681b      	ldr	r3, [r3, #0]
 8001c50:	f003 0304 	and.w	r3, r3, #4
 8001c54:	2b00      	cmp	r3, #0
 8001c56:	d008      	beq.n	8001c6a <HAL_RCC_ClockConfig+0x166>
  {
    assert_param(IS_RCC_PCLK(RCC_ClkInitStruct->APB1CLKDivider));
    MODIFY_REG(RCC->CFGR, RCC_CFGR_PPRE1, RCC_ClkInitStruct->APB1CLKDivider);
 8001c58:	4b19      	ldr	r3, [pc, #100]	@ (8001cc0 <HAL_RCC_ClockConfig+0x1bc>)
 8001c5a:	689b      	ldr	r3, [r3, #8]
 8001c5c:	f423 52e0 	bic.w	r2, r3, #7168	@ 0x1c00
 8001c60:	687b      	ldr	r3, [r7, #4]
 8001c62:	68db      	ldr	r3, [r3, #12]
 8001c64:	4916      	ldr	r1, [pc, #88]	@ (8001cc0 <HAL_RCC_ClockConfig+0x1bc>)
 8001c66:	4313      	orrs	r3, r2
 8001c68:	608b      	str	r3, [r1, #8]
  }

  /*-------------------------- PCLK2 Configuration ---------------------------*/
  if (((RCC_ClkInitStruct->ClockType) & RCC_CLOCKTYPE_PCLK2) == RCC_CLOCKTYPE_PCLK2)
 8001c6a:	687b      	ldr	r3, [r7, #4]
 8001c6c:	681b      	ldr	r3, [r3, #0]
 8001c6e:	f003 0308 	and.w	r3, r3, #8
 8001c72:	2b00      	cmp	r3, #0
 8001c74:	d009      	beq.n	8001c8a <HAL_RCC_ClockConfig+0x186>
  {
    assert_param(IS_RCC_PCLK(RCC_ClkInitStruct->APB2CLKDivider));
    MODIFY_REG(RCC->CFGR, RCC_CFGR_PPRE2, ((RCC_ClkInitStruct->APB2CLKDivider) << 3U));
 8001c76:	4b12      	ldr	r3, [pc, #72]	@ (8001cc0 <HAL_RCC_ClockConfig+0x1bc>)
 8001c78:	689b      	ldr	r3, [r3, #8]
 8001c7a:	f423 4260 	bic.w	r2, r3, #57344	@ 0xe000
 8001c7e:	687b      	ldr	r3, [r7, #4]
 8001c80:	691b      	ldr	r3, [r3, #16]
 8001c82:	00db      	lsls	r3, r3, #3
 8001c84:	490e      	ldr	r1, [pc, #56]	@ (8001cc0 <HAL_RCC_ClockConfig+0x1bc>)
 8001c86:	4313      	orrs	r3, r2
 8001c88:	608b      	str	r3, [r1, #8]
  }

  /* Update the SystemCoreClock global variable */
  SystemCoreClock = HAL_RCC_GetSysClockFreq() >> AHBPrescTable[(RCC->CFGR & RCC_CFGR_HPRE) >> RCC_CFGR_HPRE_Pos];
 8001c8a:	f000 f821 	bl	8001cd0 <HAL_RCC_GetSysClockFreq>
 8001c8e:	4602      	mov	r2, r0
 8001c90:	4b0b      	ldr	r3, [pc, #44]	@ (8001cc0 <HAL_RCC_ClockConfig+0x1bc>)
 8001c92:	689b      	ldr	r3, [r3, #8]
 8001c94:	091b      	lsrs	r3, r3, #4
 8001c96:	f003 030f 	and.w	r3, r3, #15
 8001c9a:	490a      	ldr	r1, [pc, #40]	@ (8001cc4 <HAL_RCC_ClockConfig+0x1c0>)
 8001c9c:	5ccb      	ldrb	r3, [r1, r3]
 8001c9e:	fa22 f303 	lsr.w	r3, r2, r3
 8001ca2:	4a09      	ldr	r2, [pc, #36]	@ (8001cc8 <HAL_RCC_ClockConfig+0x1c4>)
 8001ca4:	6013      	str	r3, [r2, #0]

  /* Configure the source of time base considering new system clocks settings */
  HAL_InitTick(uwTickPrio);
 8001ca6:	4b09      	ldr	r3, [pc, #36]	@ (8001ccc <HAL_RCC_ClockConfig+0x1c8>)
 8001ca8:	681b      	ldr	r3, [r3, #0]
 8001caa:	4618      	mov	r0, r3
 8001cac:	f7ff f854 	bl	8000d58 <HAL_InitTick>

  return HAL_OK;
 8001cb0:	2300      	movs	r3, #0
}
 8001cb2:	4618      	mov	r0, r3
 8001cb4:	3710      	adds	r7, #16
 8001cb6:	46bd      	mov	sp, r7
 8001cb8:	bd80      	pop	{r7, pc}
 8001cba:	bf00      	nop
 8001cbc:	40023c00 	.word	0x40023c00
 8001cc0:	40023800 	.word	0x40023800
 8001cc4:	08003280 	.word	0x08003280
 8001cc8:	20000000 	.word	0x20000000
 8001ccc:	20000004 	.word	0x20000004

08001cd0 <HAL_RCC_GetSysClockFreq>:
  *
  *
  * @retval SYSCLK frequency
  */
__weak uint32_t HAL_RCC_GetSysClockFreq(void)
{
 8001cd0:	e92d 4fb0 	stmdb	sp!, {r4, r5, r7, r8, r9, sl, fp, lr}
 8001cd4:	b090      	sub	sp, #64	@ 0x40
 8001cd6:	af00      	add	r7, sp, #0
  uint32_t pllm = 0U;
 8001cd8:	2300      	movs	r3, #0
 8001cda:	637b      	str	r3, [r7, #52]	@ 0x34
  uint32_t pllvco = 0U;
 8001cdc:	2300      	movs	r3, #0
 8001cde:	63fb      	str	r3, [r7, #60]	@ 0x3c
  uint32_t pllp = 0U;
 8001ce0:	2300      	movs	r3, #0
 8001ce2:	633b      	str	r3, [r7, #48]	@ 0x30
  uint32_t sysclockfreq = 0U;
 8001ce4:	2300      	movs	r3, #0
 8001ce6:	63bb      	str	r3, [r7, #56]	@ 0x38

  /* Get SYSCLK source -------------------------------------------------------*/
  switch (RCC->CFGR & RCC_CFGR_SWS)
 8001ce8:	4b59      	ldr	r3, [pc, #356]	@ (8001e50 <HAL_RCC_GetSysClockFreq+0x180>)
 8001cea:	689b      	ldr	r3, [r3, #8]
 8001cec:	f003 030c 	and.w	r3, r3, #12
 8001cf0:	2b08      	cmp	r3, #8
 8001cf2:	d00d      	beq.n	8001d10 <HAL_RCC_GetSysClockFreq+0x40>
 8001cf4:	2b08      	cmp	r3, #8
 8001cf6:	f200 80a1 	bhi.w	8001e3c <HAL_RCC_GetSysClockFreq+0x16c>
 8001cfa:	2b00      	cmp	r3, #0
 8001cfc:	d002      	beq.n	8001d04 <HAL_RCC_GetSysClockFreq+0x34>
 8001cfe:	2b04      	cmp	r3, #4
 8001d00:	d003      	beq.n	8001d0a <HAL_RCC_GetSysClockFreq+0x3a>
 8001d02:	e09b      	b.n	8001e3c <HAL_RCC_GetSysClockFreq+0x16c>
  {
    case RCC_CFGR_SWS_HSI:  /* HSI used as system clock source */
    {
      sysclockfreq = HSI_VALUE;
 8001d04:	4b53      	ldr	r3, [pc, #332]	@ (8001e54 <HAL_RCC_GetSysClockFreq+0x184>)
 8001d06:	63bb      	str	r3, [r7, #56]	@ 0x38
      break;
 8001d08:	e09b      	b.n	8001e42 <HAL_RCC_GetSysClockFreq+0x172>
    }
    case RCC_CFGR_SWS_HSE:  /* HSE used as system clock  source */
    {
      sysclockfreq = HSE_VALUE;
 8001d0a:	4b53      	ldr	r3, [pc, #332]	@ (8001e58 <HAL_RCC_GetSysClockFreq+0x188>)
 8001d0c:	63bb      	str	r3, [r7, #56]	@ 0x38
      break;
 8001d0e:	e098      	b.n	8001e42 <HAL_RCC_GetSysClockFreq+0x172>
    }
    case RCC_CFGR_SWS_PLL:  /* PLL used as system clock  source */
    {
      /* PLL_VCO = (HSE_VALUE or HSI_VALUE / PLLM) * PLLN
      SYSCLK = PLL_VCO / PLLP */
      pllm = RCC->PLLCFGR & RCC_PLLCFGR_PLLM;
 8001d10:	4b4f      	ldr	r3, [pc, #316]	@ (8001e50 <HAL_RCC_GetSysClockFreq+0x180>)
 8001d12:	685b      	ldr	r3, [r3, #4]
 8001d14:	f003 033f 	and.w	r3, r3, #63	@ 0x3f
 8001d18:	637b      	str	r3, [r7, #52]	@ 0x34
      if (__HAL_RCC_GET_PLL_OSCSOURCE() != RCC_PLLSOURCE_HSI)
 8001d1a:	4b4d      	ldr	r3, [pc, #308]	@ (8001e50 <HAL_RCC_GetSysClockFreq+0x180>)
 8001d1c:	685b      	ldr	r3, [r3, #4]
 8001d1e:	f403 0380 	and.w	r3, r3, #4194304	@ 0x400000
 8001d22:	2b00      	cmp	r3, #0
 8001d24:	d028      	beq.n	8001d78 <HAL_RCC_GetSysClockFreq+0xa8>
      {
        /* HSE used as PLL clock source */
        pllvco = (uint32_t)((((uint64_t) HSE_VALUE * ((uint64_t)((RCC->PLLCFGR & RCC_PLLCFGR_PLLN) >> RCC_PLLCFGR_PLLN_Pos)))) / (uint64_t)pllm);
 8001d26:	4b4a      	ldr	r3, [pc, #296]	@ (8001e50 <HAL_RCC_GetSysClockFreq+0x180>)
 8001d28:	685b      	ldr	r3, [r3, #4]
 8001d2a:	099b      	lsrs	r3, r3, #6
 8001d2c:	2200      	movs	r2, #0
 8001d2e:	623b      	str	r3, [r7, #32]
 8001d30:	627a      	str	r2, [r7, #36]	@ 0x24
 8001d32:	6a3b      	ldr	r3, [r7, #32]
 8001d34:	f3c3 0008 	ubfx	r0, r3, #0, #9
 8001d38:	2100      	movs	r1, #0
 8001d3a:	4b47      	ldr	r3, [pc, #284]	@ (8001e58 <HAL_RCC_GetSysClockFreq+0x188>)
 8001d3c:	fb03 f201 	mul.w	r2, r3, r1
 8001d40:	2300      	movs	r3, #0
 8001d42:	fb00 f303 	mul.w	r3, r0, r3
 8001d46:	4413      	add	r3, r2
 8001d48:	4a43      	ldr	r2, [pc, #268]	@ (8001e58 <HAL_RCC_GetSysClockFreq+0x188>)
 8001d4a:	fba0 1202 	umull	r1, r2, r0, r2
 8001d4e:	62fa      	str	r2, [r7, #44]	@ 0x2c
 8001d50:	460a      	mov	r2, r1
 8001d52:	62ba      	str	r2, [r7, #40]	@ 0x28
 8001d54:	6afa      	ldr	r2, [r7, #44]	@ 0x2c
 8001d56:	4413      	add	r3, r2
 8001d58:	62fb      	str	r3, [r7, #44]	@ 0x2c
 8001d5a:	6b7b      	ldr	r3, [r7, #52]	@ 0x34
 8001d5c:	2200      	movs	r2, #0
 8001d5e:	61bb      	str	r3, [r7, #24]
 8001d60:	61fa      	str	r2, [r7, #28]
 8001d62:	e9d7 2306 	ldrd	r2, r3, [r7, #24]
 8001d66:	e9d7 010a 	ldrd	r0, r1, [r7, #40]	@ 0x28
 8001d6a:	f7fe fa35 	bl	80001d8 <__aeabi_uldivmod>
 8001d6e:	4602      	mov	r2, r0
 8001d70:	460b      	mov	r3, r1
 8001d72:	4613      	mov	r3, r2
 8001d74:	63fb      	str	r3, [r7, #60]	@ 0x3c
 8001d76:	e053      	b.n	8001e20 <HAL_RCC_GetSysClockFreq+0x150>
      }
      else
      {
        /* HSI used as PLL clock source */
        pllvco = (uint32_t)((((uint64_t) HSI_VALUE * ((uint64_t)((RCC->PLLCFGR & RCC_PLLCFGR_PLLN) >> RCC_PLLCFGR_PLLN_Pos)))) / (uint64_t)pllm);
 8001d78:	4b35      	ldr	r3, [pc, #212]	@ (8001e50 <HAL_RCC_GetSysClockFreq+0x180>)
 8001d7a:	685b      	ldr	r3, [r3, #4]
 8001d7c:	099b      	lsrs	r3, r3, #6
 8001d7e:	2200      	movs	r2, #0
 8001d80:	613b      	str	r3, [r7, #16]
 8001d82:	617a      	str	r2, [r7, #20]
 8001d84:	693b      	ldr	r3, [r7, #16]
 8001d86:	f3c3 0a08 	ubfx	sl, r3, #0, #9
 8001d8a:	f04f 0b00 	mov.w	fp, #0
 8001d8e:	4652      	mov	r2, sl
 8001d90:	465b      	mov	r3, fp
 8001d92:	f04f 0000 	mov.w	r0, #0
 8001d96:	f04f 0100 	mov.w	r1, #0
 8001d9a:	0159      	lsls	r1, r3, #5
 8001d9c:	ea41 61d2 	orr.w	r1, r1, r2, lsr #27
 8001da0:	0150      	lsls	r0, r2, #5
 8001da2:	4602      	mov	r2, r0
 8001da4:	460b      	mov	r3, r1
 8001da6:	ebb2 080a 	subs.w	r8, r2, sl
 8001daa:	eb63 090b 	sbc.w	r9, r3, fp
 8001dae:	f04f 0200 	mov.w	r2, #0
 8001db2:	f04f 0300 	mov.w	r3, #0
 8001db6:	ea4f 1389 	mov.w	r3, r9, lsl #6
 8001dba:	ea43 6398 	orr.w	r3, r3, r8, lsr #26
 8001dbe:	ea4f 1288 	mov.w	r2, r8, lsl #6
 8001dc2:	ebb2 0408 	subs.w	r4, r2, r8
 8001dc6:	eb63 0509 	sbc.w	r5, r3, r9
 8001dca:	f04f 0200 	mov.w	r2, #0
 8001dce:	f04f 0300 	mov.w	r3, #0
 8001dd2:	00eb      	lsls	r3, r5, #3
 8001dd4:	ea43 7354 	orr.w	r3, r3, r4, lsr #29
 8001dd8:	00e2      	lsls	r2, r4, #3
 8001dda:	4614      	mov	r4, r2
 8001ddc:	461d      	mov	r5, r3
 8001dde:	eb14 030a 	adds.w	r3, r4, sl
 8001de2:	603b      	str	r3, [r7, #0]
 8001de4:	eb45 030b 	adc.w	r3, r5, fp
 8001de8:	607b      	str	r3, [r7, #4]
 8001dea:	f04f 0200 	mov.w	r2, #0
 8001dee:	f04f 0300 	mov.w	r3, #0
 8001df2:	e9d7 4500 	ldrd	r4, r5, [r7]
 8001df6:	4629      	mov	r1, r5
 8001df8:	028b      	lsls	r3, r1, #10
 8001dfa:	4621      	mov	r1, r4
 8001dfc:	ea43 5391 	orr.w	r3, r3, r1, lsr #22
 8001e00:	4621      	mov	r1, r4
 8001e02:	028a      	lsls	r2, r1, #10
 8001e04:	4610      	mov	r0, r2
 8001e06:	4619      	mov	r1, r3
 8001e08:	6b7b      	ldr	r3, [r7, #52]	@ 0x34
 8001e0a:	2200      	movs	r2, #0
 8001e0c:	60bb      	str	r3, [r7, #8]
 8001e0e:	60fa      	str	r2, [r7, #12]
 8001e10:	e9d7 2302 	ldrd	r2, r3, [r7, #8]
 8001e14:	f7fe f9e0 	bl	80001d8 <__aeabi_uldivmod>
 8001e18:	4602      	mov	r2, r0
 8001e1a:	460b      	mov	r3, r1
 8001e1c:	4613      	mov	r3, r2
 8001e1e:	63fb      	str	r3, [r7, #60]	@ 0x3c
      }
      pllp = ((((RCC->PLLCFGR & RCC_PLLCFGR_PLLP) >> RCC_PLLCFGR_PLLP_Pos) + 1U) * 2U);
 8001e20:	4b0b      	ldr	r3, [pc, #44]	@ (8001e50 <HAL_RCC_GetSysClockFreq+0x180>)
 8001e22:	685b      	ldr	r3, [r3, #4]
 8001e24:	0c1b      	lsrs	r3, r3, #16
 8001e26:	f003 0303 	and.w	r3, r3, #3
 8001e2a:	3301      	adds	r3, #1
 8001e2c:	005b      	lsls	r3, r3, #1
 8001e2e:	633b      	str	r3, [r7, #48]	@ 0x30

      sysclockfreq = pllvco / pllp;
 8001e30:	6bfa      	ldr	r2, [r7, #60]	@ 0x3c
 8001e32:	6b3b      	ldr	r3, [r7, #48]	@ 0x30
 8001e34:	fbb2 f3f3 	udiv	r3, r2, r3
 8001e38:	63bb      	str	r3, [r7, #56]	@ 0x38
      break;
 8001e3a:	e002      	b.n	8001e42 <HAL_RCC_GetSysClockFreq+0x172>
    }
    default:
    {
      sysclockfreq = HSI_VALUE;
 8001e3c:	4b05      	ldr	r3, [pc, #20]	@ (8001e54 <HAL_RCC_GetSysClockFreq+0x184>)
 8001e3e:	63bb      	str	r3, [r7, #56]	@ 0x38
      break;
 8001e40:	bf00      	nop
    }
  }
  return sysclockfreq;
 8001e42:	6bbb      	ldr	r3, [r7, #56]	@ 0x38
}
 8001e44:	4618      	mov	r0, r3
 8001e46:	3740      	adds	r7, #64	@ 0x40
 8001e48:	46bd      	mov	sp, r7
 8001e4a:	e8bd 8fb0 	ldmia.w	sp!, {r4, r5, r7, r8, r9, sl, fp, pc}
 8001e4e:	bf00      	nop
 8001e50:	40023800 	.word	0x40023800
 8001e54:	00f42400 	.word	0x00f42400
 8001e58:	017d7840 	.word	0x017d7840

08001e5c <HAL_RCC_GetHCLKFreq>:
  * @note   The SystemCoreClock CMSIS variable is used to store System Clock Frequency
  *         and updated within this function
  * @retval HCLK frequency
  */
uint32_t HAL_RCC_GetHCLKFreq(void)
{
 8001e5c:	b480      	push	{r7}
 8001e5e:	af00      	add	r7, sp, #0
  return SystemCoreClock;
 8001e60:	4b03      	ldr	r3, [pc, #12]	@ (8001e70 <HAL_RCC_GetHCLKFreq+0x14>)
 8001e62:	681b      	ldr	r3, [r3, #0]
}
 8001e64:	4618      	mov	r0, r3
 8001e66:	46bd      	mov	sp, r7
 8001e68:	f85d 7b04 	ldr.w	r7, [sp], #4
 8001e6c:	4770      	bx	lr
 8001e6e:	bf00      	nop
 8001e70:	20000000 	.word	0x20000000

08001e74 <HAL_RCC_GetPCLK1Freq>:
  * @note   Each time PCLK1 changes, this function must be called to update the
  *         right PCLK1 value. Otherwise, any configuration based on this function will be incorrect.
  * @retval PCLK1 frequency
  */
uint32_t HAL_RCC_GetPCLK1Freq(void)
{
 8001e74:	b580      	push	{r7, lr}
 8001e76:	af00      	add	r7, sp, #0
  /* Get HCLK source and Compute PCLK1 frequency ---------------------------*/
  return (HAL_RCC_GetHCLKFreq() >> APBPrescTable[(RCC->CFGR & RCC_CFGR_PPRE1) >> RCC_CFGR_PPRE1_Pos]);
 8001e78:	f7ff fff0 	bl	8001e5c <HAL_RCC_GetHCLKFreq>
 8001e7c:	4602      	mov	r2, r0
 8001e7e:	4b05      	ldr	r3, [pc, #20]	@ (8001e94 <HAL_RCC_GetPCLK1Freq+0x20>)
 8001e80:	689b      	ldr	r3, [r3, #8]
 8001e82:	0a9b      	lsrs	r3, r3, #10
 8001e84:	f003 0307 	and.w	r3, r3, #7
 8001e88:	4903      	ldr	r1, [pc, #12]	@ (8001e98 <HAL_RCC_GetPCLK1Freq+0x24>)
 8001e8a:	5ccb      	ldrb	r3, [r1, r3]
 8001e8c:	fa22 f303 	lsr.w	r3, r2, r3
}
 8001e90:	4618      	mov	r0, r3
 8001e92:	bd80      	pop	{r7, pc}
 8001e94:	40023800 	.word	0x40023800
 8001e98:	08003290 	.word	0x08003290

08001e9c <HAL_RCC_GetPCLK2Freq>:
  * @note   Each time PCLK2 changes, this function must be called to update the
  *         right PCLK2 value. Otherwise, any configuration based on this function will be incorrect.
  * @retval PCLK2 frequency
  */
uint32_t HAL_RCC_GetPCLK2Freq(void)
{
 8001e9c:	b580      	push	{r7, lr}
 8001e9e:	af00      	add	r7, sp, #0
  /* Get HCLK source and Compute PCLK2 frequency ---------------------------*/
  return (HAL_RCC_GetHCLKFreq() >> APBPrescTable[(RCC->CFGR & RCC_CFGR_PPRE2) >> RCC_CFGR_PPRE2_Pos]);
 8001ea0:	f7ff ffdc 	bl	8001e5c <HAL_RCC_GetHCLKFreq>
 8001ea4:	4602      	mov	r2, r0
 8001ea6:	4b05      	ldr	r3, [pc, #20]	@ (8001ebc <HAL_RCC_GetPCLK2Freq+0x20>)
 8001ea8:	689b      	ldr	r3, [r3, #8]
 8001eaa:	0b5b      	lsrs	r3, r3, #13
 8001eac:	f003 0307 	and.w	r3, r3, #7
 8001eb0:	4903      	ldr	r1, [pc, #12]	@ (8001ec0 <HAL_RCC_GetPCLK2Freq+0x24>)
 8001eb2:	5ccb      	ldrb	r3, [r1, r3]
 8001eb4:	fa22 f303 	lsr.w	r3, r2, r3
}
 8001eb8:	4618      	mov	r0, r3
 8001eba:	bd80      	pop	{r7, pc}
 8001ebc:	40023800 	.word	0x40023800
 8001ec0:	08003290 	.word	0x08003290

08001ec4 <HAL_TIM_Base_Init>:
  *         Ex: call @ref HAL_TIM_Base_DeInit() before HAL_TIM_Base_Init()
  * @param  htim TIM Base handle
  * @retval HAL status
  */
HAL_StatusTypeDef HAL_TIM_Base_Init(TIM_HandleTypeDef *htim)
{
 8001ec4:	b580      	push	{r7, lr}
 8001ec6:	b082      	sub	sp, #8
 8001ec8:	af00      	add	r7, sp, #0
 8001eca:	6078      	str	r0, [r7, #4]
  /* Check the TIM handle allocation */
  if (htim == NULL)
 8001ecc:	687b      	ldr	r3, [r7, #4]
 8001ece:	2b00      	cmp	r3, #0
 8001ed0:	d101      	bne.n	8001ed6 <HAL_TIM_Base_Init+0x12>
  {
    return HAL_ERROR;
 8001ed2:	2301      	movs	r3, #1
 8001ed4:	e041      	b.n	8001f5a <HAL_TIM_Base_Init+0x96>
  assert_param(IS_TIM_COUNTER_MODE(htim->Init.CounterMode));
  assert_param(IS_TIM_CLOCKDIVISION_DIV(htim->Init.ClockDivision));
  assert_param(IS_TIM_PERIOD(htim, htim->Init.Period));
  assert_param(IS_TIM_AUTORELOAD_PRELOAD(htim->Init.AutoReloadPreload));

  if (htim->State == HAL_TIM_STATE_RESET)
 8001ed6:	687b      	ldr	r3, [r7, #4]
 8001ed8:	f893 303d 	ldrb.w	r3, [r3, #61]	@ 0x3d
 8001edc:	b2db      	uxtb	r3, r3
 8001ede:	2b00      	cmp	r3, #0
 8001ee0:	d106      	bne.n	8001ef0 <HAL_TIM_Base_Init+0x2c>
  {
    /* Allocate lock resource and initialize it */
    htim->Lock = HAL_UNLOCKED;
 8001ee2:	687b      	ldr	r3, [r7, #4]
 8001ee4:	2200      	movs	r2, #0
 8001ee6:	f883 203c 	strb.w	r2, [r3, #60]	@ 0x3c
    }
    /* Init the low level hardware : GPIO, CLOCK, NVIC */
    htim->Base_MspInitCallback(htim);
#else
    /* Init the low level hardware : GPIO, CLOCK, NVIC */
    HAL_TIM_Base_MspInit(htim);
 8001eea:	6878      	ldr	r0, [r7, #4]
 8001eec:	f7fe fdde 	bl	8000aac <HAL_TIM_Base_MspInit>
#endif /* USE_HAL_TIM_REGISTER_CALLBACKS */
  }

  /* Set the TIM state */
  htim->State = HAL_TIM_STATE_BUSY;
 8001ef0:	687b      	ldr	r3, [r7, #4]
 8001ef2:	2202      	movs	r2, #2
 8001ef4:	f883 203d 	strb.w	r2, [r3, #61]	@ 0x3d

  /* Set the Time Base configuration */
  TIM_Base_SetConfig(htim->Instance, &htim->Init);
 8001ef8:	687b      	ldr	r3, [r7, #4]
 8001efa:	681a      	ldr	r2, [r3, #0]
 8001efc:	687b      	ldr	r3, [r7, #4]
 8001efe:	3304      	adds	r3, #4
 8001f00:	4619      	mov	r1, r3
 8001f02:	4610      	mov	r0, r2
 8001f04:	f000 fb8c 	bl	8002620 <TIM_Base_SetConfig>

  /* Initialize the DMA burst operation state */
  htim->DMABurstState = HAL_DMA_BURST_STATE_READY;
 8001f08:	687b      	ldr	r3, [r7, #4]
 8001f0a:	2201      	movs	r2, #1
 8001f0c:	f883 2046 	strb.w	r2, [r3, #70]	@ 0x46

  /* Initialize the TIM channels state */
  TIM_CHANNEL_STATE_SET_ALL(htim, HAL_TIM_CHANNEL_STATE_READY);
 8001f10:	687b      	ldr	r3, [r7, #4]
 8001f12:	2201      	movs	r2, #1
 8001f14:	f883 203e 	strb.w	r2, [r3, #62]	@ 0x3e
 8001f18:	687b      	ldr	r3, [r7, #4]
 8001f1a:	2201      	movs	r2, #1
 8001f1c:	f883 203f 	strb.w	r2, [r3, #63]	@ 0x3f
 8001f20:	687b      	ldr	r3, [r7, #4]
 8001f22:	2201      	movs	r2, #1
 8001f24:	f883 2040 	strb.w	r2, [r3, #64]	@ 0x40
 8001f28:	687b      	ldr	r3, [r7, #4]
 8001f2a:	2201      	movs	r2, #1
 8001f2c:	f883 2041 	strb.w	r2, [r3, #65]	@ 0x41
  TIM_CHANNEL_N_STATE_SET_ALL(htim, HAL_TIM_CHANNEL_STATE_READY);
 8001f30:	687b      	ldr	r3, [r7, #4]
 8001f32:	2201      	movs	r2, #1
 8001f34:	f883 2042 	strb.w	r2, [r3, #66]	@ 0x42
 8001f38:	687b      	ldr	r3, [r7, #4]
 8001f3a:	2201      	movs	r2, #1
 8001f3c:	f883 2043 	strb.w	r2, [r3, #67]	@ 0x43
 8001f40:	687b      	ldr	r3, [r7, #4]
 8001f42:	2201      	movs	r2, #1
 8001f44:	f883 2044 	strb.w	r2, [r3, #68]	@ 0x44
 8001f48:	687b      	ldr	r3, [r7, #4]
 8001f4a:	2201      	movs	r2, #1
 8001f4c:	f883 2045 	strb.w	r2, [r3, #69]	@ 0x45

  /* Initialize the TIM state*/
  htim->State = HAL_TIM_STATE_READY;
 8001f50:	687b      	ldr	r3, [r7, #4]
 8001f52:	2201      	movs	r2, #1
 8001f54:	f883 203d 	strb.w	r2, [r3, #61]	@ 0x3d

  return HAL_OK;
 8001f58:	2300      	movs	r3, #0
}
 8001f5a:	4618      	mov	r0, r3
 8001f5c:	3708      	adds	r7, #8
 8001f5e:	46bd      	mov	sp, r7
 8001f60:	bd80      	pop	{r7, pc}
	...

08001f64 <HAL_TIM_Base_Start_IT>:
  * @brief  Starts the TIM Base generation in interrupt mode.
  * @param  htim TIM Base handle
  * @retval HAL status
  */
HAL_StatusTypeDef HAL_TIM_Base_Start_IT(TIM_HandleTypeDef *htim)
{
 8001f64:	b480      	push	{r7}
 8001f66:	b085      	sub	sp, #20
 8001f68:	af00      	add	r7, sp, #0
 8001f6a:	6078      	str	r0, [r7, #4]

  /* Check the parameters */
  assert_param(IS_TIM_INSTANCE(htim->Instance));

  /* Check the TIM state */
  if (htim->State != HAL_TIM_STATE_READY)
 8001f6c:	687b      	ldr	r3, [r7, #4]
 8001f6e:	f893 303d 	ldrb.w	r3, [r3, #61]	@ 0x3d
 8001f72:	b2db      	uxtb	r3, r3
 8001f74:	2b01      	cmp	r3, #1
 8001f76:	d001      	beq.n	8001f7c <HAL_TIM_Base_Start_IT+0x18>
  {
    return HAL_ERROR;
 8001f78:	2301      	movs	r3, #1
 8001f7a:	e044      	b.n	8002006 <HAL_TIM_Base_Start_IT+0xa2>
  }

  /* Set the TIM state */
  htim->State = HAL_TIM_STATE_BUSY;
 8001f7c:	687b      	ldr	r3, [r7, #4]
 8001f7e:	2202      	movs	r2, #2
 8001f80:	f883 203d 	strb.w	r2, [r3, #61]	@ 0x3d

  /* Enable the TIM Update interrupt */
  __HAL_TIM_ENABLE_IT(htim, TIM_IT_UPDATE);
 8001f84:	687b      	ldr	r3, [r7, #4]
 8001f86:	681b      	ldr	r3, [r3, #0]
 8001f88:	68da      	ldr	r2, [r3, #12]
 8001f8a:	687b      	ldr	r3, [r7, #4]
 8001f8c:	681b      	ldr	r3, [r3, #0]
 8001f8e:	f042 0201 	orr.w	r2, r2, #1
 8001f92:	60da      	str	r2, [r3, #12]

  /* Enable the Peripheral, except in trigger mode where enable is automatically done with trigger */
  if (IS_TIM_SLAVE_INSTANCE(htim->Instance))
 8001f94:	687b      	ldr	r3, [r7, #4]
 8001f96:	681b      	ldr	r3, [r3, #0]
 8001f98:	4a1e      	ldr	r2, [pc, #120]	@ (8002014 <HAL_TIM_Base_Start_IT+0xb0>)
 8001f9a:	4293      	cmp	r3, r2
 8001f9c:	d018      	beq.n	8001fd0 <HAL_TIM_Base_Start_IT+0x6c>
 8001f9e:	687b      	ldr	r3, [r7, #4]
 8001fa0:	681b      	ldr	r3, [r3, #0]
 8001fa2:	f1b3 4f80 	cmp.w	r3, #1073741824	@ 0x40000000
 8001fa6:	d013      	beq.n	8001fd0 <HAL_TIM_Base_Start_IT+0x6c>
 8001fa8:	687b      	ldr	r3, [r7, #4]
 8001faa:	681b      	ldr	r3, [r3, #0]
 8001fac:	4a1a      	ldr	r2, [pc, #104]	@ (8002018 <HAL_TIM_Base_Start_IT+0xb4>)
 8001fae:	4293      	cmp	r3, r2
 8001fb0:	d00e      	beq.n	8001fd0 <HAL_TIM_Base_Start_IT+0x6c>
 8001fb2:	687b      	ldr	r3, [r7, #4]
 8001fb4:	681b      	ldr	r3, [r3, #0]
 8001fb6:	4a19      	ldr	r2, [pc, #100]	@ (800201c <HAL_TIM_Base_Start_IT+0xb8>)
 8001fb8:	4293      	cmp	r3, r2
 8001fba:	d009      	beq.n	8001fd0 <HAL_TIM_Base_Start_IT+0x6c>
 8001fbc:	687b      	ldr	r3, [r7, #4]
 8001fbe:	681b      	ldr	r3, [r3, #0]
 8001fc0:	4a17      	ldr	r2, [pc, #92]	@ (8002020 <HAL_TIM_Base_Start_IT+0xbc>)
 8001fc2:	4293      	cmp	r3, r2
 8001fc4:	d004      	beq.n	8001fd0 <HAL_TIM_Base_Start_IT+0x6c>
 8001fc6:	687b      	ldr	r3, [r7, #4]
 8001fc8:	681b      	ldr	r3, [r3, #0]
 8001fca:	4a16      	ldr	r2, [pc, #88]	@ (8002024 <HAL_TIM_Base_Start_IT+0xc0>)
 8001fcc:	4293      	cmp	r3, r2
 8001fce:	d111      	bne.n	8001ff4 <HAL_TIM_Base_Start_IT+0x90>
  {
    tmpsmcr = htim->Instance->SMCR & TIM_SMCR_SMS;
 8001fd0:	687b      	ldr	r3, [r7, #4]
 8001fd2:	681b      	ldr	r3, [r3, #0]
 8001fd4:	689b      	ldr	r3, [r3, #8]
 8001fd6:	f003 0307 	and.w	r3, r3, #7
 8001fda:	60fb      	str	r3, [r7, #12]
    if (!IS_TIM_SLAVEMODE_TRIGGER_ENABLED(tmpsmcr))
 8001fdc:	68fb      	ldr	r3, [r7, #12]
 8001fde:	2b06      	cmp	r3, #6
 8001fe0:	d010      	beq.n	8002004 <HAL_TIM_Base_Start_IT+0xa0>
    {
      __HAL_TIM_ENABLE(htim);
 8001fe2:	687b      	ldr	r3, [r7, #4]
 8001fe4:	681b      	ldr	r3, [r3, #0]
 8001fe6:	681a      	ldr	r2, [r3, #0]
 8001fe8:	687b      	ldr	r3, [r7, #4]
 8001fea:	681b      	ldr	r3, [r3, #0]
 8001fec:	f042 0201 	orr.w	r2, r2, #1
 8001ff0:	601a      	str	r2, [r3, #0]
    if (!IS_TIM_SLAVEMODE_TRIGGER_ENABLED(tmpsmcr))
 8001ff2:	e007      	b.n	8002004 <HAL_TIM_Base_Start_IT+0xa0>
    }
  }
  else
  {
    __HAL_TIM_ENABLE(htim);
 8001ff4:	687b      	ldr	r3, [r7, #4]
 8001ff6:	681b      	ldr	r3, [r3, #0]
 8001ff8:	681a      	ldr	r2, [r3, #0]
 8001ffa:	687b      	ldr	r3, [r7, #4]
 8001ffc:	681b      	ldr	r3, [r3, #0]
 8001ffe:	f042 0201 	orr.w	r2, r2, #1
 8002002:	601a      	str	r2, [r3, #0]
  }

  /* Return function status */
  return HAL_OK;
 8002004:	2300      	movs	r3, #0
}
 8002006:	4618      	mov	r0, r3
 8002008:	3714      	adds	r7, #20
 800200a:	46bd      	mov	sp, r7
 800200c:	f85d 7b04 	ldr.w	r7, [sp], #4
 8002010:	4770      	bx	lr
 8002012:	bf00      	nop
 8002014:	40010000 	.word	0x40010000
 8002018:	40000400 	.word	0x40000400
 800201c:	40000800 	.word	0x40000800
 8002020:	40000c00 	.word	0x40000c00
 8002024:	40014000 	.word	0x40014000

08002028 <HAL_TIM_PWM_Init>:
  *         Ex: call @ref HAL_TIM_PWM_DeInit() before HAL_TIM_PWM_Init()
  * @param  htim TIM PWM handle
  * @retval HAL status
  */
HAL_StatusTypeDef HAL_TIM_PWM_Init(TIM_HandleTypeDef *htim)
{
 8002028:	b580      	push	{r7, lr}
 800202a:	b082      	sub	sp, #8
 800202c:	af00      	add	r7, sp, #0
 800202e:	6078      	str	r0, [r7, #4]
  /* Check the TIM handle allocation */
  if (htim == NULL)
 8002030:	687b      	ldr	r3, [r7, #4]
 8002032:	2b00      	cmp	r3, #0
 8002034:	d101      	bne.n	800203a <HAL_TIM_PWM_Init+0x12>
  {
    return HAL_ERROR;
 8002036:	2301      	movs	r3, #1
 8002038:	e041      	b.n	80020be <HAL_TIM_PWM_Init+0x96>
  assert_param(IS_TIM_COUNTER_MODE(htim->Init.CounterMode));
  assert_param(IS_TIM_CLOCKDIVISION_DIV(htim->Init.ClockDivision));
  assert_param(IS_TIM_PERIOD(htim, htim->Init.Period));
  assert_param(IS_TIM_AUTORELOAD_PRELOAD(htim->Init.AutoReloadPreload));

  if (htim->State == HAL_TIM_STATE_RESET)
 800203a:	687b      	ldr	r3, [r7, #4]
 800203c:	f893 303d 	ldrb.w	r3, [r3, #61]	@ 0x3d
 8002040:	b2db      	uxtb	r3, r3
 8002042:	2b00      	cmp	r3, #0
 8002044:	d106      	bne.n	8002054 <HAL_TIM_PWM_Init+0x2c>
  {
    /* Allocate lock resource and initialize it */
    htim->Lock = HAL_UNLOCKED;
 8002046:	687b      	ldr	r3, [r7, #4]
 8002048:	2200      	movs	r2, #0
 800204a:	f883 203c 	strb.w	r2, [r3, #60]	@ 0x3c
    }
    /* Init the low level hardware : GPIO, CLOCK, NVIC */
    htim->PWM_MspInitCallback(htim);
#else
    /* Init the low level hardware : GPIO, CLOCK, NVIC and DMA */
    HAL_TIM_PWM_MspInit(htim);
 800204e:	6878      	ldr	r0, [r7, #4]
 8002050:	f000 f839 	bl	80020c6 <HAL_TIM_PWM_MspInit>
#endif /* USE_HAL_TIM_REGISTER_CALLBACKS */
  }

  /* Set the TIM state */
  htim->State = HAL_TIM_STATE_BUSY;
 8002054:	687b      	ldr	r3, [r7, #4]
 8002056:	2202      	movs	r2, #2
 8002058:	f883 203d 	strb.w	r2, [r3, #61]	@ 0x3d

  /* Init the base time for the PWM */
  TIM_Base_SetConfig(htim->Instance, &htim->Init);
 800205c:	687b      	ldr	r3, [r7, #4]
 800205e:	681a      	ldr	r2, [r3, #0]
 8002060:	687b      	ldr	r3, [r7, #4]
 8002062:	3304      	adds	r3, #4
 8002064:	4619      	mov	r1, r3
 8002066:	4610      	mov	r0, r2
 8002068:	f000 fada 	bl	8002620 <TIM_Base_SetConfig>

  /* Initialize the DMA burst operation state */
  htim->DMABurstState = HAL_DMA_BURST_STATE_READY;
 800206c:	687b      	ldr	r3, [r7, #4]
 800206e:	2201      	movs	r2, #1
 8002070:	f883 2046 	strb.w	r2, [r3, #70]	@ 0x46

  /* Initialize the TIM channels state */
  TIM_CHANNEL_STATE_SET_ALL(htim, HAL_TIM_CHANNEL_STATE_READY);
 8002074:	687b      	ldr	r3, [r7, #4]
 8002076:	2201      	movs	r2, #1
 8002078:	f883 203e 	strb.w	r2, [r3, #62]	@ 0x3e
 800207c:	687b      	ldr	r3, [r7, #4]
 800207e:	2201      	movs	r2, #1
 8002080:	f883 203f 	strb.w	r2, [r3, #63]	@ 0x3f
 8002084:	687b      	ldr	r3, [r7, #4]
 8002086:	2201      	movs	r2, #1
 8002088:	f883 2040 	strb.w	r2, [r3, #64]	@ 0x40
 800208c:	687b      	ldr	r3, [r7, #4]
 800208e:	2201      	movs	r2, #1
 8002090:	f883 2041 	strb.w	r2, [r3, #65]	@ 0x41
  TIM_CHANNEL_N_STATE_SET_ALL(htim, HAL_TIM_CHANNEL_STATE_READY);
 8002094:	687b      	ldr	r3, [r7, #4]
 8002096:	2201      	movs	r2, #1
 8002098:	f883 2042 	strb.w	r2, [r3, #66]	@ 0x42
 800209c:	687b      	ldr	r3, [r7, #4]
 800209e:	2201      	movs	r2, #1
 80020a0:	f883 2043 	strb.w	r2, [r3, #67]	@ 0x43
 80020a4:	687b      	ldr	r3, [r7, #4]
 80020a6:	2201      	movs	r2, #1
 80020a8:	f883 2044 	strb.w	r2, [r3, #68]	@ 0x44
 80020ac:	687b      	ldr	r3, [r7, #4]
 80020ae:	2201      	movs	r2, #1
 80020b0:	f883 2045 	strb.w	r2, [r3, #69]	@ 0x45

  /* Initialize the TIM state*/
  htim->State = HAL_TIM_STATE_READY;
 80020b4:	687b      	ldr	r3, [r7, #4]
 80020b6:	2201      	movs	r2, #1
 80020b8:	f883 203d 	strb.w	r2, [r3, #61]	@ 0x3d

  return HAL_OK;
 80020bc:	2300      	movs	r3, #0
}
 80020be:	4618      	mov	r0, r3
 80020c0:	3708      	adds	r7, #8
 80020c2:	46bd      	mov	sp, r7
 80020c4:	bd80      	pop	{r7, pc}

080020c6 <HAL_TIM_PWM_MspInit>:
  * @brief  Initializes the TIM PWM MSP.
  * @param  htim TIM PWM handle
  * @retval None
  */
__weak void HAL_TIM_PWM_MspInit(TIM_HandleTypeDef *htim)
{
 80020c6:	b480      	push	{r7}
 80020c8:	b083      	sub	sp, #12
 80020ca:	af00      	add	r7, sp, #0
 80020cc:	6078      	str	r0, [r7, #4]
  UNUSED(htim);

  /* NOTE : This function should not be modified, when the callback is needed,
            the HAL_TIM_PWM_MspInit could be implemented in the user file
   */
}
 80020ce:	bf00      	nop
 80020d0:	370c      	adds	r7, #12
 80020d2:	46bd      	mov	sp, r7
 80020d4:	f85d 7b04 	ldr.w	r7, [sp], #4
 80020d8:	4770      	bx	lr

080020da <HAL_TIM_IRQHandler>:
  * @brief  This function handles TIM interrupts requests.
  * @param  htim TIM  handle
  * @retval None
  */
void HAL_TIM_IRQHandler(TIM_HandleTypeDef *htim)
{
 80020da:	b580      	push	{r7, lr}
 80020dc:	b084      	sub	sp, #16
 80020de:	af00      	add	r7, sp, #0
 80020e0:	6078      	str	r0, [r7, #4]
  uint32_t itsource = htim->Instance->DIER;
 80020e2:	687b      	ldr	r3, [r7, #4]
 80020e4:	681b      	ldr	r3, [r3, #0]
 80020e6:	68db      	ldr	r3, [r3, #12]
 80020e8:	60fb      	str	r3, [r7, #12]
  uint32_t itflag   = htim->Instance->SR;
 80020ea:	687b      	ldr	r3, [r7, #4]
 80020ec:	681b      	ldr	r3, [r3, #0]
 80020ee:	691b      	ldr	r3, [r3, #16]
 80020f0:	60bb      	str	r3, [r7, #8]

  /* Capture compare 1 event */
  if ((itflag & (TIM_FLAG_CC1)) == (TIM_FLAG_CC1))
 80020f2:	68bb      	ldr	r3, [r7, #8]
 80020f4:	f003 0302 	and.w	r3, r3, #2
 80020f8:	2b00      	cmp	r3, #0
 80020fa:	d020      	beq.n	800213e <HAL_TIM_IRQHandler+0x64>
  {
    if ((itsource & (TIM_IT_CC1)) == (TIM_IT_CC1))
 80020fc:	68fb      	ldr	r3, [r7, #12]
 80020fe:	f003 0302 	and.w	r3, r3, #2
 8002102:	2b00      	cmp	r3, #0
 8002104:	d01b      	beq.n	800213e <HAL_TIM_IRQHandler+0x64>
    {
      {
        __HAL_TIM_CLEAR_FLAG(htim, TIM_FLAG_CC1);
 8002106:	687b      	ldr	r3, [r7, #4]
 8002108:	681b      	ldr	r3, [r3, #0]
 800210a:	f06f 0202 	mvn.w	r2, #2
 800210e:	611a      	str	r2, [r3, #16]
        htim->Channel = HAL_TIM_ACTIVE_CHANNEL_1;
 8002110:	687b      	ldr	r3, [r7, #4]
 8002112:	2201      	movs	r2, #1
 8002114:	771a      	strb	r2, [r3, #28]

        /* Input capture event */
        if ((htim->Instance->CCMR1 & TIM_CCMR1_CC1S) != 0x00U)
 8002116:	687b      	ldr	r3, [r7, #4]
 8002118:	681b      	ldr	r3, [r3, #0]
 800211a:	699b      	ldr	r3, [r3, #24]
 800211c:	f003 0303 	and.w	r3, r3, #3
 8002120:	2b00      	cmp	r3, #0
 8002122:	d003      	beq.n	800212c <HAL_TIM_IRQHandler+0x52>
        {
#if (USE_HAL_TIM_REGISTER_CALLBACKS == 1)
          htim->IC_CaptureCallback(htim);
#else
          HAL_TIM_IC_CaptureCallback(htim);
 8002124:	6878      	ldr	r0, [r7, #4]
 8002126:	f000 fa5c 	bl	80025e2 <HAL_TIM_IC_CaptureCallback>
 800212a:	e005      	b.n	8002138 <HAL_TIM_IRQHandler+0x5e>
        {
#if (USE_HAL_TIM_REGISTER_CALLBACKS == 1)
          htim->OC_DelayElapsedCallback(htim);
          htim->PWM_PulseFinishedCallback(htim);
#else
          HAL_TIM_OC_DelayElapsedCallback(htim);
 800212c:	6878      	ldr	r0, [r7, #4]
 800212e:	f000 fa4e 	bl	80025ce <HAL_TIM_OC_DelayElapsedCallback>
          HAL_TIM_PWM_PulseFinishedCallback(htim);
 8002132:	6878      	ldr	r0, [r7, #4]
 8002134:	f000 fa5f 	bl	80025f6 <HAL_TIM_PWM_PulseFinishedCallback>
#endif /* USE_HAL_TIM_REGISTER_CALLBACKS */
        }
        htim->Channel = HAL_TIM_ACTIVE_CHANNEL_CLEARED;
 8002138:	687b      	ldr	r3, [r7, #4]
 800213a:	2200      	movs	r2, #0
 800213c:	771a      	strb	r2, [r3, #28]
      }
    }
  }
  /* Capture compare 2 event */
  if ((itflag & (TIM_FLAG_CC2)) == (TIM_FLAG_CC2))
 800213e:	68bb      	ldr	r3, [r7, #8]
 8002140:	f003 0304 	and.w	r3, r3, #4
 8002144:	2b00      	cmp	r3, #0
 8002146:	d020      	beq.n	800218a <HAL_TIM_IRQHandler+0xb0>
  {
    if ((itsource & (TIM_IT_CC2)) == (TIM_IT_CC2))
 8002148:	68fb      	ldr	r3, [r7, #12]
 800214a:	f003 0304 	and.w	r3, r3, #4
 800214e:	2b00      	cmp	r3, #0
 8002150:	d01b      	beq.n	800218a <HAL_TIM_IRQHandler+0xb0>
    {
      __HAL_TIM_CLEAR_FLAG(htim, TIM_FLAG_CC2);
 8002152:	687b      	ldr	r3, [r7, #4]
 8002154:	681b      	ldr	r3, [r3, #0]
 8002156:	f06f 0204 	mvn.w	r2, #4
 800215a:	611a      	str	r2, [r3, #16]
      htim->Channel = HAL_TIM_ACTIVE_CHANNEL_2;
 800215c:	687b      	ldr	r3, [r7, #4]
 800215e:	2202      	movs	r2, #2
 8002160:	771a      	strb	r2, [r3, #28]
      /* Input capture event */
      if ((htim->Instance->CCMR1 & TIM_CCMR1_CC2S) != 0x00U)
 8002162:	687b      	ldr	r3, [r7, #4]
 8002164:	681b      	ldr	r3, [r3, #0]
 8002166:	699b      	ldr	r3, [r3, #24]
 8002168:	f403 7340 	and.w	r3, r3, #768	@ 0x300
 800216c:	2b00      	cmp	r3, #0
 800216e:	d003      	beq.n	8002178 <HAL_TIM_IRQHandler+0x9e>
      {
#if (USE_HAL_TIM_REGISTER_CALLBACKS == 1)
        htim->IC_CaptureCallback(htim);
#else
        HAL_TIM_IC_CaptureCallback(htim);
 8002170:	6878      	ldr	r0, [r7, #4]
 8002172:	f000 fa36 	bl	80025e2 <HAL_TIM_IC_CaptureCallback>
 8002176:	e005      	b.n	8002184 <HAL_TIM_IRQHandler+0xaa>
      {
#if (USE_HAL_TIM_REGISTER_CALLBACKS == 1)
        htim->OC_DelayElapsedCallback(htim);
        htim->PWM_PulseFinishedCallback(htim);
#else
        HAL_TIM_OC_DelayElapsedCallback(htim);
 8002178:	6878      	ldr	r0, [r7, #4]
 800217a:	f000 fa28 	bl	80025ce <HAL_TIM_OC_DelayElapsedCallback>
        HAL_TIM_PWM_PulseFinishedCallback(htim);
 800217e:	6878      	ldr	r0, [r7, #4]
 8002180:	f000 fa39 	bl	80025f6 <HAL_TIM_PWM_PulseFinishedCallback>
#endif /* USE_HAL_TIM_REGISTER_CALLBACKS */
      }
      htim->Channel = HAL_TIM_ACTIVE_CHANNEL_CLEARED;
 8002184:	687b      	ldr	r3, [r7, #4]
 8002186:	2200      	movs	r2, #0
 8002188:	771a      	strb	r2, [r3, #28]
    }
  }
  /* Capture compare 3 event */
  if ((itflag & (TIM_FLAG_CC3)) == (TIM_FLAG_CC3))
 800218a:	68bb      	ldr	r3, [r7, #8]
 800218c:	f003 0308 	and.w	r3, r3, #8
 8002190:	2b00      	cmp	r3, #0
 8002192:	d020      	beq.n	80021d6 <HAL_TIM_IRQHandler+0xfc>
  {
    if ((itsource & (TIM_IT_CC3)) == (TIM_IT_CC3))
 8002194:	68fb      	ldr	r3, [r7, #12]
 8002196:	f003 0308 	and.w	r3, r3, #8
 800219a:	2b00      	cmp	r3, #0
 800219c:	d01b      	beq.n	80021d6 <HAL_TIM_IRQHandler+0xfc>
    {
      __HAL_TIM_CLEAR_FLAG(htim, TIM_FLAG_CC3);
 800219e:	687b      	ldr	r3, [r7, #4]
 80021a0:	681b      	ldr	r3, [r3, #0]
 80021a2:	f06f 0208 	mvn.w	r2, #8
 80021a6:	611a      	str	r2, [r3, #16]
      htim->Channel = HAL_TIM_ACTIVE_CHANNEL_3;
 80021a8:	687b      	ldr	r3, [r7, #4]
 80021aa:	2204      	movs	r2, #4
 80021ac:	771a      	strb	r2, [r3, #28]
      /* Input capture event */
      if ((htim->Instance->CCMR2 & TIM_CCMR2_CC3S) != 0x00U)
 80021ae:	687b      	ldr	r3, [r7, #4]
 80021b0:	681b      	ldr	r3, [r3, #0]
 80021b2:	69db      	ldr	r3, [r3, #28]
 80021b4:	f003 0303 	and.w	r3, r3, #3
 80021b8:	2b00      	cmp	r3, #0
 80021ba:	d003      	beq.n	80021c4 <HAL_TIM_IRQHandler+0xea>
      {
#if (USE_HAL_TIM_REGISTER_CALLBACKS == 1)
        htim->IC_CaptureCallback(htim);
#else
        HAL_TIM_IC_CaptureCallback(htim);
 80021bc:	6878      	ldr	r0, [r7, #4]
 80021be:	f000 fa10 	bl	80025e2 <HAL_TIM_IC_CaptureCallback>
 80021c2:	e005      	b.n	80021d0 <HAL_TIM_IRQHandler+0xf6>
      {
#if (USE_HAL_TIM_REGISTER_CALLBACKS == 1)
        htim->OC_DelayElapsedCallback(htim);
        htim->PWM_PulseFinishedCallback(htim);
#else
        HAL_TIM_OC_DelayElapsedCallback(htim);
 80021c4:	6878      	ldr	r0, [r7, #4]
 80021c6:	f000 fa02 	bl	80025ce <HAL_TIM_OC_DelayElapsedCallback>
        HAL_TIM_PWM_PulseFinishedCallback(htim);
 80021ca:	6878      	ldr	r0, [r7, #4]
 80021cc:	f000 fa13 	bl	80025f6 <HAL_TIM_PWM_PulseFinishedCallback>
#endif /* USE_HAL_TIM_REGISTER_CALLBACKS */
      }
      htim->Channel = HAL_TIM_ACTIVE_CHANNEL_CLEARED;
 80021d0:	687b      	ldr	r3, [r7, #4]
 80021d2:	2200      	movs	r2, #0
 80021d4:	771a      	strb	r2, [r3, #28]
    }
  }
  /* Capture compare 4 event */
  if ((itflag & (TIM_FLAG_CC4)) == (TIM_FLAG_CC4))
 80021d6:	68bb      	ldr	r3, [r7, #8]
 80021d8:	f003 0310 	and.w	r3, r3, #16
 80021dc:	2b00      	cmp	r3, #0
 80021de:	d020      	beq.n	8002222 <HAL_TIM_IRQHandler+0x148>
  {
    if ((itsource & (TIM_IT_CC4)) == (TIM_IT_CC4))
 80021e0:	68fb      	ldr	r3, [r7, #12]
 80021e2:	f003 0310 	and.w	r3, r3, #16
 80021e6:	2b00      	cmp	r3, #0
 80021e8:	d01b      	beq.n	8002222 <HAL_TIM_IRQHandler+0x148>
    {
      __HAL_TIM_CLEAR_FLAG(htim, TIM_FLAG_CC4);
 80021ea:	687b      	ldr	r3, [r7, #4]
 80021ec:	681b      	ldr	r3, [r3, #0]
 80021ee:	f06f 0210 	mvn.w	r2, #16
 80021f2:	611a      	str	r2, [r3, #16]
      htim->Channel = HAL_TIM_ACTIVE_CHANNEL_4;
 80021f4:	687b      	ldr	r3, [r7, #4]
 80021f6:	2208      	movs	r2, #8
 80021f8:	771a      	strb	r2, [r3, #28]
      /* Input capture event */
      if ((htim->Instance->CCMR2 & TIM_CCMR2_CC4S) != 0x00U)
 80021fa:	687b      	ldr	r3, [r7, #4]
 80021fc:	681b      	ldr	r3, [r3, #0]
 80021fe:	69db      	ldr	r3, [r3, #28]
 8002200:	f403 7340 	and.w	r3, r3, #768	@ 0x300
 8002204:	2b00      	cmp	r3, #0
 8002206:	d003      	beq.n	8002210 <HAL_TIM_IRQHandler+0x136>
      {
#if (USE_HAL_TIM_REGISTER_CALLBACKS == 1)
        htim->IC_CaptureCallback(htim);
#else
        HAL_TIM_IC_CaptureCallback(htim);
 8002208:	6878      	ldr	r0, [r7, #4]
 800220a:	f000 f9ea 	bl	80025e2 <HAL_TIM_IC_CaptureCallback>
 800220e:	e005      	b.n	800221c <HAL_TIM_IRQHandler+0x142>
      {
#if (USE_HAL_TIM_REGISTER_CALLBACKS == 1)
        htim->OC_DelayElapsedCallback(htim);
        htim->PWM_PulseFinishedCallback(htim);
#else
        HAL_TIM_OC_DelayElapsedCallback(htim);
 8002210:	6878      	ldr	r0, [r7, #4]
 8002212:	f000 f9dc 	bl	80025ce <HAL_TIM_OC_DelayElapsedCallback>
        HAL_TIM_PWM_PulseFinishedCallback(htim);
 8002216:	6878      	ldr	r0, [r7, #4]
 8002218:	f000 f9ed 	bl	80025f6 <HAL_TIM_PWM_PulseFinishedCallback>
#endif /* USE_HAL_TIM_REGISTER_CALLBACKS */
      }
      htim->Channel = HAL_TIM_ACTIVE_CHANNEL_CLEARED;
 800221c:	687b      	ldr	r3, [r7, #4]
 800221e:	2200      	movs	r2, #0
 8002220:	771a      	strb	r2, [r3, #28]
    }
  }
  /* TIM Update event */
  if ((itflag & (TIM_FLAG_UPDATE)) == (TIM_FLAG_UPDATE))
 8002222:	68bb      	ldr	r3, [r7, #8]
 8002224:	f003 0301 	and.w	r3, r3, #1
 8002228:	2b00      	cmp	r3, #0
 800222a:	d00c      	beq.n	8002246 <HAL_TIM_IRQHandler+0x16c>
  {
    if ((itsource & (TIM_IT_UPDATE)) == (TIM_IT_UPDATE))
 800222c:	68fb      	ldr	r3, [r7, #12]
 800222e:	f003 0301 	and.w	r3, r3, #1
 8002232:	2b00      	cmp	r3, #0
 8002234:	d007      	beq.n	8002246 <HAL_TIM_IRQHandler+0x16c>
    {
      __HAL_TIM_CLEAR_FLAG(htim, TIM_FLAG_UPDATE);
 8002236:	687b      	ldr	r3, [r7, #4]
 8002238:	681b      	ldr	r3, [r3, #0]
 800223a:	f06f 0201 	mvn.w	r2, #1
 800223e:	611a      	str	r2, [r3, #16]
#if (USE_HAL_TIM_REGISTER_CALLBACKS == 1)
      htim->PeriodElapsedCallback(htim);
#else
      HAL_TIM_PeriodElapsedCallback(htim);
 8002240:	6878      	ldr	r0, [r7, #4]
 8002242:	f7fe fb53 	bl	80008ec <HAL_TIM_PeriodElapsedCallback>
#endif /* USE_HAL_TIM_REGISTER_CALLBACKS */
    }
  }
  /* TIM Break input event */
  if ((itflag & (TIM_FLAG_BREAK)) == (TIM_FLAG_BREAK))
 8002246:	68bb      	ldr	r3, [r7, #8]
 8002248:	f003 0380 	and.w	r3, r3, #128	@ 0x80
 800224c:	2b00      	cmp	r3, #0
 800224e:	d00c      	beq.n	800226a <HAL_TIM_IRQHandler+0x190>
  {
    if ((itsource & (TIM_IT_BREAK)) == (TIM_IT_BREAK))
 8002250:	68fb      	ldr	r3, [r7, #12]
 8002252:	f003 0380 	and.w	r3, r3, #128	@ 0x80
 8002256:	2b00      	cmp	r3, #0
 8002258:	d007      	beq.n	800226a <HAL_TIM_IRQHandler+0x190>
    {
      __HAL_TIM_CLEAR_FLAG(htim, TIM_FLAG_BREAK);
 800225a:	687b      	ldr	r3, [r7, #4]
 800225c:	681b      	ldr	r3, [r3, #0]
 800225e:	f06f 0280 	mvn.w	r2, #128	@ 0x80
 8002262:	611a      	str	r2, [r3, #16]
#if (USE_HAL_TIM_REGISTER_CALLBACKS == 1)
      htim->BreakCallback(htim);
#else
      HAL_TIMEx_BreakCallback(htim);
 8002264:	6878      	ldr	r0, [r7, #4]
 8002266:	f000 fd05 	bl	8002c74 <HAL_TIMEx_BreakCallback>
#endif /* USE_HAL_TIM_REGISTER_CALLBACKS */
    }
  }
  /* TIM Trigger detection event */
  if ((itflag & (TIM_FLAG_TRIGGER)) == (TIM_FLAG_TRIGGER))
 800226a:	68bb      	ldr	r3, [r7, #8]
 800226c:	f003 0340 	and.w	r3, r3, #64	@ 0x40
 8002270:	2b00      	cmp	r3, #0
 8002272:	d00c      	beq.n	800228e <HAL_TIM_IRQHandler+0x1b4>
  {
    if ((itsource & (TIM_IT_TRIGGER)) == (TIM_IT_TRIGGER))
 8002274:	68fb      	ldr	r3, [r7, #12]
 8002276:	f003 0340 	and.w	r3, r3, #64	@ 0x40
 800227a:	2b00      	cmp	r3, #0
 800227c:	d007      	beq.n	800228e <HAL_TIM_IRQHandler+0x1b4>
    {
      __HAL_TIM_CLEAR_FLAG(htim, TIM_FLAG_TRIGGER);
 800227e:	687b      	ldr	r3, [r7, #4]
 8002280:	681b      	ldr	r3, [r3, #0]
 8002282:	f06f 0240 	mvn.w	r2, #64	@ 0x40
 8002286:	611a      	str	r2, [r3, #16]
#if (USE_HAL_TIM_REGISTER_CALLBACKS == 1)
      htim->TriggerCallback(htim);
#else
      HAL_TIM_TriggerCallback(htim);
 8002288:	6878      	ldr	r0, [r7, #4]
 800228a:	f000 f9be 	bl	800260a <HAL_TIM_TriggerCallback>
#endif /* USE_HAL_TIM_REGISTER_CALLBACKS */
    }
  }
  /* TIM commutation event */
  if ((itflag & (TIM_FLAG_COM)) == (TIM_FLAG_COM))
 800228e:	68bb      	ldr	r3, [r7, #8]
 8002290:	f003 0320 	and.w	r3, r3, #32
 8002294:	2b00      	cmp	r3, #0
 8002296:	d00c      	beq.n	80022b2 <HAL_TIM_IRQHandler+0x1d8>
  {
    if ((itsource & (TIM_IT_COM)) == (TIM_IT_COM))
 8002298:	68fb      	ldr	r3, [r7, #12]
 800229a:	f003 0320 	and.w	r3, r3, #32
 800229e:	2b00      	cmp	r3, #0
 80022a0:	d007      	beq.n	80022b2 <HAL_TIM_IRQHandler+0x1d8>
    {
      __HAL_TIM_CLEAR_FLAG(htim, TIM_FLAG_COM);
 80022a2:	687b      	ldr	r3, [r7, #4]
 80022a4:	681b      	ldr	r3, [r3, #0]
 80022a6:	f06f 0220 	mvn.w	r2, #32
 80022aa:	611a      	str	r2, [r3, #16]
#if (USE_HAL_TIM_REGISTER_CALLBACKS == 1)
      htim->CommutationCallback(htim);
#else
      HAL_TIMEx_CommutCallback(htim);
 80022ac:	6878      	ldr	r0, [r7, #4]
 80022ae:	f000 fcd7 	bl	8002c60 <HAL_TIMEx_CommutCallback>
#endif /* USE_HAL_TIM_REGISTER_CALLBACKS */
    }
  }
}
 80022b2:	bf00      	nop
 80022b4:	3710      	adds	r7, #16
 80022b6:	46bd      	mov	sp, r7
 80022b8:	bd80      	pop	{r7, pc}
	...

080022bc <HAL_TIM_PWM_ConfigChannel>:
  * @retval HAL status
  */
HAL_StatusTypeDef HAL_TIM_PWM_ConfigChannel(TIM_HandleTypeDef *htim,
                                            const TIM_OC_InitTypeDef *sConfig,
                                            uint32_t Channel)
{
 80022bc:	b580      	push	{r7, lr}
 80022be:	b086      	sub	sp, #24
 80022c0:	af00      	add	r7, sp, #0
 80022c2:	60f8      	str	r0, [r7, #12]
 80022c4:	60b9      	str	r1, [r7, #8]
 80022c6:	607a      	str	r2, [r7, #4]
  HAL_StatusTypeDef status = HAL_OK;
 80022c8:	2300      	movs	r3, #0
 80022ca:	75fb      	strb	r3, [r7, #23]
  assert_param(IS_TIM_PWM_MODE(sConfig->OCMode));
  assert_param(IS_TIM_OC_POLARITY(sConfig->OCPolarity));
  assert_param(IS_TIM_FAST_STATE(sConfig->OCFastMode));

  /* Process Locked */
  __HAL_LOCK(htim);
 80022cc:	68fb      	ldr	r3, [r7, #12]
 80022ce:	f893 303c 	ldrb.w	r3, [r3, #60]	@ 0x3c
 80022d2:	2b01      	cmp	r3, #1
 80022d4:	d101      	bne.n	80022da <HAL_TIM_PWM_ConfigChannel+0x1e>
 80022d6:	2302      	movs	r3, #2
 80022d8:	e0ae      	b.n	8002438 <HAL_TIM_PWM_ConfigChannel+0x17c>
 80022da:	68fb      	ldr	r3, [r7, #12]
 80022dc:	2201      	movs	r2, #1
 80022de:	f883 203c 	strb.w	r2, [r3, #60]	@ 0x3c

  switch (Channel)
 80022e2:	687b      	ldr	r3, [r7, #4]
 80022e4:	2b0c      	cmp	r3, #12
 80022e6:	f200 809f 	bhi.w	8002428 <HAL_TIM_PWM_ConfigChannel+0x16c>
 80022ea:	a201      	add	r2, pc, #4	@ (adr r2, 80022f0 <HAL_TIM_PWM_ConfigChannel+0x34>)
 80022ec:	f852 f023 	ldr.w	pc, [r2, r3, lsl #2]
 80022f0:	08002325 	.word	0x08002325
 80022f4:	08002429 	.word	0x08002429
 80022f8:	08002429 	.word	0x08002429
 80022fc:	08002429 	.word	0x08002429
 8002300:	08002365 	.word	0x08002365
 8002304:	08002429 	.word	0x08002429
 8002308:	08002429 	.word	0x08002429
 800230c:	08002429 	.word	0x08002429
 8002310:	080023a7 	.word	0x080023a7
 8002314:	08002429 	.word	0x08002429
 8002318:	08002429 	.word	0x08002429
 800231c:	08002429 	.word	0x08002429
 8002320:	080023e7 	.word	0x080023e7
    {
      /* Check the parameters */
      assert_param(IS_TIM_CC1_INSTANCE(htim->Instance));

      /* Configure the Channel 1 in PWM mode */
      TIM_OC1_SetConfig(htim->Instance, sConfig);
 8002324:	68fb      	ldr	r3, [r7, #12]
 8002326:	681b      	ldr	r3, [r3, #0]
 8002328:	68b9      	ldr	r1, [r7, #8]
 800232a:	4618      	mov	r0, r3
 800232c:	f000 fa04 	bl	8002738 <TIM_OC1_SetConfig>

      /* Set the Preload enable bit for channel1 */
      htim->Instance->CCMR1 |= TIM_CCMR1_OC1PE;
 8002330:	68fb      	ldr	r3, [r7, #12]
 8002332:	681b      	ldr	r3, [r3, #0]
 8002334:	699a      	ldr	r2, [r3, #24]
 8002336:	68fb      	ldr	r3, [r7, #12]
 8002338:	681b      	ldr	r3, [r3, #0]
 800233a:	f042 0208 	orr.w	r2, r2, #8
 800233e:	619a      	str	r2, [r3, #24]

      /* Configure the Output Fast mode */
      htim->Instance->CCMR1 &= ~TIM_CCMR1_OC1FE;
 8002340:	68fb      	ldr	r3, [r7, #12]
 8002342:	681b      	ldr	r3, [r3, #0]
 8002344:	699a      	ldr	r2, [r3, #24]
 8002346:	68fb      	ldr	r3, [r7, #12]
 8002348:	681b      	ldr	r3, [r3, #0]
 800234a:	f022 0204 	bic.w	r2, r2, #4
 800234e:	619a      	str	r2, [r3, #24]
      htim->Instance->CCMR1 |= sConfig->OCFastMode;
 8002350:	68fb      	ldr	r3, [r7, #12]
 8002352:	681b      	ldr	r3, [r3, #0]
 8002354:	6999      	ldr	r1, [r3, #24]
 8002356:	68bb      	ldr	r3, [r7, #8]
 8002358:	691a      	ldr	r2, [r3, #16]
 800235a:	68fb      	ldr	r3, [r7, #12]
 800235c:	681b      	ldr	r3, [r3, #0]
 800235e:	430a      	orrs	r2, r1
 8002360:	619a      	str	r2, [r3, #24]
      break;
 8002362:	e064      	b.n	800242e <HAL_TIM_PWM_ConfigChannel+0x172>
    {
      /* Check the parameters */
      assert_param(IS_TIM_CC2_INSTANCE(htim->Instance));

      /* Configure the Channel 2 in PWM mode */
      TIM_OC2_SetConfig(htim->Instance, sConfig);
 8002364:	68fb      	ldr	r3, [r7, #12]
 8002366:	681b      	ldr	r3, [r3, #0]
 8002368:	68b9      	ldr	r1, [r7, #8]
 800236a:	4618      	mov	r0, r3
 800236c:	f000 fa4a 	bl	8002804 <TIM_OC2_SetConfig>

      /* Set the Preload enable bit for channel2 */
      htim->Instance->CCMR1 |= TIM_CCMR1_OC2PE;
 8002370:	68fb      	ldr	r3, [r7, #12]
 8002372:	681b      	ldr	r3, [r3, #0]
 8002374:	699a      	ldr	r2, [r3, #24]
 8002376:	68fb      	ldr	r3, [r7, #12]
 8002378:	681b      	ldr	r3, [r3, #0]
 800237a:	f442 6200 	orr.w	r2, r2, #2048	@ 0x800
 800237e:	619a      	str	r2, [r3, #24]

      /* Configure the Output Fast mode */
      htim->Instance->CCMR1 &= ~TIM_CCMR1_OC2FE;
 8002380:	68fb      	ldr	r3, [r7, #12]
 8002382:	681b      	ldr	r3, [r3, #0]
 8002384:	699a      	ldr	r2, [r3, #24]
 8002386:	68fb      	ldr	r3, [r7, #12]
 8002388:	681b      	ldr	r3, [r3, #0]
 800238a:	f422 6280 	bic.w	r2, r2, #1024	@ 0x400
 800238e:	619a      	str	r2, [r3, #24]
      htim->Instance->CCMR1 |= sConfig->OCFastMode << 8U;
 8002390:	68fb      	ldr	r3, [r7, #12]
 8002392:	681b      	ldr	r3, [r3, #0]
 8002394:	6999      	ldr	r1, [r3, #24]
 8002396:	68bb      	ldr	r3, [r7, #8]
 8002398:	691b      	ldr	r3, [r3, #16]
 800239a:	021a      	lsls	r2, r3, #8
 800239c:	68fb      	ldr	r3, [r7, #12]
 800239e:	681b      	ldr	r3, [r3, #0]
 80023a0:	430a      	orrs	r2, r1
 80023a2:	619a      	str	r2, [r3, #24]
      break;
 80023a4:	e043      	b.n	800242e <HAL_TIM_PWM_ConfigChannel+0x172>
    {
      /* Check the parameters */
      assert_param(IS_TIM_CC3_INSTANCE(htim->Instance));

      /* Configure the Channel 3 in PWM mode */
      TIM_OC3_SetConfig(htim->Instance, sConfig);
 80023a6:	68fb      	ldr	r3, [r7, #12]
 80023a8:	681b      	ldr	r3, [r3, #0]
 80023aa:	68b9      	ldr	r1, [r7, #8]
 80023ac:	4618      	mov	r0, r3
 80023ae:	f000 fa95 	bl	80028dc <TIM_OC3_SetConfig>

      /* Set the Preload enable bit for channel3 */
      htim->Instance->CCMR2 |= TIM_CCMR2_OC3PE;
 80023b2:	68fb      	ldr	r3, [r7, #12]
 80023b4:	681b      	ldr	r3, [r3, #0]
 80023b6:	69da      	ldr	r2, [r3, #28]
 80023b8:	68fb      	ldr	r3, [r7, #12]
 80023ba:	681b      	ldr	r3, [r3, #0]
 80023bc:	f042 0208 	orr.w	r2, r2, #8
 80023c0:	61da      	str	r2, [r3, #28]

      /* Configure the Output Fast mode */
      htim->Instance->CCMR2 &= ~TIM_CCMR2_OC3FE;
 80023c2:	68fb      	ldr	r3, [r7, #12]
 80023c4:	681b      	ldr	r3, [r3, #0]
 80023c6:	69da      	ldr	r2, [r3, #28]
 80023c8:	68fb      	ldr	r3, [r7, #12]
 80023ca:	681b      	ldr	r3, [r3, #0]
 80023cc:	f022 0204 	bic.w	r2, r2, #4
 80023d0:	61da      	str	r2, [r3, #28]
      htim->Instance->CCMR2 |= sConfig->OCFastMode;
 80023d2:	68fb      	ldr	r3, [r7, #12]
 80023d4:	681b      	ldr	r3, [r3, #0]
 80023d6:	69d9      	ldr	r1, [r3, #28]
 80023d8:	68bb      	ldr	r3, [r7, #8]
 80023da:	691a      	ldr	r2, [r3, #16]
 80023dc:	68fb      	ldr	r3, [r7, #12]
 80023de:	681b      	ldr	r3, [r3, #0]
 80023e0:	430a      	orrs	r2, r1
 80023e2:	61da      	str	r2, [r3, #28]
      break;
 80023e4:	e023      	b.n	800242e <HAL_TIM_PWM_ConfigChannel+0x172>
    {
      /* Check the parameters */
      assert_param(IS_TIM_CC4_INSTANCE(htim->Instance));

      /* Configure the Channel 4 in PWM mode */
      TIM_OC4_SetConfig(htim->Instance, sConfig);
 80023e6:	68fb      	ldr	r3, [r7, #12]
 80023e8:	681b      	ldr	r3, [r3, #0]
 80023ea:	68b9      	ldr	r1, [r7, #8]
 80023ec:	4618      	mov	r0, r3
 80023ee:	f000 fadf 	bl	80029b0 <TIM_OC4_SetConfig>

      /* Set the Preload enable bit for channel4 */
      htim->Instance->CCMR2 |= TIM_CCMR2_OC4PE;
 80023f2:	68fb      	ldr	r3, [r7, #12]
 80023f4:	681b      	ldr	r3, [r3, #0]
 80023f6:	69da      	ldr	r2, [r3, #28]
 80023f8:	68fb      	ldr	r3, [r7, #12]
 80023fa:	681b      	ldr	r3, [r3, #0]
 80023fc:	f442 6200 	orr.w	r2, r2, #2048	@ 0x800
 8002400:	61da      	str	r2, [r3, #28]

      /* Configure the Output Fast mode */
      htim->Instance->CCMR2 &= ~TIM_CCMR2_OC4FE;
 8002402:	68fb      	ldr	r3, [r7, #12]
 8002404:	681b      	ldr	r3, [r3, #0]
 8002406:	69da      	ldr	r2, [r3, #28]
 8002408:	68fb      	ldr	r3, [r7, #12]
 800240a:	681b      	ldr	r3, [r3, #0]
 800240c:	f422 6280 	bic.w	r2, r2, #1024	@ 0x400
 8002410:	61da      	str	r2, [r3, #28]
      htim->Instance->CCMR2 |= sConfig->OCFastMode << 8U;
 8002412:	68fb      	ldr	r3, [r7, #12]
 8002414:	681b      	ldr	r3, [r3, #0]
 8002416:	69d9      	ldr	r1, [r3, #28]
 8002418:	68bb      	ldr	r3, [r7, #8]
 800241a:	691b      	ldr	r3, [r3, #16]
 800241c:	021a      	lsls	r2, r3, #8
 800241e:	68fb      	ldr	r3, [r7, #12]
 8002420:	681b      	ldr	r3, [r3, #0]
 8002422:	430a      	orrs	r2, r1
 8002424:	61da      	str	r2, [r3, #28]
      break;
 8002426:	e002      	b.n	800242e <HAL_TIM_PWM_ConfigChannel+0x172>
    }

    default:
      status = HAL_ERROR;
 8002428:	2301      	movs	r3, #1
 800242a:	75fb      	strb	r3, [r7, #23]
      break;
 800242c:	bf00      	nop
  }

  __HAL_UNLOCK(htim);
 800242e:	68fb      	ldr	r3, [r7, #12]
 8002430:	2200      	movs	r2, #0
 8002432:	f883 203c 	strb.w	r2, [r3, #60]	@ 0x3c

  return status;
 8002436:	7dfb      	ldrb	r3, [r7, #23]
}
 8002438:	4618      	mov	r0, r3
 800243a:	3718      	adds	r7, #24
 800243c:	46bd      	mov	sp, r7
 800243e:	bd80      	pop	{r7, pc}

08002440 <HAL_TIM_ConfigClockSource>:
  * @param  sClockSourceConfig pointer to a TIM_ClockConfigTypeDef structure that
  *         contains the clock source information for the TIM peripheral.
  * @retval HAL status
  */
HAL_StatusTypeDef HAL_TIM_ConfigClockSource(TIM_HandleTypeDef *htim, const TIM_ClockConfigTypeDef *sClockSourceConfig)
{
 8002440:	b580      	push	{r7, lr}
 8002442:	b084      	sub	sp, #16
 8002444:	af00      	add	r7, sp, #0
 8002446:	6078      	str	r0, [r7, #4]
 8002448:	6039      	str	r1, [r7, #0]
  HAL_StatusTypeDef status = HAL_OK;
 800244a:	2300      	movs	r3, #0
 800244c:	73fb      	strb	r3, [r7, #15]
  uint32_t tmpsmcr;

  /* Process Locked */
  __HAL_LOCK(htim);
 800244e:	687b      	ldr	r3, [r7, #4]
 8002450:	f893 303c 	ldrb.w	r3, [r3, #60]	@ 0x3c
 8002454:	2b01      	cmp	r3, #1
 8002456:	d101      	bne.n	800245c <HAL_TIM_ConfigClockSource+0x1c>
 8002458:	2302      	movs	r3, #2
 800245a:	e0b4      	b.n	80025c6 <HAL_TIM_ConfigClockSource+0x186>
 800245c:	687b      	ldr	r3, [r7, #4]
 800245e:	2201      	movs	r2, #1
 8002460:	f883 203c 	strb.w	r2, [r3, #60]	@ 0x3c

  htim->State = HAL_TIM_STATE_BUSY;
 8002464:	687b      	ldr	r3, [r7, #4]
 8002466:	2202      	movs	r2, #2
 8002468:	f883 203d 	strb.w	r2, [r3, #61]	@ 0x3d

  /* Check the parameters */
  assert_param(IS_TIM_CLOCKSOURCE(sClockSourceConfig->ClockSource));

  /* Reset the SMS, TS, ECE, ETPS and ETRF bits */
  tmpsmcr = htim->Instance->SMCR;
 800246c:	687b      	ldr	r3, [r7, #4]
 800246e:	681b      	ldr	r3, [r3, #0]
 8002470:	689b      	ldr	r3, [r3, #8]
 8002472:	60bb      	str	r3, [r7, #8]
  tmpsmcr &= ~(TIM_SMCR_SMS | TIM_SMCR_TS);
 8002474:	68bb      	ldr	r3, [r7, #8]
 8002476:	f023 0377 	bic.w	r3, r3, #119	@ 0x77
 800247a:	60bb      	str	r3, [r7, #8]
  tmpsmcr &= ~(TIM_SMCR_ETF | TIM_SMCR_ETPS | TIM_SMCR_ECE | TIM_SMCR_ETP);
 800247c:	68bb      	ldr	r3, [r7, #8]
 800247e:	f423 437f 	bic.w	r3, r3, #65280	@ 0xff00
 8002482:	60bb      	str	r3, [r7, #8]
  htim->Instance->SMCR = tmpsmcr;
 8002484:	687b      	ldr	r3, [r7, #4]
 8002486:	681b      	ldr	r3, [r3, #0]
 8002488:	68ba      	ldr	r2, [r7, #8]
 800248a:	609a      	str	r2, [r3, #8]

  switch (sClockSourceConfig->ClockSource)
 800248c:	683b      	ldr	r3, [r7, #0]
 800248e:	681b      	ldr	r3, [r3, #0]
 8002490:	f5b3 5f00 	cmp.w	r3, #8192	@ 0x2000
 8002494:	d03e      	beq.n	8002514 <HAL_TIM_ConfigClockSource+0xd4>
 8002496:	f5b3 5f00 	cmp.w	r3, #8192	@ 0x2000
 800249a:	f200 8087 	bhi.w	80025ac <HAL_TIM_ConfigClockSource+0x16c>
 800249e:	f5b3 5f80 	cmp.w	r3, #4096	@ 0x1000
 80024a2:	f000 8086 	beq.w	80025b2 <HAL_TIM_ConfigClockSource+0x172>
 80024a6:	f5b3 5f80 	cmp.w	r3, #4096	@ 0x1000
 80024aa:	d87f      	bhi.n	80025ac <HAL_TIM_ConfigClockSource+0x16c>
 80024ac:	2b70      	cmp	r3, #112	@ 0x70
 80024ae:	d01a      	beq.n	80024e6 <HAL_TIM_ConfigClockSource+0xa6>
 80024b0:	2b70      	cmp	r3, #112	@ 0x70
 80024b2:	d87b      	bhi.n	80025ac <HAL_TIM_ConfigClockSource+0x16c>
 80024b4:	2b60      	cmp	r3, #96	@ 0x60
 80024b6:	d050      	beq.n	800255a <HAL_TIM_ConfigClockSource+0x11a>
 80024b8:	2b60      	cmp	r3, #96	@ 0x60
 80024ba:	d877      	bhi.n	80025ac <HAL_TIM_ConfigClockSource+0x16c>
 80024bc:	2b50      	cmp	r3, #80	@ 0x50
 80024be:	d03c      	beq.n	800253a <HAL_TIM_ConfigClockSource+0xfa>
 80024c0:	2b50      	cmp	r3, #80	@ 0x50
 80024c2:	d873      	bhi.n	80025ac <HAL_TIM_ConfigClockSource+0x16c>
 80024c4:	2b40      	cmp	r3, #64	@ 0x40
 80024c6:	d058      	beq.n	800257a <HAL_TIM_ConfigClockSource+0x13a>
 80024c8:	2b40      	cmp	r3, #64	@ 0x40
 80024ca:	d86f      	bhi.n	80025ac <HAL_TIM_ConfigClockSource+0x16c>
 80024cc:	2b30      	cmp	r3, #48	@ 0x30
 80024ce:	d064      	beq.n	800259a <HAL_TIM_ConfigClockSource+0x15a>
 80024d0:	2b30      	cmp	r3, #48	@ 0x30
 80024d2:	d86b      	bhi.n	80025ac <HAL_TIM_ConfigClockSource+0x16c>
 80024d4:	2b20      	cmp	r3, #32
 80024d6:	d060      	beq.n	800259a <HAL_TIM_ConfigClockSource+0x15a>
 80024d8:	2b20      	cmp	r3, #32
 80024da:	d867      	bhi.n	80025ac <HAL_TIM_ConfigClockSource+0x16c>
 80024dc:	2b00      	cmp	r3, #0
 80024de:	d05c      	beq.n	800259a <HAL_TIM_ConfigClockSource+0x15a>
 80024e0:	2b10      	cmp	r3, #16
 80024e2:	d05a      	beq.n	800259a <HAL_TIM_ConfigClockSource+0x15a>
 80024e4:	e062      	b.n	80025ac <HAL_TIM_ConfigClockSource+0x16c>
      assert_param(IS_TIM_CLOCKPRESCALER(sClockSourceConfig->ClockPrescaler));
      assert_param(IS_TIM_CLOCKPOLARITY(sClockSourceConfig->ClockPolarity));
      assert_param(IS_TIM_CLOCKFILTER(sClockSourceConfig->ClockFilter));

      /* Configure the ETR Clock source */
      TIM_ETR_SetConfig(htim->Instance,
 80024e6:	687b      	ldr	r3, [r7, #4]
 80024e8:	6818      	ldr	r0, [r3, #0]
                        sClockSourceConfig->ClockPrescaler,
 80024ea:	683b      	ldr	r3, [r7, #0]
 80024ec:	6899      	ldr	r1, [r3, #8]
                        sClockSourceConfig->ClockPolarity,
 80024ee:	683b      	ldr	r3, [r7, #0]
 80024f0:	685a      	ldr	r2, [r3, #4]
                        sClockSourceConfig->ClockFilter);
 80024f2:	683b      	ldr	r3, [r7, #0]
 80024f4:	68db      	ldr	r3, [r3, #12]
      TIM_ETR_SetConfig(htim->Instance,
 80024f6:	f000 fb25 	bl	8002b44 <TIM_ETR_SetConfig>

      /* Select the External clock mode1 and the ETRF trigger */
      tmpsmcr = htim->Instance->SMCR;
 80024fa:	687b      	ldr	r3, [r7, #4]
 80024fc:	681b      	ldr	r3, [r3, #0]
 80024fe:	689b      	ldr	r3, [r3, #8]
 8002500:	60bb      	str	r3, [r7, #8]
      tmpsmcr |= (TIM_SLAVEMODE_EXTERNAL1 | TIM_CLOCKSOURCE_ETRMODE1);
 8002502:	68bb      	ldr	r3, [r7, #8]
 8002504:	f043 0377 	orr.w	r3, r3, #119	@ 0x77
 8002508:	60bb      	str	r3, [r7, #8]
      /* Write to TIMx SMCR */
      htim->Instance->SMCR = tmpsmcr;
 800250a:	687b      	ldr	r3, [r7, #4]
 800250c:	681b      	ldr	r3, [r3, #0]
 800250e:	68ba      	ldr	r2, [r7, #8]
 8002510:	609a      	str	r2, [r3, #8]
      break;
 8002512:	e04f      	b.n	80025b4 <HAL_TIM_ConfigClockSource+0x174>
      assert_param(IS_TIM_CLOCKPRESCALER(sClockSourceConfig->ClockPrescaler));
      assert_param(IS_TIM_CLOCKPOLARITY(sClockSourceConfig->ClockPolarity));
      assert_param(IS_TIM_CLOCKFILTER(sClockSourceConfig->ClockFilter));

      /* Configure the ETR Clock source */
      TIM_ETR_SetConfig(htim->Instance,
 8002514:	687b      	ldr	r3, [r7, #4]
 8002516:	6818      	ldr	r0, [r3, #0]
                        sClockSourceConfig->ClockPrescaler,
 8002518:	683b      	ldr	r3, [r7, #0]
 800251a:	6899      	ldr	r1, [r3, #8]
                        sClockSourceConfig->ClockPolarity,
 800251c:	683b      	ldr	r3, [r7, #0]
 800251e:	685a      	ldr	r2, [r3, #4]
                        sClockSourceConfig->ClockFilter);
 8002520:	683b      	ldr	r3, [r7, #0]
 8002522:	68db      	ldr	r3, [r3, #12]
      TIM_ETR_SetConfig(htim->Instance,
 8002524:	f000 fb0e 	bl	8002b44 <TIM_ETR_SetConfig>
      /* Enable the External clock mode2 */
      htim->Instance->SMCR |= TIM_SMCR_ECE;
 8002528:	687b      	ldr	r3, [r7, #4]
 800252a:	681b      	ldr	r3, [r3, #0]
 800252c:	689a      	ldr	r2, [r3, #8]
 800252e:	687b      	ldr	r3, [r7, #4]
 8002530:	681b      	ldr	r3, [r3, #0]
 8002532:	f442 4280 	orr.w	r2, r2, #16384	@ 0x4000
 8002536:	609a      	str	r2, [r3, #8]
      break;
 8002538:	e03c      	b.n	80025b4 <HAL_TIM_ConfigClockSource+0x174>

      /* Check TI1 input conditioning related parameters */
      assert_param(IS_TIM_CLOCKPOLARITY(sClockSourceConfig->ClockPolarity));
      assert_param(IS_TIM_CLOCKFILTER(sClockSourceConfig->ClockFilter));

      TIM_TI1_ConfigInputStage(htim->Instance,
 800253a:	687b      	ldr	r3, [r7, #4]
 800253c:	6818      	ldr	r0, [r3, #0]
                               sClockSourceConfig->ClockPolarity,
 800253e:	683b      	ldr	r3, [r7, #0]
 8002540:	6859      	ldr	r1, [r3, #4]
                               sClockSourceConfig->ClockFilter);
 8002542:	683b      	ldr	r3, [r7, #0]
 8002544:	68db      	ldr	r3, [r3, #12]
      TIM_TI1_ConfigInputStage(htim->Instance,
 8002546:	461a      	mov	r2, r3
 8002548:	f000 fa82 	bl	8002a50 <TIM_TI1_ConfigInputStage>
      TIM_ITRx_SetConfig(htim->Instance, TIM_CLOCKSOURCE_TI1);
 800254c:	687b      	ldr	r3, [r7, #4]
 800254e:	681b      	ldr	r3, [r3, #0]
 8002550:	2150      	movs	r1, #80	@ 0x50
 8002552:	4618      	mov	r0, r3
 8002554:	f000 fadb 	bl	8002b0e <TIM_ITRx_SetConfig>
      break;
 8002558:	e02c      	b.n	80025b4 <HAL_TIM_ConfigClockSource+0x174>

      /* Check TI2 input conditioning related parameters */
      assert_param(IS_TIM_CLOCKPOLARITY(sClockSourceConfig->ClockPolarity));
      assert_param(IS_TIM_CLOCKFILTER(sClockSourceConfig->ClockFilter));

      TIM_TI2_ConfigInputStage(htim->Instance,
 800255a:	687b      	ldr	r3, [r7, #4]
 800255c:	6818      	ldr	r0, [r3, #0]
                               sClockSourceConfig->ClockPolarity,
 800255e:	683b      	ldr	r3, [r7, #0]
 8002560:	6859      	ldr	r1, [r3, #4]
                               sClockSourceConfig->ClockFilter);
 8002562:	683b      	ldr	r3, [r7, #0]
 8002564:	68db      	ldr	r3, [r3, #12]
      TIM_TI2_ConfigInputStage(htim->Instance,
 8002566:	461a      	mov	r2, r3
 8002568:	f000 faa1 	bl	8002aae <TIM_TI2_ConfigInputStage>
      TIM_ITRx_SetConfig(htim->Instance, TIM_CLOCKSOURCE_TI2);
 800256c:	687b      	ldr	r3, [r7, #4]
 800256e:	681b      	ldr	r3, [r3, #0]
 8002570:	2160      	movs	r1, #96	@ 0x60
 8002572:	4618      	mov	r0, r3
 8002574:	f000 facb 	bl	8002b0e <TIM_ITRx_SetConfig>
      break;
 8002578:	e01c      	b.n	80025b4 <HAL_TIM_ConfigClockSource+0x174>

      /* Check TI1 input conditioning related parameters */
      assert_param(IS_TIM_CLOCKPOLARITY(sClockSourceConfig->ClockPolarity));
      assert_param(IS_TIM_CLOCKFILTER(sClockSourceConfig->ClockFilter));

      TIM_TI1_ConfigInputStage(htim->Instance,
 800257a:	687b      	ldr	r3, [r7, #4]
 800257c:	6818      	ldr	r0, [r3, #0]
                               sClockSourceConfig->ClockPolarity,
 800257e:	683b      	ldr	r3, [r7, #0]
 8002580:	6859      	ldr	r1, [r3, #4]
                               sClockSourceConfig->ClockFilter);
 8002582:	683b      	ldr	r3, [r7, #0]
 8002584:	68db      	ldr	r3, [r3, #12]
      TIM_TI1_ConfigInputStage(htim->Instance,
 8002586:	461a      	mov	r2, r3
 8002588:	f000 fa62 	bl	8002a50 <TIM_TI1_ConfigInputStage>
      TIM_ITRx_SetConfig(htim->Instance, TIM_CLOCKSOURCE_TI1ED);
 800258c:	687b      	ldr	r3, [r7, #4]
 800258e:	681b      	ldr	r3, [r3, #0]
 8002590:	2140      	movs	r1, #64	@ 0x40
 8002592:	4618      	mov	r0, r3
 8002594:	f000 fabb 	bl	8002b0e <TIM_ITRx_SetConfig>
      break;
 8002598:	e00c      	b.n	80025b4 <HAL_TIM_ConfigClockSource+0x174>
    case TIM_CLOCKSOURCE_ITR3:
    {
      /* Check whether or not the timer instance supports internal trigger input */
      assert_param(IS_TIM_CLOCKSOURCE_ITRX_INSTANCE(htim->Instance));

      TIM_ITRx_SetConfig(htim->Instance, sClockSourceConfig->ClockSource);
 800259a:	687b      	ldr	r3, [r7, #4]
 800259c:	681a      	ldr	r2, [r3, #0]
 800259e:	683b      	ldr	r3, [r7, #0]
 80025a0:	681b      	ldr	r3, [r3, #0]
 80025a2:	4619      	mov	r1, r3
 80025a4:	4610      	mov	r0, r2
 80025a6:	f000 fab2 	bl	8002b0e <TIM_ITRx_SetConfig>
      break;
 80025aa:	e003      	b.n	80025b4 <HAL_TIM_ConfigClockSource+0x174>
    }

    default:
      status = HAL_ERROR;
 80025ac:	2301      	movs	r3, #1
 80025ae:	73fb      	strb	r3, [r7, #15]
      break;
 80025b0:	e000      	b.n	80025b4 <HAL_TIM_ConfigClockSource+0x174>
      break;
 80025b2:	bf00      	nop
  }
  htim->State = HAL_TIM_STATE_READY;
 80025b4:	687b      	ldr	r3, [r7, #4]
 80025b6:	2201      	movs	r2, #1
 80025b8:	f883 203d 	strb.w	r2, [r3, #61]	@ 0x3d

  __HAL_UNLOCK(htim);
 80025bc:	687b      	ldr	r3, [r7, #4]
 80025be:	2200      	movs	r2, #0
 80025c0:	f883 203c 	strb.w	r2, [r3, #60]	@ 0x3c

  return status;
 80025c4:	7bfb      	ldrb	r3, [r7, #15]
}
 80025c6:	4618      	mov	r0, r3
 80025c8:	3710      	adds	r7, #16
 80025ca:	46bd      	mov	sp, r7
 80025cc:	bd80      	pop	{r7, pc}

080025ce <HAL_TIM_OC_DelayElapsedCallback>:
  * @brief  Output Compare callback in non-blocking mode
  * @param  htim TIM OC handle
  * @retval None
  */
__weak void HAL_TIM_OC_DelayElapsedCallback(TIM_HandleTypeDef *htim)
{
 80025ce:	b480      	push	{r7}
 80025d0:	b083      	sub	sp, #12
 80025d2:	af00      	add	r7, sp, #0
 80025d4:	6078      	str	r0, [r7, #4]
  UNUSED(htim);

  /* NOTE : This function should not be modified, when the callback is needed,
            the HAL_TIM_OC_DelayElapsedCallback could be implemented in the user file
   */
}
 80025d6:	bf00      	nop
 80025d8:	370c      	adds	r7, #12
 80025da:	46bd      	mov	sp, r7
 80025dc:	f85d 7b04 	ldr.w	r7, [sp], #4
 80025e0:	4770      	bx	lr

080025e2 <HAL_TIM_IC_CaptureCallback>:
  * @brief  Input Capture callback in non-blocking mode
  * @param  htim TIM IC handle
  * @retval None
  */
__weak void HAL_TIM_IC_CaptureCallback(TIM_HandleTypeDef *htim)
{
 80025e2:	b480      	push	{r7}
 80025e4:	b083      	sub	sp, #12
 80025e6:	af00      	add	r7, sp, #0
 80025e8:	6078      	str	r0, [r7, #4]
  UNUSED(htim);

  /* NOTE : This function should not be modified, when the callback is needed,
            the HAL_TIM_IC_CaptureCallback could be implemented in the user file
   */
}
 80025ea:	bf00      	nop
 80025ec:	370c      	adds	r7, #12
 80025ee:	46bd      	mov	sp, r7
 80025f0:	f85d 7b04 	ldr.w	r7, [sp], #4
 80025f4:	4770      	bx	lr

080025f6 <HAL_TIM_PWM_PulseFinishedCallback>:
  * @brief  PWM Pulse finished callback in non-blocking mode
  * @param  htim TIM handle
  * @retval None
  */
__weak void HAL_TIM_PWM_PulseFinishedCallback(TIM_HandleTypeDef *htim)
{
 80025f6:	b480      	push	{r7}
 80025f8:	b083      	sub	sp, #12
 80025fa:	af00      	add	r7, sp, #0
 80025fc:	6078      	str	r0, [r7, #4]
  UNUSED(htim);

  /* NOTE : This function should not be modified, when the callback is needed,
            the HAL_TIM_PWM_PulseFinishedCallback could be implemented in the user file
   */
}
 80025fe:	bf00      	nop
 8002600:	370c      	adds	r7, #12
 8002602:	46bd      	mov	sp, r7
 8002604:	f85d 7b04 	ldr.w	r7, [sp], #4
 8002608:	4770      	bx	lr

0800260a <HAL_TIM_TriggerCallback>:
  * @brief  Hall Trigger detection callback in non-blocking mode
  * @param  htim TIM handle
  * @retval None
  */
__weak void HAL_TIM_TriggerCallback(TIM_HandleTypeDef *htim)
{
 800260a:	b480      	push	{r7}
 800260c:	b083      	sub	sp, #12
 800260e:	af00      	add	r7, sp, #0
 8002610:	6078      	str	r0, [r7, #4]
  UNUSED(htim);

  /* NOTE : This function should not be modified, when the callback is needed,
            the HAL_TIM_TriggerCallback could be implemented in the user file
   */
}
 8002612:	bf00      	nop
 8002614:	370c      	adds	r7, #12
 8002616:	46bd      	mov	sp, r7
 8002618:	f85d 7b04 	ldr.w	r7, [sp], #4
 800261c:	4770      	bx	lr
	...

08002620 <TIM_Base_SetConfig>:
  * @param  TIMx TIM peripheral
  * @param  Structure TIM Base configuration structure
  * @retval None
  */
void TIM_Base_SetConfig(TIM_TypeDef *TIMx, const TIM_Base_InitTypeDef *Structure)
{
 8002620:	b480      	push	{r7}
 8002622:	b085      	sub	sp, #20
 8002624:	af00      	add	r7, sp, #0
 8002626:	6078      	str	r0, [r7, #4]
 8002628:	6039      	str	r1, [r7, #0]
  uint32_t tmpcr1;
  tmpcr1 = TIMx->CR1;
 800262a:	687b      	ldr	r3, [r7, #4]
 800262c:	681b      	ldr	r3, [r3, #0]
 800262e:	60fb      	str	r3, [r7, #12]

  /* Set TIM Time Base Unit parameters ---------------------------------------*/
  if (IS_TIM_COUNTER_MODE_SELECT_INSTANCE(TIMx))
 8002630:	687b      	ldr	r3, [r7, #4]
 8002632:	4a3a      	ldr	r2, [pc, #232]	@ (800271c <TIM_Base_SetConfig+0xfc>)
 8002634:	4293      	cmp	r3, r2
 8002636:	d00f      	beq.n	8002658 <TIM_Base_SetConfig+0x38>
 8002638:	687b      	ldr	r3, [r7, #4]
 800263a:	f1b3 4f80 	cmp.w	r3, #1073741824	@ 0x40000000
 800263e:	d00b      	beq.n	8002658 <TIM_Base_SetConfig+0x38>
 8002640:	687b      	ldr	r3, [r7, #4]
 8002642:	4a37      	ldr	r2, [pc, #220]	@ (8002720 <TIM_Base_SetConfig+0x100>)
 8002644:	4293      	cmp	r3, r2
 8002646:	d007      	beq.n	8002658 <TIM_Base_SetConfig+0x38>
 8002648:	687b      	ldr	r3, [r7, #4]
 800264a:	4a36      	ldr	r2, [pc, #216]	@ (8002724 <TIM_Base_SetConfig+0x104>)
 800264c:	4293      	cmp	r3, r2
 800264e:	d003      	beq.n	8002658 <TIM_Base_SetConfig+0x38>
 8002650:	687b      	ldr	r3, [r7, #4]
 8002652:	4a35      	ldr	r2, [pc, #212]	@ (8002728 <TIM_Base_SetConfig+0x108>)
 8002654:	4293      	cmp	r3, r2
 8002656:	d108      	bne.n	800266a <TIM_Base_SetConfig+0x4a>
  {
    /* Select the Counter Mode */
    tmpcr1 &= ~(TIM_CR1_DIR | TIM_CR1_CMS);
 8002658:	68fb      	ldr	r3, [r7, #12]
 800265a:	f023 0370 	bic.w	r3, r3, #112	@ 0x70
 800265e:	60fb      	str	r3, [r7, #12]
    tmpcr1 |= Structure->CounterMode;
 8002660:	683b      	ldr	r3, [r7, #0]
 8002662:	685b      	ldr	r3, [r3, #4]
 8002664:	68fa      	ldr	r2, [r7, #12]
 8002666:	4313      	orrs	r3, r2
 8002668:	60fb      	str	r3, [r7, #12]
  }

  if (IS_TIM_CLOCK_DIVISION_INSTANCE(TIMx))
 800266a:	687b      	ldr	r3, [r7, #4]
 800266c:	4a2b      	ldr	r2, [pc, #172]	@ (800271c <TIM_Base_SetConfig+0xfc>)
 800266e:	4293      	cmp	r3, r2
 8002670:	d01b      	beq.n	80026aa <TIM_Base_SetConfig+0x8a>
 8002672:	687b      	ldr	r3, [r7, #4]
 8002674:	f1b3 4f80 	cmp.w	r3, #1073741824	@ 0x40000000
 8002678:	d017      	beq.n	80026aa <TIM_Base_SetConfig+0x8a>
 800267a:	687b      	ldr	r3, [r7, #4]
 800267c:	4a28      	ldr	r2, [pc, #160]	@ (8002720 <TIM_Base_SetConfig+0x100>)
 800267e:	4293      	cmp	r3, r2
 8002680:	d013      	beq.n	80026aa <TIM_Base_SetConfig+0x8a>
 8002682:	687b      	ldr	r3, [r7, #4]
 8002684:	4a27      	ldr	r2, [pc, #156]	@ (8002724 <TIM_Base_SetConfig+0x104>)
 8002686:	4293      	cmp	r3, r2
 8002688:	d00f      	beq.n	80026aa <TIM_Base_SetConfig+0x8a>
 800268a:	687b      	ldr	r3, [r7, #4]
 800268c:	4a26      	ldr	r2, [pc, #152]	@ (8002728 <TIM_Base_SetConfig+0x108>)
 800268e:	4293      	cmp	r3, r2
 8002690:	d00b      	beq.n	80026aa <TIM_Base_SetConfig+0x8a>
 8002692:	687b      	ldr	r3, [r7, #4]
 8002694:	4a25      	ldr	r2, [pc, #148]	@ (800272c <TIM_Base_SetConfig+0x10c>)
 8002696:	4293      	cmp	r3, r2
 8002698:	d007      	beq.n	80026aa <TIM_Base_SetConfig+0x8a>
 800269a:	687b      	ldr	r3, [r7, #4]
 800269c:	4a24      	ldr	r2, [pc, #144]	@ (8002730 <TIM_Base_SetConfig+0x110>)
 800269e:	4293      	cmp	r3, r2
 80026a0:	d003      	beq.n	80026aa <TIM_Base_SetConfig+0x8a>
 80026a2:	687b      	ldr	r3, [r7, #4]
 80026a4:	4a23      	ldr	r2, [pc, #140]	@ (8002734 <TIM_Base_SetConfig+0x114>)
 80026a6:	4293      	cmp	r3, r2
 80026a8:	d108      	bne.n	80026bc <TIM_Base_SetConfig+0x9c>
  {
    /* Set the clock division */
    tmpcr1 &= ~TIM_CR1_CKD;
 80026aa:	68fb      	ldr	r3, [r7, #12]
 80026ac:	f423 7340 	bic.w	r3, r3, #768	@ 0x300
 80026b0:	60fb      	str	r3, [r7, #12]
    tmpcr1 |= (uint32_t)Structure->ClockDivision;
 80026b2:	683b      	ldr	r3, [r7, #0]
 80026b4:	68db      	ldr	r3, [r3, #12]
 80026b6:	68fa      	ldr	r2, [r7, #12]
 80026b8:	4313      	orrs	r3, r2
 80026ba:	60fb      	str	r3, [r7, #12]
  }

  /* Set the auto-reload preload */
  MODIFY_REG(tmpcr1, TIM_CR1_ARPE, Structure->AutoReloadPreload);
 80026bc:	68fb      	ldr	r3, [r7, #12]
 80026be:	f023 0280 	bic.w	r2, r3, #128	@ 0x80
 80026c2:	683b      	ldr	r3, [r7, #0]
 80026c4:	695b      	ldr	r3, [r3, #20]
 80026c6:	4313      	orrs	r3, r2
 80026c8:	60fb      	str	r3, [r7, #12]

  TIMx->CR1 = tmpcr1;
 80026ca:	687b      	ldr	r3, [r7, #4]
 80026cc:	68fa      	ldr	r2, [r7, #12]
 80026ce:	601a      	str	r2, [r3, #0]

  /* Set the Autoreload value */
  TIMx->ARR = (uint32_t)Structure->Period ;
 80026d0:	683b      	ldr	r3, [r7, #0]
 80026d2:	689a      	ldr	r2, [r3, #8]
 80026d4:	687b      	ldr	r3, [r7, #4]
 80026d6:	62da      	str	r2, [r3, #44]	@ 0x2c

  /* Set the Prescaler value */
  TIMx->PSC = Structure->Prescaler;
 80026d8:	683b      	ldr	r3, [r7, #0]
 80026da:	681a      	ldr	r2, [r3, #0]
 80026dc:	687b      	ldr	r3, [r7, #4]
 80026de:	629a      	str	r2, [r3, #40]	@ 0x28

  if (IS_TIM_REPETITION_COUNTER_INSTANCE(TIMx))
 80026e0:	687b      	ldr	r3, [r7, #4]
 80026e2:	4a0e      	ldr	r2, [pc, #56]	@ (800271c <TIM_Base_SetConfig+0xfc>)
 80026e4:	4293      	cmp	r3, r2
 80026e6:	d103      	bne.n	80026f0 <TIM_Base_SetConfig+0xd0>
  {
    /* Set the Repetition Counter value */
    TIMx->RCR = Structure->RepetitionCounter;
 80026e8:	683b      	ldr	r3, [r7, #0]
 80026ea:	691a      	ldr	r2, [r3, #16]
 80026ec:	687b      	ldr	r3, [r7, #4]
 80026ee:	631a      	str	r2, [r3, #48]	@ 0x30
  }

  /* Generate an update event to reload the Prescaler
     and the repetition counter (only for advanced timer) value immediately */
  TIMx->EGR = TIM_EGR_UG;
 80026f0:	687b      	ldr	r3, [r7, #4]
 80026f2:	2201      	movs	r2, #1
 80026f4:	615a      	str	r2, [r3, #20]

  /* Check if the update flag is set after the Update Generation, if so clear the UIF flag */
  if (HAL_IS_BIT_SET(TIMx->SR, TIM_FLAG_UPDATE))
 80026f6:	687b      	ldr	r3, [r7, #4]
 80026f8:	691b      	ldr	r3, [r3, #16]
 80026fa:	f003 0301 	and.w	r3, r3, #1
 80026fe:	2b01      	cmp	r3, #1
 8002700:	d105      	bne.n	800270e <TIM_Base_SetConfig+0xee>
  {
    /* Clear the update flag */
    CLEAR_BIT(TIMx->SR, TIM_FLAG_UPDATE);
 8002702:	687b      	ldr	r3, [r7, #4]
 8002704:	691b      	ldr	r3, [r3, #16]
 8002706:	f023 0201 	bic.w	r2, r3, #1
 800270a:	687b      	ldr	r3, [r7, #4]
 800270c:	611a      	str	r2, [r3, #16]
  }
}
 800270e:	bf00      	nop
 8002710:	3714      	adds	r7, #20
 8002712:	46bd      	mov	sp, r7
 8002714:	f85d 7b04 	ldr.w	r7, [sp], #4
 8002718:	4770      	bx	lr
 800271a:	bf00      	nop
 800271c:	40010000 	.word	0x40010000
 8002720:	40000400 	.word	0x40000400
 8002724:	40000800 	.word	0x40000800
 8002728:	40000c00 	.word	0x40000c00
 800272c:	40014000 	.word	0x40014000
 8002730:	40014400 	.word	0x40014400
 8002734:	40014800 	.word	0x40014800

08002738 <TIM_OC1_SetConfig>:
  * @param  TIMx to select the TIM peripheral
  * @param  OC_Config The output configuration structure
  * @retval None
  */
static void TIM_OC1_SetConfig(TIM_TypeDef *TIMx, const TIM_OC_InitTypeDef *OC_Config)
{
 8002738:	b480      	push	{r7}
 800273a:	b087      	sub	sp, #28
 800273c:	af00      	add	r7, sp, #0
 800273e:	6078      	str	r0, [r7, #4]
 8002740:	6039      	str	r1, [r7, #0]
  uint32_t tmpccmrx;
  uint32_t tmpccer;
  uint32_t tmpcr2;

  /* Get the TIMx CCER register value */
  tmpccer = TIMx->CCER;
 8002742:	687b      	ldr	r3, [r7, #4]
 8002744:	6a1b      	ldr	r3, [r3, #32]
 8002746:	617b      	str	r3, [r7, #20]

  /* Disable the Channel 1: Reset the CC1E Bit */
  TIMx->CCER &= ~TIM_CCER_CC1E;
 8002748:	687b      	ldr	r3, [r7, #4]
 800274a:	6a1b      	ldr	r3, [r3, #32]
 800274c:	f023 0201 	bic.w	r2, r3, #1
 8002750:	687b      	ldr	r3, [r7, #4]
 8002752:	621a      	str	r2, [r3, #32]

  /* Get the TIMx CR2 register value */
  tmpcr2 =  TIMx->CR2;
 8002754:	687b      	ldr	r3, [r7, #4]
 8002756:	685b      	ldr	r3, [r3, #4]
 8002758:	613b      	str	r3, [r7, #16]

  /* Get the TIMx CCMR1 register value */
  tmpccmrx = TIMx->CCMR1;
 800275a:	687b      	ldr	r3, [r7, #4]
 800275c:	699b      	ldr	r3, [r3, #24]
 800275e:	60fb      	str	r3, [r7, #12]

  /* Reset the Output Compare Mode Bits */
  tmpccmrx &= ~TIM_CCMR1_OC1M;
 8002760:	68fb      	ldr	r3, [r7, #12]
 8002762:	f023 0370 	bic.w	r3, r3, #112	@ 0x70
 8002766:	60fb      	str	r3, [r7, #12]
  tmpccmrx &= ~TIM_CCMR1_CC1S;
 8002768:	68fb      	ldr	r3, [r7, #12]
 800276a:	f023 0303 	bic.w	r3, r3, #3
 800276e:	60fb      	str	r3, [r7, #12]
  /* Select the Output Compare Mode */
  tmpccmrx |= OC_Config->OCMode;
 8002770:	683b      	ldr	r3, [r7, #0]
 8002772:	681b      	ldr	r3, [r3, #0]
 8002774:	68fa      	ldr	r2, [r7, #12]
 8002776:	4313      	orrs	r3, r2
 8002778:	60fb      	str	r3, [r7, #12]

  /* Reset the Output Polarity level */
  tmpccer &= ~TIM_CCER_CC1P;
 800277a:	697b      	ldr	r3, [r7, #20]
 800277c:	f023 0302 	bic.w	r3, r3, #2
 8002780:	617b      	str	r3, [r7, #20]
  /* Set the Output Compare Polarity */
  tmpccer |= OC_Config->OCPolarity;
 8002782:	683b      	ldr	r3, [r7, #0]
 8002784:	689b      	ldr	r3, [r3, #8]
 8002786:	697a      	ldr	r2, [r7, #20]
 8002788:	4313      	orrs	r3, r2
 800278a:	617b      	str	r3, [r7, #20]

  if (IS_TIM_CCXN_INSTANCE(TIMx, TIM_CHANNEL_1))
 800278c:	687b      	ldr	r3, [r7, #4]
 800278e:	4a1c      	ldr	r2, [pc, #112]	@ (8002800 <TIM_OC1_SetConfig+0xc8>)
 8002790:	4293      	cmp	r3, r2
 8002792:	d10c      	bne.n	80027ae <TIM_OC1_SetConfig+0x76>
  {
    /* Check parameters */
    assert_param(IS_TIM_OCN_POLARITY(OC_Config->OCNPolarity));

    /* Reset the Output N Polarity level */
    tmpccer &= ~TIM_CCER_CC1NP;
 8002794:	697b      	ldr	r3, [r7, #20]
 8002796:	f023 0308 	bic.w	r3, r3, #8
 800279a:	617b      	str	r3, [r7, #20]
    /* Set the Output N Polarity */
    tmpccer |= OC_Config->OCNPolarity;
 800279c:	683b      	ldr	r3, [r7, #0]
 800279e:	68db      	ldr	r3, [r3, #12]
 80027a0:	697a      	ldr	r2, [r7, #20]
 80027a2:	4313      	orrs	r3, r2
 80027a4:	617b      	str	r3, [r7, #20]
    /* Reset the Output N State */
    tmpccer &= ~TIM_CCER_CC1NE;
 80027a6:	697b      	ldr	r3, [r7, #20]
 80027a8:	f023 0304 	bic.w	r3, r3, #4
 80027ac:	617b      	str	r3, [r7, #20]
  }

  if (IS_TIM_BREAK_INSTANCE(TIMx))
 80027ae:	687b      	ldr	r3, [r7, #4]
 80027b0:	4a13      	ldr	r2, [pc, #76]	@ (8002800 <TIM_OC1_SetConfig+0xc8>)
 80027b2:	4293      	cmp	r3, r2
 80027b4:	d111      	bne.n	80027da <TIM_OC1_SetConfig+0xa2>
    /* Check parameters */
    assert_param(IS_TIM_OCNIDLE_STATE(OC_Config->OCNIdleState));
    assert_param(IS_TIM_OCIDLE_STATE(OC_Config->OCIdleState));

    /* Reset the Output Compare and Output Compare N IDLE State */
    tmpcr2 &= ~TIM_CR2_OIS1;
 80027b6:	693b      	ldr	r3, [r7, #16]
 80027b8:	f423 7380 	bic.w	r3, r3, #256	@ 0x100
 80027bc:	613b      	str	r3, [r7, #16]
    tmpcr2 &= ~TIM_CR2_OIS1N;
 80027be:	693b      	ldr	r3, [r7, #16]
 80027c0:	f423 7300 	bic.w	r3, r3, #512	@ 0x200
 80027c4:	613b      	str	r3, [r7, #16]
    /* Set the Output Idle state */
    tmpcr2 |= OC_Config->OCIdleState;
 80027c6:	683b      	ldr	r3, [r7, #0]
 80027c8:	695b      	ldr	r3, [r3, #20]
 80027ca:	693a      	ldr	r2, [r7, #16]
 80027cc:	4313      	orrs	r3, r2
 80027ce:	613b      	str	r3, [r7, #16]
    /* Set the Output N Idle state */
    tmpcr2 |= OC_Config->OCNIdleState;
 80027d0:	683b      	ldr	r3, [r7, #0]
 80027d2:	699b      	ldr	r3, [r3, #24]
 80027d4:	693a      	ldr	r2, [r7, #16]
 80027d6:	4313      	orrs	r3, r2
 80027d8:	613b      	str	r3, [r7, #16]
  }

  /* Write to TIMx CR2 */
  TIMx->CR2 = tmpcr2;
 80027da:	687b      	ldr	r3, [r7, #4]
 80027dc:	693a      	ldr	r2, [r7, #16]
 80027de:	605a      	str	r2, [r3, #4]

  /* Write to TIMx CCMR1 */
  TIMx->CCMR1 = tmpccmrx;
 80027e0:	687b      	ldr	r3, [r7, #4]
 80027e2:	68fa      	ldr	r2, [r7, #12]
 80027e4:	619a      	str	r2, [r3, #24]

  /* Set the Capture Compare Register value */
  TIMx->CCR1 = OC_Config->Pulse;
 80027e6:	683b      	ldr	r3, [r7, #0]
 80027e8:	685a      	ldr	r2, [r3, #4]
 80027ea:	687b      	ldr	r3, [r7, #4]
 80027ec:	635a      	str	r2, [r3, #52]	@ 0x34

  /* Write to TIMx CCER */
  TIMx->CCER = tmpccer;
 80027ee:	687b      	ldr	r3, [r7, #4]
 80027f0:	697a      	ldr	r2, [r7, #20]
 80027f2:	621a      	str	r2, [r3, #32]
}
 80027f4:	bf00      	nop
 80027f6:	371c      	adds	r7, #28
 80027f8:	46bd      	mov	sp, r7
 80027fa:	f85d 7b04 	ldr.w	r7, [sp], #4
 80027fe:	4770      	bx	lr
 8002800:	40010000 	.word	0x40010000

08002804 <TIM_OC2_SetConfig>:
  * @param  TIMx to select the TIM peripheral
  * @param  OC_Config The output configuration structure
  * @retval None
  */
void TIM_OC2_SetConfig(TIM_TypeDef *TIMx, const TIM_OC_InitTypeDef *OC_Config)
{
 8002804:	b480      	push	{r7}
 8002806:	b087      	sub	sp, #28
 8002808:	af00      	add	r7, sp, #0
 800280a:	6078      	str	r0, [r7, #4]
 800280c:	6039      	str	r1, [r7, #0]
  uint32_t tmpccmrx;
  uint32_t tmpccer;
  uint32_t tmpcr2;

  /* Get the TIMx CCER register value */
  tmpccer = TIMx->CCER;
 800280e:	687b      	ldr	r3, [r7, #4]
 8002810:	6a1b      	ldr	r3, [r3, #32]
 8002812:	617b      	str	r3, [r7, #20]

  /* Disable the Channel 2: Reset the CC2E Bit */
  TIMx->CCER &= ~TIM_CCER_CC2E;
 8002814:	687b      	ldr	r3, [r7, #4]
 8002816:	6a1b      	ldr	r3, [r3, #32]
 8002818:	f023 0210 	bic.w	r2, r3, #16
 800281c:	687b      	ldr	r3, [r7, #4]
 800281e:	621a      	str	r2, [r3, #32]

  /* Get the TIMx CR2 register value */
  tmpcr2 =  TIMx->CR2;
 8002820:	687b      	ldr	r3, [r7, #4]
 8002822:	685b      	ldr	r3, [r3, #4]
 8002824:	613b      	str	r3, [r7, #16]

  /* Get the TIMx CCMR1 register value */
  tmpccmrx = TIMx->CCMR1;
 8002826:	687b      	ldr	r3, [r7, #4]
 8002828:	699b      	ldr	r3, [r3, #24]
 800282a:	60fb      	str	r3, [r7, #12]

  /* Reset the Output Compare mode and Capture/Compare selection Bits */
  tmpccmrx &= ~TIM_CCMR1_OC2M;
 800282c:	68fb      	ldr	r3, [r7, #12]
 800282e:	f423 43e0 	bic.w	r3, r3, #28672	@ 0x7000
 8002832:	60fb      	str	r3, [r7, #12]
  tmpccmrx &= ~TIM_CCMR1_CC2S;
 8002834:	68fb      	ldr	r3, [r7, #12]
 8002836:	f423 7340 	bic.w	r3, r3, #768	@ 0x300
 800283a:	60fb      	str	r3, [r7, #12]

  /* Select the Output Compare Mode */
  tmpccmrx |= (OC_Config->OCMode << 8U);
 800283c:	683b      	ldr	r3, [r7, #0]
 800283e:	681b      	ldr	r3, [r3, #0]
 8002840:	021b      	lsls	r3, r3, #8
 8002842:	68fa      	ldr	r2, [r7, #12]
 8002844:	4313      	orrs	r3, r2
 8002846:	60fb      	str	r3, [r7, #12]

  /* Reset the Output Polarity level */
  tmpccer &= ~TIM_CCER_CC2P;
 8002848:	697b      	ldr	r3, [r7, #20]
 800284a:	f023 0320 	bic.w	r3, r3, #32
 800284e:	617b      	str	r3, [r7, #20]
  /* Set the Output Compare Polarity */
  tmpccer |= (OC_Config->OCPolarity << 4U);
 8002850:	683b      	ldr	r3, [r7, #0]
 8002852:	689b      	ldr	r3, [r3, #8]
 8002854:	011b      	lsls	r3, r3, #4
 8002856:	697a      	ldr	r2, [r7, #20]
 8002858:	4313      	orrs	r3, r2
 800285a:	617b      	str	r3, [r7, #20]

  if (IS_TIM_CCXN_INSTANCE(TIMx, TIM_CHANNEL_2))
 800285c:	687b      	ldr	r3, [r7, #4]
 800285e:	4a1e      	ldr	r2, [pc, #120]	@ (80028d8 <TIM_OC2_SetConfig+0xd4>)
 8002860:	4293      	cmp	r3, r2
 8002862:	d10d      	bne.n	8002880 <TIM_OC2_SetConfig+0x7c>
  {
    assert_param(IS_TIM_OCN_POLARITY(OC_Config->OCNPolarity));

    /* Reset the Output N Polarity level */
    tmpccer &= ~TIM_CCER_CC2NP;
 8002864:	697b      	ldr	r3, [r7, #20]
 8002866:	f023 0380 	bic.w	r3, r3, #128	@ 0x80
 800286a:	617b      	str	r3, [r7, #20]
    /* Set the Output N Polarity */
    tmpccer |= (OC_Config->OCNPolarity << 4U);
 800286c:	683b      	ldr	r3, [r7, #0]
 800286e:	68db      	ldr	r3, [r3, #12]
 8002870:	011b      	lsls	r3, r3, #4
 8002872:	697a      	ldr	r2, [r7, #20]
 8002874:	4313      	orrs	r3, r2
 8002876:	617b      	str	r3, [r7, #20]
    /* Reset the Output N State */
    tmpccer &= ~TIM_CCER_CC2NE;
 8002878:	697b      	ldr	r3, [r7, #20]
 800287a:	f023 0340 	bic.w	r3, r3, #64	@ 0x40
 800287e:	617b      	str	r3, [r7, #20]
  }

  if (IS_TIM_BREAK_INSTANCE(TIMx))
 8002880:	687b      	ldr	r3, [r7, #4]
 8002882:	4a15      	ldr	r2, [pc, #84]	@ (80028d8 <TIM_OC2_SetConfig+0xd4>)
 8002884:	4293      	cmp	r3, r2
 8002886:	d113      	bne.n	80028b0 <TIM_OC2_SetConfig+0xac>
    /* Check parameters */
    assert_param(IS_TIM_OCNIDLE_STATE(OC_Config->OCNIdleState));
    assert_param(IS_TIM_OCIDLE_STATE(OC_Config->OCIdleState));

    /* Reset the Output Compare and Output Compare N IDLE State */
    tmpcr2 &= ~TIM_CR2_OIS2;
 8002888:	693b      	ldr	r3, [r7, #16]
 800288a:	f423 6380 	bic.w	r3, r3, #1024	@ 0x400
 800288e:	613b      	str	r3, [r7, #16]
    tmpcr2 &= ~TIM_CR2_OIS2N;
 8002890:	693b      	ldr	r3, [r7, #16]
 8002892:	f423 6300 	bic.w	r3, r3, #2048	@ 0x800
 8002896:	613b      	str	r3, [r7, #16]
    /* Set the Output Idle state */
    tmpcr2 |= (OC_Config->OCIdleState << 2U);
 8002898:	683b      	ldr	r3, [r7, #0]
 800289a:	695b      	ldr	r3, [r3, #20]
 800289c:	009b      	lsls	r3, r3, #2
 800289e:	693a      	ldr	r2, [r7, #16]
 80028a0:	4313      	orrs	r3, r2
 80028a2:	613b      	str	r3, [r7, #16]
    /* Set the Output N Idle state */
    tmpcr2 |= (OC_Config->OCNIdleState << 2U);
 80028a4:	683b      	ldr	r3, [r7, #0]
 80028a6:	699b      	ldr	r3, [r3, #24]
 80028a8:	009b      	lsls	r3, r3, #2
 80028aa:	693a      	ldr	r2, [r7, #16]
 80028ac:	4313      	orrs	r3, r2
 80028ae:	613b      	str	r3, [r7, #16]
  }

  /* Write to TIMx CR2 */
  TIMx->CR2 = tmpcr2;
 80028b0:	687b      	ldr	r3, [r7, #4]
 80028b2:	693a      	ldr	r2, [r7, #16]
 80028b4:	605a      	str	r2, [r3, #4]

  /* Write to TIMx CCMR1 */
  TIMx->CCMR1 = tmpccmrx;
 80028b6:	687b      	ldr	r3, [r7, #4]
 80028b8:	68fa      	ldr	r2, [r7, #12]
 80028ba:	619a      	str	r2, [r3, #24]

  /* Set the Capture Compare Register value */
  TIMx->CCR2 = OC_Config->Pulse;
 80028bc:	683b      	ldr	r3, [r7, #0]
 80028be:	685a      	ldr	r2, [r3, #4]
 80028c0:	687b      	ldr	r3, [r7, #4]
 80028c2:	639a      	str	r2, [r3, #56]	@ 0x38

  /* Write to TIMx CCER */
  TIMx->CCER = tmpccer;
 80028c4:	687b      	ldr	r3, [r7, #4]
 80028c6:	697a      	ldr	r2, [r7, #20]
 80028c8:	621a      	str	r2, [r3, #32]
}
 80028ca:	bf00      	nop
 80028cc:	371c      	adds	r7, #28
 80028ce:	46bd      	mov	sp, r7
 80028d0:	f85d 7b04 	ldr.w	r7, [sp], #4
 80028d4:	4770      	bx	lr
 80028d6:	bf00      	nop
 80028d8:	40010000 	.word	0x40010000

080028dc <TIM_OC3_SetConfig>:
  * @param  TIMx to select the TIM peripheral
  * @param  OC_Config The output configuration structure
  * @retval None
  */
static void TIM_OC3_SetConfig(TIM_TypeDef *TIMx, const TIM_OC_InitTypeDef *OC_Config)
{
 80028dc:	b480      	push	{r7}
 80028de:	b087      	sub	sp, #28
 80028e0:	af00      	add	r7, sp, #0
 80028e2:	6078      	str	r0, [r7, #4]
 80028e4:	6039      	str	r1, [r7, #0]
  uint32_t tmpccmrx;
  uint32_t tmpccer;
  uint32_t tmpcr2;

  /* Get the TIMx CCER register value */
  tmpccer = TIMx->CCER;
 80028e6:	687b      	ldr	r3, [r7, #4]
 80028e8:	6a1b      	ldr	r3, [r3, #32]
 80028ea:	617b      	str	r3, [r7, #20]

  /* Disable the Channel 3: Reset the CC2E Bit */
  TIMx->CCER &= ~TIM_CCER_CC3E;
 80028ec:	687b      	ldr	r3, [r7, #4]
 80028ee:	6a1b      	ldr	r3, [r3, #32]
 80028f0:	f423 7280 	bic.w	r2, r3, #256	@ 0x100
 80028f4:	687b      	ldr	r3, [r7, #4]
 80028f6:	621a      	str	r2, [r3, #32]

  /* Get the TIMx CR2 register value */
  tmpcr2 =  TIMx->CR2;
 80028f8:	687b      	ldr	r3, [r7, #4]
 80028fa:	685b      	ldr	r3, [r3, #4]
 80028fc:	613b      	str	r3, [r7, #16]

  /* Get the TIMx CCMR2 register value */
  tmpccmrx = TIMx->CCMR2;
 80028fe:	687b      	ldr	r3, [r7, #4]
 8002900:	69db      	ldr	r3, [r3, #28]
 8002902:	60fb      	str	r3, [r7, #12]

  /* Reset the Output Compare mode and Capture/Compare selection Bits */
  tmpccmrx &= ~TIM_CCMR2_OC3M;
 8002904:	68fb      	ldr	r3, [r7, #12]
 8002906:	f023 0370 	bic.w	r3, r3, #112	@ 0x70
 800290a:	60fb      	str	r3, [r7, #12]
  tmpccmrx &= ~TIM_CCMR2_CC3S;
 800290c:	68fb      	ldr	r3, [r7, #12]
 800290e:	f023 0303 	bic.w	r3, r3, #3
 8002912:	60fb      	str	r3, [r7, #12]
  /* Select the Output Compare Mode */
  tmpccmrx |= OC_Config->OCMode;
 8002914:	683b      	ldr	r3, [r7, #0]
 8002916:	681b      	ldr	r3, [r3, #0]
 8002918:	68fa      	ldr	r2, [r7, #12]
 800291a:	4313      	orrs	r3, r2
 800291c:	60fb      	str	r3, [r7, #12]

  /* Reset the Output Polarity level */
  tmpccer &= ~TIM_CCER_CC3P;
 800291e:	697b      	ldr	r3, [r7, #20]
 8002920:	f423 7300 	bic.w	r3, r3, #512	@ 0x200
 8002924:	617b      	str	r3, [r7, #20]
  /* Set the Output Compare Polarity */
  tmpccer |= (OC_Config->OCPolarity << 8U);
 8002926:	683b      	ldr	r3, [r7, #0]
 8002928:	689b      	ldr	r3, [r3, #8]
 800292a:	021b      	lsls	r3, r3, #8
 800292c:	697a      	ldr	r2, [r7, #20]
 800292e:	4313      	orrs	r3, r2
 8002930:	617b      	str	r3, [r7, #20]

  if (IS_TIM_CCXN_INSTANCE(TIMx, TIM_CHANNEL_3))
 8002932:	687b      	ldr	r3, [r7, #4]
 8002934:	4a1d      	ldr	r2, [pc, #116]	@ (80029ac <TIM_OC3_SetConfig+0xd0>)
 8002936:	4293      	cmp	r3, r2
 8002938:	d10d      	bne.n	8002956 <TIM_OC3_SetConfig+0x7a>
  {
    assert_param(IS_TIM_OCN_POLARITY(OC_Config->OCNPolarity));

    /* Reset the Output N Polarity level */
    tmpccer &= ~TIM_CCER_CC3NP;
 800293a:	697b      	ldr	r3, [r7, #20]
 800293c:	f423 6300 	bic.w	r3, r3, #2048	@ 0x800
 8002940:	617b      	str	r3, [r7, #20]
    /* Set the Output N Polarity */
    tmpccer |= (OC_Config->OCNPolarity << 8U);
 8002942:	683b      	ldr	r3, [r7, #0]
 8002944:	68db      	ldr	r3, [r3, #12]
 8002946:	021b      	lsls	r3, r3, #8
 8002948:	697a      	ldr	r2, [r7, #20]
 800294a:	4313      	orrs	r3, r2
 800294c:	617b      	str	r3, [r7, #20]
    /* Reset the Output N State */
    tmpccer &= ~TIM_CCER_CC3NE;
 800294e:	697b      	ldr	r3, [r7, #20]
 8002950:	f423 6380 	bic.w	r3, r3, #1024	@ 0x400
 8002954:	617b      	str	r3, [r7, #20]
  }

  if (IS_TIM_BREAK_INSTANCE(TIMx))
 8002956:	687b      	ldr	r3, [r7, #4]
 8002958:	4a14      	ldr	r2, [pc, #80]	@ (80029ac <TIM_OC3_SetConfig+0xd0>)
 800295a:	4293      	cmp	r3, r2
 800295c:	d113      	bne.n	8002986 <TIM_OC3_SetConfig+0xaa>
    /* Check parameters */
    assert_param(IS_TIM_OCNIDLE_STATE(OC_Config->OCNIdleState));
    assert_param(IS_TIM_OCIDLE_STATE(OC_Config->OCIdleState));

    /* Reset the Output Compare and Output Compare N IDLE State */
    tmpcr2 &= ~TIM_CR2_OIS3;
 800295e:	693b      	ldr	r3, [r7, #16]
 8002960:	f423 5380 	bic.w	r3, r3, #4096	@ 0x1000
 8002964:	613b      	str	r3, [r7, #16]
    tmpcr2 &= ~TIM_CR2_OIS3N;
 8002966:	693b      	ldr	r3, [r7, #16]
 8002968:	f423 5300 	bic.w	r3, r3, #8192	@ 0x2000
 800296c:	613b      	str	r3, [r7, #16]
    /* Set the Output Idle state */
    tmpcr2 |= (OC_Config->OCIdleState << 4U);
 800296e:	683b      	ldr	r3, [r7, #0]
 8002970:	695b      	ldr	r3, [r3, #20]
 8002972:	011b      	lsls	r3, r3, #4
 8002974:	693a      	ldr	r2, [r7, #16]
 8002976:	4313      	orrs	r3, r2
 8002978:	613b      	str	r3, [r7, #16]
    /* Set the Output N Idle state */
    tmpcr2 |= (OC_Config->OCNIdleState << 4U);
 800297a:	683b      	ldr	r3, [r7, #0]
 800297c:	699b      	ldr	r3, [r3, #24]
 800297e:	011b      	lsls	r3, r3, #4
 8002980:	693a      	ldr	r2, [r7, #16]
 8002982:	4313      	orrs	r3, r2
 8002984:	613b      	str	r3, [r7, #16]
  }

  /* Write to TIMx CR2 */
  TIMx->CR2 = tmpcr2;
 8002986:	687b      	ldr	r3, [r7, #4]
 8002988:	693a      	ldr	r2, [r7, #16]
 800298a:	605a      	str	r2, [r3, #4]

  /* Write to TIMx CCMR2 */
  TIMx->CCMR2 = tmpccmrx;
 800298c:	687b      	ldr	r3, [r7, #4]
 800298e:	68fa      	ldr	r2, [r7, #12]
 8002990:	61da      	str	r2, [r3, #28]

  /* Set the Capture Compare Register value */
  TIMx->CCR3 = OC_Config->Pulse;
 8002992:	683b      	ldr	r3, [r7, #0]
 8002994:	685a      	ldr	r2, [r3, #4]
 8002996:	687b      	ldr	r3, [r7, #4]
 8002998:	63da      	str	r2, [r3, #60]	@ 0x3c

  /* Write to TIMx CCER */
  TIMx->CCER = tmpccer;
 800299a:	687b      	ldr	r3, [r7, #4]
 800299c:	697a      	ldr	r2, [r7, #20]
 800299e:	621a      	str	r2, [r3, #32]
}
 80029a0:	bf00      	nop
 80029a2:	371c      	adds	r7, #28
 80029a4:	46bd      	mov	sp, r7
 80029a6:	f85d 7b04 	ldr.w	r7, [sp], #4
 80029aa:	4770      	bx	lr
 80029ac:	40010000 	.word	0x40010000

080029b0 <TIM_OC4_SetConfig>:
  * @param  TIMx to select the TIM peripheral
  * @param  OC_Config The output configuration structure
  * @retval None
  */
static void TIM_OC4_SetConfig(TIM_TypeDef *TIMx, const TIM_OC_InitTypeDef *OC_Config)
{
 80029b0:	b480      	push	{r7}
 80029b2:	b087      	sub	sp, #28
 80029b4:	af00      	add	r7, sp, #0
 80029b6:	6078      	str	r0, [r7, #4]
 80029b8:	6039      	str	r1, [r7, #0]
  uint32_t tmpccmrx;
  uint32_t tmpccer;
  uint32_t tmpcr2;

  /* Get the TIMx CCER register value */
  tmpccer = TIMx->CCER;
 80029ba:	687b      	ldr	r3, [r7, #4]
 80029bc:	6a1b      	ldr	r3, [r3, #32]
 80029be:	613b      	str	r3, [r7, #16]

  /* Disable the Channel 4: Reset the CC4E Bit */
  TIMx->CCER &= ~TIM_CCER_CC4E;
 80029c0:	687b      	ldr	r3, [r7, #4]
 80029c2:	6a1b      	ldr	r3, [r3, #32]
 80029c4:	f423 5280 	bic.w	r2, r3, #4096	@ 0x1000
 80029c8:	687b      	ldr	r3, [r7, #4]
 80029ca:	621a      	str	r2, [r3, #32]

  /* Get the TIMx CR2 register value */
  tmpcr2 =  TIMx->CR2;
 80029cc:	687b      	ldr	r3, [r7, #4]
 80029ce:	685b      	ldr	r3, [r3, #4]
 80029d0:	617b      	str	r3, [r7, #20]

  /* Get the TIMx CCMR2 register value */
  tmpccmrx = TIMx->CCMR2;
 80029d2:	687b      	ldr	r3, [r7, #4]
 80029d4:	69db      	ldr	r3, [r3, #28]
 80029d6:	60fb      	str	r3, [r7, #12]

  /* Reset the Output Compare mode and Capture/Compare selection Bits */
  tmpccmrx &= ~TIM_CCMR2_OC4M;
 80029d8:	68fb      	ldr	r3, [r7, #12]
 80029da:	f423 43e0 	bic.w	r3, r3, #28672	@ 0x7000
 80029de:	60fb      	str	r3, [r7, #12]
  tmpccmrx &= ~TIM_CCMR2_CC4S;
 80029e0:	68fb      	ldr	r3, [r7, #12]
 80029e2:	f423 7340 	bic.w	r3, r3, #768	@ 0x300
 80029e6:	60fb      	str	r3, [r7, #12]

  /* Select the Output Compare Mode */
  tmpccmrx |= (OC_Config->OCMode << 8U);
 80029e8:	683b      	ldr	r3, [r7, #0]
 80029ea:	681b      	ldr	r3, [r3, #0]
 80029ec:	021b      	lsls	r3, r3, #8
 80029ee:	68fa      	ldr	r2, [r7, #12]
 80029f0:	4313      	orrs	r3, r2
 80029f2:	60fb      	str	r3, [r7, #12]

  /* Reset the Output Polarity level */
  tmpccer &= ~TIM_CCER_CC4P;
 80029f4:	693b      	ldr	r3, [r7, #16]
 80029f6:	f423 5300 	bic.w	r3, r3, #8192	@ 0x2000
 80029fa:	613b      	str	r3, [r7, #16]
  /* Set the Output Compare Polarity */
  tmpccer |= (OC_Config->OCPolarity << 12U);
 80029fc:	683b      	ldr	r3, [r7, #0]
 80029fe:	689b      	ldr	r3, [r3, #8]
 8002a00:	031b      	lsls	r3, r3, #12
 8002a02:	693a      	ldr	r2, [r7, #16]
 8002a04:	4313      	orrs	r3, r2
 8002a06:	613b      	str	r3, [r7, #16]

  if (IS_TIM_BREAK_INSTANCE(TIMx))
 8002a08:	687b      	ldr	r3, [r7, #4]
 8002a0a:	4a10      	ldr	r2, [pc, #64]	@ (8002a4c <TIM_OC4_SetConfig+0x9c>)
 8002a0c:	4293      	cmp	r3, r2
 8002a0e:	d109      	bne.n	8002a24 <TIM_OC4_SetConfig+0x74>
  {
    /* Check parameters */
    assert_param(IS_TIM_OCIDLE_STATE(OC_Config->OCIdleState));

    /* Reset the Output Compare IDLE State */
    tmpcr2 &= ~TIM_CR2_OIS4;
 8002a10:	697b      	ldr	r3, [r7, #20]
 8002a12:	f423 4380 	bic.w	r3, r3, #16384	@ 0x4000
 8002a16:	617b      	str	r3, [r7, #20]

    /* Set the Output Idle state */
    tmpcr2 |= (OC_Config->OCIdleState << 6U);
 8002a18:	683b      	ldr	r3, [r7, #0]
 8002a1a:	695b      	ldr	r3, [r3, #20]
 8002a1c:	019b      	lsls	r3, r3, #6
 8002a1e:	697a      	ldr	r2, [r7, #20]
 8002a20:	4313      	orrs	r3, r2
 8002a22:	617b      	str	r3, [r7, #20]
  }

  /* Write to TIMx CR2 */
  TIMx->CR2 = tmpcr2;
 8002a24:	687b      	ldr	r3, [r7, #4]
 8002a26:	697a      	ldr	r2, [r7, #20]
 8002a28:	605a      	str	r2, [r3, #4]

  /* Write to TIMx CCMR2 */
  TIMx->CCMR2 = tmpccmrx;
 8002a2a:	687b      	ldr	r3, [r7, #4]
 8002a2c:	68fa      	ldr	r2, [r7, #12]
 8002a2e:	61da      	str	r2, [r3, #28]

  /* Set the Capture Compare Register value */
  TIMx->CCR4 = OC_Config->Pulse;
 8002a30:	683b      	ldr	r3, [r7, #0]
 8002a32:	685a      	ldr	r2, [r3, #4]
 8002a34:	687b      	ldr	r3, [r7, #4]
 8002a36:	641a      	str	r2, [r3, #64]	@ 0x40

  /* Write to TIMx CCER */
  TIMx->CCER = tmpccer;
 8002a38:	687b      	ldr	r3, [r7, #4]
 8002a3a:	693a      	ldr	r2, [r7, #16]
 8002a3c:	621a      	str	r2, [r3, #32]
}
 8002a3e:	bf00      	nop
 8002a40:	371c      	adds	r7, #28
 8002a42:	46bd      	mov	sp, r7
 8002a44:	f85d 7b04 	ldr.w	r7, [sp], #4
 8002a48:	4770      	bx	lr
 8002a4a:	bf00      	nop
 8002a4c:	40010000 	.word	0x40010000

08002a50 <TIM_TI1_ConfigInputStage>:
  * @param  TIM_ICFilter Specifies the Input Capture Filter.
  *          This parameter must be a value between 0x00 and 0x0F.
  * @retval None
  */
static void TIM_TI1_ConfigInputStage(TIM_TypeDef *TIMx, uint32_t TIM_ICPolarity, uint32_t TIM_ICFilter)
{
 8002a50:	b480      	push	{r7}
 8002a52:	b087      	sub	sp, #28
 8002a54:	af00      	add	r7, sp, #0
 8002a56:	60f8      	str	r0, [r7, #12]
 8002a58:	60b9      	str	r1, [r7, #8]
 8002a5a:	607a      	str	r2, [r7, #4]
  uint32_t tmpccmr1;
  uint32_t tmpccer;

  /* Disable the Channel 1: Reset the CC1E Bit */
  tmpccer = TIMx->CCER;
 8002a5c:	68fb      	ldr	r3, [r7, #12]
 8002a5e:	6a1b      	ldr	r3, [r3, #32]
 8002a60:	617b      	str	r3, [r7, #20]
  TIMx->CCER &= ~TIM_CCER_CC1E;
 8002a62:	68fb      	ldr	r3, [r7, #12]
 8002a64:	6a1b      	ldr	r3, [r3, #32]
 8002a66:	f023 0201 	bic.w	r2, r3, #1
 8002a6a:	68fb      	ldr	r3, [r7, #12]
 8002a6c:	621a      	str	r2, [r3, #32]
  tmpccmr1 = TIMx->CCMR1;
 8002a6e:	68fb      	ldr	r3, [r7, #12]
 8002a70:	699b      	ldr	r3, [r3, #24]
 8002a72:	613b      	str	r3, [r7, #16]

  /* Set the filter */
  tmpccmr1 &= ~TIM_CCMR1_IC1F;
 8002a74:	693b      	ldr	r3, [r7, #16]
 8002a76:	f023 03f0 	bic.w	r3, r3, #240	@ 0xf0
 8002a7a:	613b      	str	r3, [r7, #16]
  tmpccmr1 |= (TIM_ICFilter << 4U);
 8002a7c:	687b      	ldr	r3, [r7, #4]
 8002a7e:	011b      	lsls	r3, r3, #4
 8002a80:	693a      	ldr	r2, [r7, #16]
 8002a82:	4313      	orrs	r3, r2
 8002a84:	613b      	str	r3, [r7, #16]

  /* Select the Polarity and set the CC1E Bit */
  tmpccer &= ~(TIM_CCER_CC1P | TIM_CCER_CC1NP);
 8002a86:	697b      	ldr	r3, [r7, #20]
 8002a88:	f023 030a 	bic.w	r3, r3, #10
 8002a8c:	617b      	str	r3, [r7, #20]
  tmpccer |= TIM_ICPolarity;
 8002a8e:	697a      	ldr	r2, [r7, #20]
 8002a90:	68bb      	ldr	r3, [r7, #8]
 8002a92:	4313      	orrs	r3, r2
 8002a94:	617b      	str	r3, [r7, #20]

  /* Write to TIMx CCMR1 and CCER registers */
  TIMx->CCMR1 = tmpccmr1;
 8002a96:	68fb      	ldr	r3, [r7, #12]
 8002a98:	693a      	ldr	r2, [r7, #16]
 8002a9a:	619a      	str	r2, [r3, #24]
  TIMx->CCER = tmpccer;
 8002a9c:	68fb      	ldr	r3, [r7, #12]
 8002a9e:	697a      	ldr	r2, [r7, #20]
 8002aa0:	621a      	str	r2, [r3, #32]
}
 8002aa2:	bf00      	nop
 8002aa4:	371c      	adds	r7, #28
 8002aa6:	46bd      	mov	sp, r7
 8002aa8:	f85d 7b04 	ldr.w	r7, [sp], #4
 8002aac:	4770      	bx	lr

08002aae <TIM_TI2_ConfigInputStage>:
  * @param  TIM_ICFilter Specifies the Input Capture Filter.
  *          This parameter must be a value between 0x00 and 0x0F.
  * @retval None
  */
static void TIM_TI2_ConfigInputStage(TIM_TypeDef *TIMx, uint32_t TIM_ICPolarity, uint32_t TIM_ICFilter)
{
 8002aae:	b480      	push	{r7}
 8002ab0:	b087      	sub	sp, #28
 8002ab2:	af00      	add	r7, sp, #0
 8002ab4:	60f8      	str	r0, [r7, #12]
 8002ab6:	60b9      	str	r1, [r7, #8]
 8002ab8:	607a      	str	r2, [r7, #4]
  uint32_t tmpccmr1;
  uint32_t tmpccer;

  /* Disable the Channel 2: Reset the CC2E Bit */
  tmpccer = TIMx->CCER;
 8002aba:	68fb      	ldr	r3, [r7, #12]
 8002abc:	6a1b      	ldr	r3, [r3, #32]
 8002abe:	617b      	str	r3, [r7, #20]
  TIMx->CCER &= ~TIM_CCER_CC2E;
 8002ac0:	68fb      	ldr	r3, [r7, #12]
 8002ac2:	6a1b      	ldr	r3, [r3, #32]
 8002ac4:	f023 0210 	bic.w	r2, r3, #16
 8002ac8:	68fb      	ldr	r3, [r7, #12]
 8002aca:	621a      	str	r2, [r3, #32]
  tmpccmr1 = TIMx->CCMR1;
 8002acc:	68fb      	ldr	r3, [r7, #12]
 8002ace:	699b      	ldr	r3, [r3, #24]
 8002ad0:	613b      	str	r3, [r7, #16]

  /* Set the filter */
  tmpccmr1 &= ~TIM_CCMR1_IC2F;
 8002ad2:	693b      	ldr	r3, [r7, #16]
 8002ad4:	f423 4370 	bic.w	r3, r3, #61440	@ 0xf000
 8002ad8:	613b      	str	r3, [r7, #16]
  tmpccmr1 |= (TIM_ICFilter << 12U);
 8002ada:	687b      	ldr	r3, [r7, #4]
 8002adc:	031b      	lsls	r3, r3, #12
 8002ade:	693a      	ldr	r2, [r7, #16]
 8002ae0:	4313      	orrs	r3, r2
 8002ae2:	613b      	str	r3, [r7, #16]

  /* Select the Polarity and set the CC2E Bit */
  tmpccer &= ~(TIM_CCER_CC2P | TIM_CCER_CC2NP);
 8002ae4:	697b      	ldr	r3, [r7, #20]
 8002ae6:	f023 03a0 	bic.w	r3, r3, #160	@ 0xa0
 8002aea:	617b      	str	r3, [r7, #20]
  tmpccer |= (TIM_ICPolarity << 4U);
 8002aec:	68bb      	ldr	r3, [r7, #8]
 8002aee:	011b      	lsls	r3, r3, #4
 8002af0:	697a      	ldr	r2, [r7, #20]
 8002af2:	4313      	orrs	r3, r2
 8002af4:	617b      	str	r3, [r7, #20]

  /* Write to TIMx CCMR1 and CCER registers */
  TIMx->CCMR1 = tmpccmr1 ;
 8002af6:	68fb      	ldr	r3, [r7, #12]
 8002af8:	693a      	ldr	r2, [r7, #16]
 8002afa:	619a      	str	r2, [r3, #24]
  TIMx->CCER = tmpccer;
 8002afc:	68fb      	ldr	r3, [r7, #12]
 8002afe:	697a      	ldr	r2, [r7, #20]
 8002b00:	621a      	str	r2, [r3, #32]
}
 8002b02:	bf00      	nop
 8002b04:	371c      	adds	r7, #28
 8002b06:	46bd      	mov	sp, r7
 8002b08:	f85d 7b04 	ldr.w	r7, [sp], #4
 8002b0c:	4770      	bx	lr

08002b0e <TIM_ITRx_SetConfig>:
  *            @arg TIM_TS_TI2FP2: Filtered Timer Input 2
  *            @arg TIM_TS_ETRF: External Trigger input
  * @retval None
  */
static void TIM_ITRx_SetConfig(TIM_TypeDef *TIMx, uint32_t InputTriggerSource)
{
 8002b0e:	b480      	push	{r7}
 8002b10:	b085      	sub	sp, #20
 8002b12:	af00      	add	r7, sp, #0
 8002b14:	6078      	str	r0, [r7, #4]
 8002b16:	6039      	str	r1, [r7, #0]
  uint32_t tmpsmcr;

  /* Get the TIMx SMCR register value */
  tmpsmcr = TIMx->SMCR;
 8002b18:	687b      	ldr	r3, [r7, #4]
 8002b1a:	689b      	ldr	r3, [r3, #8]
 8002b1c:	60fb      	str	r3, [r7, #12]
  /* Reset the TS Bits */
  tmpsmcr &= ~TIM_SMCR_TS;
 8002b1e:	68fb      	ldr	r3, [r7, #12]
 8002b20:	f023 0370 	bic.w	r3, r3, #112	@ 0x70
 8002b24:	60fb      	str	r3, [r7, #12]
  /* Set the Input Trigger source and the slave mode*/
  tmpsmcr |= (InputTriggerSource | TIM_SLAVEMODE_EXTERNAL1);
 8002b26:	683a      	ldr	r2, [r7, #0]
 8002b28:	68fb      	ldr	r3, [r7, #12]
 8002b2a:	4313      	orrs	r3, r2
 8002b2c:	f043 0307 	orr.w	r3, r3, #7
 8002b30:	60fb      	str	r3, [r7, #12]
  /* Write to TIMx SMCR */
  TIMx->SMCR = tmpsmcr;
 8002b32:	687b      	ldr	r3, [r7, #4]
 8002b34:	68fa      	ldr	r2, [r7, #12]
 8002b36:	609a      	str	r2, [r3, #8]
}
 8002b38:	bf00      	nop
 8002b3a:	3714      	adds	r7, #20
 8002b3c:	46bd      	mov	sp, r7
 8002b3e:	f85d 7b04 	ldr.w	r7, [sp], #4
 8002b42:	4770      	bx	lr

08002b44 <TIM_ETR_SetConfig>:
  *          This parameter must be a value between 0x00 and 0x0F
  * @retval None
  */
void TIM_ETR_SetConfig(TIM_TypeDef *TIMx, uint32_t TIM_ExtTRGPrescaler,
                       uint32_t TIM_ExtTRGPolarity, uint32_t ExtTRGFilter)
{
 8002b44:	b480      	push	{r7}
 8002b46:	b087      	sub	sp, #28
 8002b48:	af00      	add	r7, sp, #0
 8002b4a:	60f8      	str	r0, [r7, #12]
 8002b4c:	60b9      	str	r1, [r7, #8]
 8002b4e:	607a      	str	r2, [r7, #4]
 8002b50:	603b      	str	r3, [r7, #0]
  uint32_t tmpsmcr;

  tmpsmcr = TIMx->SMCR;
 8002b52:	68fb      	ldr	r3, [r7, #12]
 8002b54:	689b      	ldr	r3, [r3, #8]
 8002b56:	617b      	str	r3, [r7, #20]

  /* Reset the ETR Bits */
  tmpsmcr &= ~(TIM_SMCR_ETF | TIM_SMCR_ETPS | TIM_SMCR_ECE | TIM_SMCR_ETP);
 8002b58:	697b      	ldr	r3, [r7, #20]
 8002b5a:	f423 437f 	bic.w	r3, r3, #65280	@ 0xff00
 8002b5e:	617b      	str	r3, [r7, #20]

  /* Set the Prescaler, the Filter value and the Polarity */
  tmpsmcr |= (uint32_t)(TIM_ExtTRGPrescaler | (TIM_ExtTRGPolarity | (ExtTRGFilter << 8U)));
 8002b60:	683b      	ldr	r3, [r7, #0]
 8002b62:	021a      	lsls	r2, r3, #8
 8002b64:	687b      	ldr	r3, [r7, #4]
 8002b66:	431a      	orrs	r2, r3
 8002b68:	68bb      	ldr	r3, [r7, #8]
 8002b6a:	4313      	orrs	r3, r2
 8002b6c:	697a      	ldr	r2, [r7, #20]
 8002b6e:	4313      	orrs	r3, r2
 8002b70:	617b      	str	r3, [r7, #20]

  /* Write to TIMx SMCR */
  TIMx->SMCR = tmpsmcr;
 8002b72:	68fb      	ldr	r3, [r7, #12]
 8002b74:	697a      	ldr	r2, [r7, #20]
 8002b76:	609a      	str	r2, [r3, #8]
}
 8002b78:	bf00      	nop
 8002b7a:	371c      	adds	r7, #28
 8002b7c:	46bd      	mov	sp, r7
 8002b7e:	f85d 7b04 	ldr.w	r7, [sp], #4
 8002b82:	4770      	bx	lr

08002b84 <HAL_TIMEx_MasterConfigSynchronization>:
  *         mode.
  * @retval HAL status
  */
HAL_StatusTypeDef HAL_TIMEx_MasterConfigSynchronization(TIM_HandleTypeDef *htim,
                                                        const TIM_MasterConfigTypeDef *sMasterConfig)
{
 8002b84:	b480      	push	{r7}
 8002b86:	b085      	sub	sp, #20
 8002b88:	af00      	add	r7, sp, #0
 8002b8a:	6078      	str	r0, [r7, #4]
 8002b8c:	6039      	str	r1, [r7, #0]
  assert_param(IS_TIM_MASTER_INSTANCE(htim->Instance));
  assert_param(IS_TIM_TRGO_SOURCE(sMasterConfig->MasterOutputTrigger));
  assert_param(IS_TIM_MSM_STATE(sMasterConfig->MasterSlaveMode));

  /* Check input state */
  __HAL_LOCK(htim);
 8002b8e:	687b      	ldr	r3, [r7, #4]
 8002b90:	f893 303c 	ldrb.w	r3, [r3, #60]	@ 0x3c
 8002b94:	2b01      	cmp	r3, #1
 8002b96:	d101      	bne.n	8002b9c <HAL_TIMEx_MasterConfigSynchronization+0x18>
 8002b98:	2302      	movs	r3, #2
 8002b9a:	e050      	b.n	8002c3e <HAL_TIMEx_MasterConfigSynchronization+0xba>
 8002b9c:	687b      	ldr	r3, [r7, #4]
 8002b9e:	2201      	movs	r2, #1
 8002ba0:	f883 203c 	strb.w	r2, [r3, #60]	@ 0x3c

  /* Change the handler state */
  htim->State = HAL_TIM_STATE_BUSY;
 8002ba4:	687b      	ldr	r3, [r7, #4]
 8002ba6:	2202      	movs	r2, #2
 8002ba8:	f883 203d 	strb.w	r2, [r3, #61]	@ 0x3d

  /* Get the TIMx CR2 register value */
  tmpcr2 = htim->Instance->CR2;
 8002bac:	687b      	ldr	r3, [r7, #4]
 8002bae:	681b      	ldr	r3, [r3, #0]
 8002bb0:	685b      	ldr	r3, [r3, #4]
 8002bb2:	60fb      	str	r3, [r7, #12]

  /* Get the TIMx SMCR register value */
  tmpsmcr = htim->Instance->SMCR;
 8002bb4:	687b      	ldr	r3, [r7, #4]
 8002bb6:	681b      	ldr	r3, [r3, #0]
 8002bb8:	689b      	ldr	r3, [r3, #8]
 8002bba:	60bb      	str	r3, [r7, #8]

  /* Reset the MMS Bits */
  tmpcr2 &= ~TIM_CR2_MMS;
 8002bbc:	68fb      	ldr	r3, [r7, #12]
 8002bbe:	f023 0370 	bic.w	r3, r3, #112	@ 0x70
 8002bc2:	60fb      	str	r3, [r7, #12]
  /* Select the TRGO source */
  tmpcr2 |=  sMasterConfig->MasterOutputTrigger;
 8002bc4:	683b      	ldr	r3, [r7, #0]
 8002bc6:	681b      	ldr	r3, [r3, #0]
 8002bc8:	68fa      	ldr	r2, [r7, #12]
 8002bca:	4313      	orrs	r3, r2
 8002bcc:	60fb      	str	r3, [r7, #12]

  /* Update TIMx CR2 */
  htim->Instance->CR2 = tmpcr2;
 8002bce:	687b      	ldr	r3, [r7, #4]
 8002bd0:	681b      	ldr	r3, [r3, #0]
 8002bd2:	68fa      	ldr	r2, [r7, #12]
 8002bd4:	605a      	str	r2, [r3, #4]

  if (IS_TIM_SLAVE_INSTANCE(htim->Instance))
 8002bd6:	687b      	ldr	r3, [r7, #4]
 8002bd8:	681b      	ldr	r3, [r3, #0]
 8002bda:	4a1c      	ldr	r2, [pc, #112]	@ (8002c4c <HAL_TIMEx_MasterConfigSynchronization+0xc8>)
 8002bdc:	4293      	cmp	r3, r2
 8002bde:	d018      	beq.n	8002c12 <HAL_TIMEx_MasterConfigSynchronization+0x8e>
 8002be0:	687b      	ldr	r3, [r7, #4]
 8002be2:	681b      	ldr	r3, [r3, #0]
 8002be4:	f1b3 4f80 	cmp.w	r3, #1073741824	@ 0x40000000
 8002be8:	d013      	beq.n	8002c12 <HAL_TIMEx_MasterConfigSynchronization+0x8e>
 8002bea:	687b      	ldr	r3, [r7, #4]
 8002bec:	681b      	ldr	r3, [r3, #0]
 8002bee:	4a18      	ldr	r2, [pc, #96]	@ (8002c50 <HAL_TIMEx_MasterConfigSynchronization+0xcc>)
 8002bf0:	4293      	cmp	r3, r2
 8002bf2:	d00e      	beq.n	8002c12 <HAL_TIMEx_MasterConfigSynchronization+0x8e>
 8002bf4:	687b      	ldr	r3, [r7, #4]
 8002bf6:	681b      	ldr	r3, [r3, #0]
 8002bf8:	4a16      	ldr	r2, [pc, #88]	@ (8002c54 <HAL_TIMEx_MasterConfigSynchronization+0xd0>)
 8002bfa:	4293      	cmp	r3, r2
 8002bfc:	d009      	beq.n	8002c12 <HAL_TIMEx_MasterConfigSynchronization+0x8e>
 8002bfe:	687b      	ldr	r3, [r7, #4]
 8002c00:	681b      	ldr	r3, [r3, #0]
 8002c02:	4a15      	ldr	r2, [pc, #84]	@ (8002c58 <HAL_TIMEx_MasterConfigSynchronization+0xd4>)
 8002c04:	4293      	cmp	r3, r2
 8002c06:	d004      	beq.n	8002c12 <HAL_TIMEx_MasterConfigSynchronization+0x8e>
 8002c08:	687b      	ldr	r3, [r7, #4]
 8002c0a:	681b      	ldr	r3, [r3, #0]
 8002c0c:	4a13      	ldr	r2, [pc, #76]	@ (8002c5c <HAL_TIMEx_MasterConfigSynchronization+0xd8>)
 8002c0e:	4293      	cmp	r3, r2
 8002c10:	d10c      	bne.n	8002c2c <HAL_TIMEx_MasterConfigSynchronization+0xa8>
  {
    /* Reset the MSM Bit */
    tmpsmcr &= ~TIM_SMCR_MSM;
 8002c12:	68bb      	ldr	r3, [r7, #8]
 8002c14:	f023 0380 	bic.w	r3, r3, #128	@ 0x80
 8002c18:	60bb      	str	r3, [r7, #8]
    /* Set master mode */
    tmpsmcr |= sMasterConfig->MasterSlaveMode;
 8002c1a:	683b      	ldr	r3, [r7, #0]
 8002c1c:	685b      	ldr	r3, [r3, #4]
 8002c1e:	68ba      	ldr	r2, [r7, #8]
 8002c20:	4313      	orrs	r3, r2
 8002c22:	60bb      	str	r3, [r7, #8]

    /* Update TIMx SMCR */
    htim->Instance->SMCR = tmpsmcr;
 8002c24:	687b      	ldr	r3, [r7, #4]
 8002c26:	681b      	ldr	r3, [r3, #0]
 8002c28:	68ba      	ldr	r2, [r7, #8]
 8002c2a:	609a      	str	r2, [r3, #8]
  }

  /* Change the htim state */
  htim->State = HAL_TIM_STATE_READY;
 8002c2c:	687b      	ldr	r3, [r7, #4]
 8002c2e:	2201      	movs	r2, #1
 8002c30:	f883 203d 	strb.w	r2, [r3, #61]	@ 0x3d

  __HAL_UNLOCK(htim);
 8002c34:	687b      	ldr	r3, [r7, #4]
 8002c36:	2200      	movs	r2, #0
 8002c38:	f883 203c 	strb.w	r2, [r3, #60]	@ 0x3c

  return HAL_OK;
 8002c3c:	2300      	movs	r3, #0
}
 8002c3e:	4618      	mov	r0, r3
 8002c40:	3714      	adds	r7, #20
 8002c42:	46bd      	mov	sp, r7
 8002c44:	f85d 7b04 	ldr.w	r7, [sp], #4
 8002c48:	4770      	bx	lr
 8002c4a:	bf00      	nop
 8002c4c:	40010000 	.word	0x40010000
 8002c50:	40000400 	.word	0x40000400
 8002c54:	40000800 	.word	0x40000800
 8002c58:	40000c00 	.word	0x40000c00
 8002c5c:	40014000 	.word	0x40014000

08002c60 <HAL_TIMEx_CommutCallback>:
  * @brief  Commutation callback in non-blocking mode
  * @param  htim TIM handle
  * @retval None
  */
__weak void HAL_TIMEx_CommutCallback(TIM_HandleTypeDef *htim)
{
 8002c60:	b480      	push	{r7}
 8002c62:	b083      	sub	sp, #12
 8002c64:	af00      	add	r7, sp, #0
 8002c66:	6078      	str	r0, [r7, #4]
  UNUSED(htim);

  /* NOTE : This function should not be modified, when the callback is needed,
            the HAL_TIMEx_CommutCallback could be implemented in the user file
   */
}
 8002c68:	bf00      	nop
 8002c6a:	370c      	adds	r7, #12
 8002c6c:	46bd      	mov	sp, r7
 8002c6e:	f85d 7b04 	ldr.w	r7, [sp], #4
 8002c72:	4770      	bx	lr

08002c74 <HAL_TIMEx_BreakCallback>:
  * @brief  Break detection callback in non-blocking mode
  * @param  htim TIM handle
  * @retval None
  */
__weak void HAL_TIMEx_BreakCallback(TIM_HandleTypeDef *htim)
{
 8002c74:	b480      	push	{r7}
 8002c76:	b083      	sub	sp, #12
 8002c78:	af00      	add	r7, sp, #0
 8002c7a:	6078      	str	r0, [r7, #4]
  UNUSED(htim);

  /* NOTE : This function should not be modified, when the callback is needed,
            the HAL_TIMEx_BreakCallback could be implemented in the user file
   */
}
 8002c7c:	bf00      	nop
 8002c7e:	370c      	adds	r7, #12
 8002c80:	46bd      	mov	sp, r7
 8002c82:	f85d 7b04 	ldr.w	r7, [sp], #4
 8002c86:	4770      	bx	lr

08002c88 <HAL_UART_Init>:
  * @param  huart  Pointer to a UART_HandleTypeDef structure that contains
  *                the configuration information for the specified UART module.
  * @retval HAL status
  */
HAL_StatusTypeDef HAL_UART_Init(UART_HandleTypeDef *huart)
{
 8002c88:	b580      	push	{r7, lr}
 8002c8a:	b082      	sub	sp, #8
 8002c8c:	af00      	add	r7, sp, #0
 8002c8e:	6078      	str	r0, [r7, #4]
  /* Check the UART handle allocation */
  if (huart == NULL)
 8002c90:	687b      	ldr	r3, [r7, #4]
 8002c92:	2b00      	cmp	r3, #0
 8002c94:	d101      	bne.n	8002c9a <HAL_UART_Init+0x12>
  {
    return HAL_ERROR;
 8002c96:	2301      	movs	r3, #1
 8002c98:	e042      	b.n	8002d20 <HAL_UART_Init+0x98>
    assert_param(IS_UART_INSTANCE(huart->Instance));
  }
  assert_param(IS_UART_WORD_LENGTH(huart->Init.WordLength));
  assert_param(IS_UART_OVERSAMPLING(huart->Init.OverSampling));

  if (huart->gState == HAL_UART_STATE_RESET)
 8002c9a:	687b      	ldr	r3, [r7, #4]
 8002c9c:	f893 3041 	ldrb.w	r3, [r3, #65]	@ 0x41
 8002ca0:	b2db      	uxtb	r3, r3
 8002ca2:	2b00      	cmp	r3, #0
 8002ca4:	d106      	bne.n	8002cb4 <HAL_UART_Init+0x2c>
  {
    /* Allocate lock resource and initialize it */
    huart->Lock = HAL_UNLOCKED;
 8002ca6:	687b      	ldr	r3, [r7, #4]
 8002ca8:	2200      	movs	r2, #0
 8002caa:	f883 2040 	strb.w	r2, [r3, #64]	@ 0x40

    /* Init the low level hardware */
    huart->MspInitCallback(huart);
#else
    /* Init the low level hardware : GPIO, CLOCK */
    HAL_UART_MspInit(huart);
 8002cae:	6878      	ldr	r0, [r7, #4]
 8002cb0:	f7fd ff72 	bl	8000b98 <HAL_UART_MspInit>
#endif /* (USE_HAL_UART_REGISTER_CALLBACKS) */
  }

  huart->gState = HAL_UART_STATE_BUSY;
 8002cb4:	687b      	ldr	r3, [r7, #4]
 8002cb6:	2224      	movs	r2, #36	@ 0x24
 8002cb8:	f883 2041 	strb.w	r2, [r3, #65]	@ 0x41

  /* Disable the peripheral */
  __HAL_UART_DISABLE(huart);
 8002cbc:	687b      	ldr	r3, [r7, #4]
 8002cbe:	681b      	ldr	r3, [r3, #0]
 8002cc0:	68da      	ldr	r2, [r3, #12]
 8002cc2:	687b      	ldr	r3, [r7, #4]
 8002cc4:	681b      	ldr	r3, [r3, #0]
 8002cc6:	f422 5200 	bic.w	r2, r2, #8192	@ 0x2000
 8002cca:	60da      	str	r2, [r3, #12]

  /* Set the UART Communication parameters */
  UART_SetConfig(huart);
 8002ccc:	6878      	ldr	r0, [r7, #4]
 8002cce:	f000 f82b 	bl	8002d28 <UART_SetConfig>

  /* In asynchronous mode, the following bits must be kept cleared:
     - LINEN and CLKEN bits in the USART_CR2 register,
     - SCEN, HDSEL and IREN  bits in the USART_CR3 register.*/
  CLEAR_BIT(huart->Instance->CR2, (USART_CR2_LINEN | USART_CR2_CLKEN));
 8002cd2:	687b      	ldr	r3, [r7, #4]
 8002cd4:	681b      	ldr	r3, [r3, #0]
 8002cd6:	691a      	ldr	r2, [r3, #16]
 8002cd8:	687b      	ldr	r3, [r7, #4]
 8002cda:	681b      	ldr	r3, [r3, #0]
 8002cdc:	f422 4290 	bic.w	r2, r2, #18432	@ 0x4800
 8002ce0:	611a      	str	r2, [r3, #16]
  CLEAR_BIT(huart->Instance->CR3, (USART_CR3_SCEN | USART_CR3_HDSEL | USART_CR3_IREN));
 8002ce2:	687b      	ldr	r3, [r7, #4]
 8002ce4:	681b      	ldr	r3, [r3, #0]
 8002ce6:	695a      	ldr	r2, [r3, #20]
 8002ce8:	687b      	ldr	r3, [r7, #4]
 8002cea:	681b      	ldr	r3, [r3, #0]
 8002cec:	f022 022a 	bic.w	r2, r2, #42	@ 0x2a
 8002cf0:	615a      	str	r2, [r3, #20]

  /* Enable the peripheral */
  __HAL_UART_ENABLE(huart);
 8002cf2:	687b      	ldr	r3, [r7, #4]
 8002cf4:	681b      	ldr	r3, [r3, #0]
 8002cf6:	68da      	ldr	r2, [r3, #12]
 8002cf8:	687b      	ldr	r3, [r7, #4]
 8002cfa:	681b      	ldr	r3, [r3, #0]
 8002cfc:	f442 5200 	orr.w	r2, r2, #8192	@ 0x2000
 8002d00:	60da      	str	r2, [r3, #12]

  /* Initialize the UART state */
  huart->ErrorCode = HAL_UART_ERROR_NONE;
 8002d02:	687b      	ldr	r3, [r7, #4]
 8002d04:	2200      	movs	r2, #0
 8002d06:	645a      	str	r2, [r3, #68]	@ 0x44
  huart->gState = HAL_UART_STATE_READY;
 8002d08:	687b      	ldr	r3, [r7, #4]
 8002d0a:	2220      	movs	r2, #32
 8002d0c:	f883 2041 	strb.w	r2, [r3, #65]	@ 0x41
  huart->RxState = HAL_UART_STATE_READY;
 8002d10:	687b      	ldr	r3, [r7, #4]
 8002d12:	2220      	movs	r2, #32
 8002d14:	f883 2042 	strb.w	r2, [r3, #66]	@ 0x42
  huart->RxEventType = HAL_UART_RXEVENT_TC;
 8002d18:	687b      	ldr	r3, [r7, #4]
 8002d1a:	2200      	movs	r2, #0
 8002d1c:	635a      	str	r2, [r3, #52]	@ 0x34

  return HAL_OK;
 8002d1e:	2300      	movs	r3, #0
}
 8002d20:	4618      	mov	r0, r3
 8002d22:	3708      	adds	r7, #8
 8002d24:	46bd      	mov	sp, r7
 8002d26:	bd80      	pop	{r7, pc}

08002d28 <UART_SetConfig>:
  * @param  huart  Pointer to a UART_HandleTypeDef structure that contains
  *                the configuration information for the specified UART module.
  * @retval None
  */
static void UART_SetConfig(UART_HandleTypeDef *huart)
{
 8002d28:	e92d 4fb0 	stmdb	sp!, {r4, r5, r7, r8, r9, sl, fp, lr}
 8002d2c:	b0c0      	sub	sp, #256	@ 0x100
 8002d2e:	af00      	add	r7, sp, #0
 8002d30:	f8c7 00f4 	str.w	r0, [r7, #244]	@ 0xf4
  assert_param(IS_UART_MODE(huart->Init.Mode));

  /*-------------------------- USART CR2 Configuration -----------------------*/
  /* Configure the UART Stop Bits: Set STOP[13:12] bits
     according to huart->Init.StopBits value */
  MODIFY_REG(huart->Instance->CR2, USART_CR2_STOP, huart->Init.StopBits);
 8002d34:	f8d7 30f4 	ldr.w	r3, [r7, #244]	@ 0xf4
 8002d38:	681b      	ldr	r3, [r3, #0]
 8002d3a:	691b      	ldr	r3, [r3, #16]
 8002d3c:	f423 5040 	bic.w	r0, r3, #12288	@ 0x3000
 8002d40:	f8d7 30f4 	ldr.w	r3, [r7, #244]	@ 0xf4
 8002d44:	68d9      	ldr	r1, [r3, #12]
 8002d46:	f8d7 30f4 	ldr.w	r3, [r7, #244]	@ 0xf4
 8002d4a:	681a      	ldr	r2, [r3, #0]
 8002d4c:	ea40 0301 	orr.w	r3, r0, r1
 8002d50:	6113      	str	r3, [r2, #16]
     Set the M bits according to huart->Init.WordLength value
     Set PCE and PS bits according to huart->Init.Parity value
     Set TE and RE bits according to huart->Init.Mode value
     Set OVER8 bit according to huart->Init.OverSampling value */

  tmpreg = (uint32_t)huart->Init.WordLength | huart->Init.Parity | huart->Init.Mode | huart->Init.OverSampling;
 8002d52:	f8d7 30f4 	ldr.w	r3, [r7, #244]	@ 0xf4
 8002d56:	689a      	ldr	r2, [r3, #8]
 8002d58:	f8d7 30f4 	ldr.w	r3, [r7, #244]	@ 0xf4
 8002d5c:	691b      	ldr	r3, [r3, #16]
 8002d5e:	431a      	orrs	r2, r3
 8002d60:	f8d7 30f4 	ldr.w	r3, [r7, #244]	@ 0xf4
 8002d64:	695b      	ldr	r3, [r3, #20]
 8002d66:	431a      	orrs	r2, r3
 8002d68:	f8d7 30f4 	ldr.w	r3, [r7, #244]	@ 0xf4
 8002d6c:	69db      	ldr	r3, [r3, #28]
 8002d6e:	4313      	orrs	r3, r2
 8002d70:	f8c7 30f8 	str.w	r3, [r7, #248]	@ 0xf8
  MODIFY_REG(huart->Instance->CR1,
 8002d74:	f8d7 30f4 	ldr.w	r3, [r7, #244]	@ 0xf4
 8002d78:	681b      	ldr	r3, [r3, #0]
 8002d7a:	68db      	ldr	r3, [r3, #12]
 8002d7c:	f423 4116 	bic.w	r1, r3, #38400	@ 0x9600
 8002d80:	f021 010c 	bic.w	r1, r1, #12
 8002d84:	f8d7 30f4 	ldr.w	r3, [r7, #244]	@ 0xf4
 8002d88:	681a      	ldr	r2, [r3, #0]
 8002d8a:	f8d7 30f8 	ldr.w	r3, [r7, #248]	@ 0xf8
 8002d8e:	430b      	orrs	r3, r1
 8002d90:	60d3      	str	r3, [r2, #12]
             (uint32_t)(USART_CR1_M | USART_CR1_PCE | USART_CR1_PS | USART_CR1_TE | USART_CR1_RE | USART_CR1_OVER8),
             tmpreg);

  /*-------------------------- USART CR3 Configuration -----------------------*/
  /* Configure the UART HFC: Set CTSE and RTSE bits according to huart->Init.HwFlowCtl value */
  MODIFY_REG(huart->Instance->CR3, (USART_CR3_RTSE | USART_CR3_CTSE), huart->Init.HwFlowCtl);
 8002d92:	f8d7 30f4 	ldr.w	r3, [r7, #244]	@ 0xf4
 8002d96:	681b      	ldr	r3, [r3, #0]
 8002d98:	695b      	ldr	r3, [r3, #20]
 8002d9a:	f423 7040 	bic.w	r0, r3, #768	@ 0x300
 8002d9e:	f8d7 30f4 	ldr.w	r3, [r7, #244]	@ 0xf4
 8002da2:	6999      	ldr	r1, [r3, #24]
 8002da4:	f8d7 30f4 	ldr.w	r3, [r7, #244]	@ 0xf4
 8002da8:	681a      	ldr	r2, [r3, #0]
 8002daa:	ea40 0301 	orr.w	r3, r0, r1
 8002dae:	6153      	str	r3, [r2, #20]
    if ((huart->Instance == USART1) || (huart->Instance == USART6) || (huart->Instance == UART9) || (huart->Instance == UART10))
    {
      pclk = HAL_RCC_GetPCLK2Freq();
    }
#elif defined(USART6)
    if ((huart->Instance == USART1) || (huart->Instance == USART6))
 8002db0:	f8d7 30f4 	ldr.w	r3, [r7, #244]	@ 0xf4
 8002db4:	681a      	ldr	r2, [r3, #0]
 8002db6:	4b8f      	ldr	r3, [pc, #572]	@ (8002ff4 <UART_SetConfig+0x2cc>)
 8002db8:	429a      	cmp	r2, r3
 8002dba:	d005      	beq.n	8002dc8 <UART_SetConfig+0xa0>
 8002dbc:	f8d7 30f4 	ldr.w	r3, [r7, #244]	@ 0xf4
 8002dc0:	681a      	ldr	r2, [r3, #0]
 8002dc2:	4b8d      	ldr	r3, [pc, #564]	@ (8002ff8 <UART_SetConfig+0x2d0>)
 8002dc4:	429a      	cmp	r2, r3
 8002dc6:	d104      	bne.n	8002dd2 <UART_SetConfig+0xaa>
    {
      pclk = HAL_RCC_GetPCLK2Freq();
 8002dc8:	f7ff f868 	bl	8001e9c <HAL_RCC_GetPCLK2Freq>
 8002dcc:	f8c7 00fc 	str.w	r0, [r7, #252]	@ 0xfc
 8002dd0:	e003      	b.n	8002dda <UART_SetConfig+0xb2>
      pclk = HAL_RCC_GetPCLK2Freq();
    }
#endif /* USART6 */
    else
    {
      pclk = HAL_RCC_GetPCLK1Freq();
 8002dd2:	f7ff f84f 	bl	8001e74 <HAL_RCC_GetPCLK1Freq>
 8002dd6:	f8c7 00fc 	str.w	r0, [r7, #252]	@ 0xfc
    }
  /*-------------------------- USART BRR Configuration ---------------------*/
  if (huart->Init.OverSampling == UART_OVERSAMPLING_8)
 8002dda:	f8d7 30f4 	ldr.w	r3, [r7, #244]	@ 0xf4
 8002dde:	69db      	ldr	r3, [r3, #28]
 8002de0:	f5b3 4f00 	cmp.w	r3, #32768	@ 0x8000
 8002de4:	f040 810c 	bne.w	8003000 <UART_SetConfig+0x2d8>
  {
    huart->Instance->BRR = UART_BRR_SAMPLING8(pclk, huart->Init.BaudRate);
 8002de8:	f8d7 30fc 	ldr.w	r3, [r7, #252]	@ 0xfc
 8002dec:	2200      	movs	r2, #0
 8002dee:	f8c7 30e8 	str.w	r3, [r7, #232]	@ 0xe8
 8002df2:	f8c7 20ec 	str.w	r2, [r7, #236]	@ 0xec
 8002df6:	e9d7 453a 	ldrd	r4, r5, [r7, #232]	@ 0xe8
 8002dfa:	4622      	mov	r2, r4
 8002dfc:	462b      	mov	r3, r5
 8002dfe:	1891      	adds	r1, r2, r2
 8002e00:	65b9      	str	r1, [r7, #88]	@ 0x58
 8002e02:	415b      	adcs	r3, r3
 8002e04:	65fb      	str	r3, [r7, #92]	@ 0x5c
 8002e06:	e9d7 2316 	ldrd	r2, r3, [r7, #88]	@ 0x58
 8002e0a:	4621      	mov	r1, r4
 8002e0c:	eb12 0801 	adds.w	r8, r2, r1
 8002e10:	4629      	mov	r1, r5
 8002e12:	eb43 0901 	adc.w	r9, r3, r1
 8002e16:	f04f 0200 	mov.w	r2, #0
 8002e1a:	f04f 0300 	mov.w	r3, #0
 8002e1e:	ea4f 03c9 	mov.w	r3, r9, lsl #3
 8002e22:	ea43 7358 	orr.w	r3, r3, r8, lsr #29
 8002e26:	ea4f 02c8 	mov.w	r2, r8, lsl #3
 8002e2a:	4690      	mov	r8, r2
 8002e2c:	4699      	mov	r9, r3
 8002e2e:	4623      	mov	r3, r4
 8002e30:	eb18 0303 	adds.w	r3, r8, r3
 8002e34:	f8c7 30e0 	str.w	r3, [r7, #224]	@ 0xe0
 8002e38:	462b      	mov	r3, r5
 8002e3a:	eb49 0303 	adc.w	r3, r9, r3
 8002e3e:	f8c7 30e4 	str.w	r3, [r7, #228]	@ 0xe4
 8002e42:	f8d7 30f4 	ldr.w	r3, [r7, #244]	@ 0xf4
 8002e46:	685b      	ldr	r3, [r3, #4]
 8002e48:	2200      	movs	r2, #0
 8002e4a:	f8c7 30d8 	str.w	r3, [r7, #216]	@ 0xd8
 8002e4e:	f8c7 20dc 	str.w	r2, [r7, #220]	@ 0xdc
 8002e52:	e9d7 1236 	ldrd	r1, r2, [r7, #216]	@ 0xd8
 8002e56:	460b      	mov	r3, r1
 8002e58:	18db      	adds	r3, r3, r3
 8002e5a:	653b      	str	r3, [r7, #80]	@ 0x50
 8002e5c:	4613      	mov	r3, r2
 8002e5e:	eb42 0303 	adc.w	r3, r2, r3
 8002e62:	657b      	str	r3, [r7, #84]	@ 0x54
 8002e64:	e9d7 2314 	ldrd	r2, r3, [r7, #80]	@ 0x50
 8002e68:	e9d7 0138 	ldrd	r0, r1, [r7, #224]	@ 0xe0
 8002e6c:	f7fd f9b4 	bl	80001d8 <__aeabi_uldivmod>
 8002e70:	4602      	mov	r2, r0
 8002e72:	460b      	mov	r3, r1
 8002e74:	4b61      	ldr	r3, [pc, #388]	@ (8002ffc <UART_SetConfig+0x2d4>)
 8002e76:	fba3 2302 	umull	r2, r3, r3, r2
 8002e7a:	095b      	lsrs	r3, r3, #5
 8002e7c:	011c      	lsls	r4, r3, #4
 8002e7e:	f8d7 30fc 	ldr.w	r3, [r7, #252]	@ 0xfc
 8002e82:	2200      	movs	r2, #0
 8002e84:	f8c7 30d0 	str.w	r3, [r7, #208]	@ 0xd0
 8002e88:	f8c7 20d4 	str.w	r2, [r7, #212]	@ 0xd4
 8002e8c:	e9d7 8934 	ldrd	r8, r9, [r7, #208]	@ 0xd0
 8002e90:	4642      	mov	r2, r8
 8002e92:	464b      	mov	r3, r9
 8002e94:	1891      	adds	r1, r2, r2
 8002e96:	64b9      	str	r1, [r7, #72]	@ 0x48
 8002e98:	415b      	adcs	r3, r3
 8002e9a:	64fb      	str	r3, [r7, #76]	@ 0x4c
 8002e9c:	e9d7 2312 	ldrd	r2, r3, [r7, #72]	@ 0x48
 8002ea0:	4641      	mov	r1, r8
 8002ea2:	eb12 0a01 	adds.w	sl, r2, r1
 8002ea6:	4649      	mov	r1, r9
 8002ea8:	eb43 0b01 	adc.w	fp, r3, r1
 8002eac:	f04f 0200 	mov.w	r2, #0
 8002eb0:	f04f 0300 	mov.w	r3, #0
 8002eb4:	ea4f 03cb 	mov.w	r3, fp, lsl #3
 8002eb8:	ea43 735a 	orr.w	r3, r3, sl, lsr #29
 8002ebc:	ea4f 02ca 	mov.w	r2, sl, lsl #3
 8002ec0:	4692      	mov	sl, r2
 8002ec2:	469b      	mov	fp, r3
 8002ec4:	4643      	mov	r3, r8
 8002ec6:	eb1a 0303 	adds.w	r3, sl, r3
 8002eca:	f8c7 30c8 	str.w	r3, [r7, #200]	@ 0xc8
 8002ece:	464b      	mov	r3, r9
 8002ed0:	eb4b 0303 	adc.w	r3, fp, r3
 8002ed4:	f8c7 30cc 	str.w	r3, [r7, #204]	@ 0xcc
 8002ed8:	f8d7 30f4 	ldr.w	r3, [r7, #244]	@ 0xf4
 8002edc:	685b      	ldr	r3, [r3, #4]
 8002ede:	2200      	movs	r2, #0
 8002ee0:	f8c7 30c0 	str.w	r3, [r7, #192]	@ 0xc0
 8002ee4:	f8c7 20c4 	str.w	r2, [r7, #196]	@ 0xc4
 8002ee8:	e9d7 1230 	ldrd	r1, r2, [r7, #192]	@ 0xc0
 8002eec:	460b      	mov	r3, r1
 8002eee:	18db      	adds	r3, r3, r3
 8002ef0:	643b      	str	r3, [r7, #64]	@ 0x40
 8002ef2:	4613      	mov	r3, r2
 8002ef4:	eb42 0303 	adc.w	r3, r2, r3
 8002ef8:	647b      	str	r3, [r7, #68]	@ 0x44
 8002efa:	e9d7 2310 	ldrd	r2, r3, [r7, #64]	@ 0x40
 8002efe:	e9d7 0132 	ldrd	r0, r1, [r7, #200]	@ 0xc8
 8002f02:	f7fd f969 	bl	80001d8 <__aeabi_uldivmod>
 8002f06:	4602      	mov	r2, r0
 8002f08:	460b      	mov	r3, r1
 8002f0a:	4611      	mov	r1, r2
 8002f0c:	4b3b      	ldr	r3, [pc, #236]	@ (8002ffc <UART_SetConfig+0x2d4>)
 8002f0e:	fba3 2301 	umull	r2, r3, r3, r1
 8002f12:	095b      	lsrs	r3, r3, #5
 8002f14:	2264      	movs	r2, #100	@ 0x64
 8002f16:	fb02 f303 	mul.w	r3, r2, r3
 8002f1a:	1acb      	subs	r3, r1, r3
 8002f1c:	00db      	lsls	r3, r3, #3
 8002f1e:	f103 0232 	add.w	r2, r3, #50	@ 0x32
 8002f22:	4b36      	ldr	r3, [pc, #216]	@ (8002ffc <UART_SetConfig+0x2d4>)
 8002f24:	fba3 2302 	umull	r2, r3, r3, r2
 8002f28:	095b      	lsrs	r3, r3, #5
 8002f2a:	005b      	lsls	r3, r3, #1
 8002f2c:	f403 73f8 	and.w	r3, r3, #496	@ 0x1f0
 8002f30:	441c      	add	r4, r3
 8002f32:	f8d7 30fc 	ldr.w	r3, [r7, #252]	@ 0xfc
 8002f36:	2200      	movs	r2, #0
 8002f38:	f8c7 30b8 	str.w	r3, [r7, #184]	@ 0xb8
 8002f3c:	f8c7 20bc 	str.w	r2, [r7, #188]	@ 0xbc
 8002f40:	e9d7 892e 	ldrd	r8, r9, [r7, #184]	@ 0xb8
 8002f44:	4642      	mov	r2, r8
 8002f46:	464b      	mov	r3, r9
 8002f48:	1891      	adds	r1, r2, r2
 8002f4a:	63b9      	str	r1, [r7, #56]	@ 0x38
 8002f4c:	415b      	adcs	r3, r3
 8002f4e:	63fb      	str	r3, [r7, #60]	@ 0x3c
 8002f50:	e9d7 230e 	ldrd	r2, r3, [r7, #56]	@ 0x38
 8002f54:	4641      	mov	r1, r8
 8002f56:	1851      	adds	r1, r2, r1
 8002f58:	6339      	str	r1, [r7, #48]	@ 0x30
 8002f5a:	4649      	mov	r1, r9
 8002f5c:	414b      	adcs	r3, r1
 8002f5e:	637b      	str	r3, [r7, #52]	@ 0x34
 8002f60:	f04f 0200 	mov.w	r2, #0
 8002f64:	f04f 0300 	mov.w	r3, #0
 8002f68:	e9d7 ab0c 	ldrd	sl, fp, [r7, #48]	@ 0x30
 8002f6c:	4659      	mov	r1, fp
 8002f6e:	00cb      	lsls	r3, r1, #3
 8002f70:	4651      	mov	r1, sl
 8002f72:	ea43 7351 	orr.w	r3, r3, r1, lsr #29
 8002f76:	4651      	mov	r1, sl
 8002f78:	00ca      	lsls	r2, r1, #3
 8002f7a:	4610      	mov	r0, r2
 8002f7c:	4619      	mov	r1, r3
 8002f7e:	4603      	mov	r3, r0
 8002f80:	4642      	mov	r2, r8
 8002f82:	189b      	adds	r3, r3, r2
 8002f84:	f8c7 30b0 	str.w	r3, [r7, #176]	@ 0xb0
 8002f88:	464b      	mov	r3, r9
 8002f8a:	460a      	mov	r2, r1
 8002f8c:	eb42 0303 	adc.w	r3, r2, r3
 8002f90:	f8c7 30b4 	str.w	r3, [r7, #180]	@ 0xb4
 8002f94:	f8d7 30f4 	ldr.w	r3, [r7, #244]	@ 0xf4
 8002f98:	685b      	ldr	r3, [r3, #4]
 8002f9a:	2200      	movs	r2, #0
 8002f9c:	f8c7 30a8 	str.w	r3, [r7, #168]	@ 0xa8
 8002fa0:	f8c7 20ac 	str.w	r2, [r7, #172]	@ 0xac
 8002fa4:	e9d7 122a 	ldrd	r1, r2, [r7, #168]	@ 0xa8
 8002fa8:	460b      	mov	r3, r1
 8002faa:	18db      	adds	r3, r3, r3
 8002fac:	62bb      	str	r3, [r7, #40]	@ 0x28
 8002fae:	4613      	mov	r3, r2
 8002fb0:	eb42 0303 	adc.w	r3, r2, r3
 8002fb4:	62fb      	str	r3, [r7, #44]	@ 0x2c
 8002fb6:	e9d7 230a 	ldrd	r2, r3, [r7, #40]	@ 0x28
 8002fba:	e9d7 012c 	ldrd	r0, r1, [r7, #176]	@ 0xb0
 8002fbe:	f7fd f90b 	bl	80001d8 <__aeabi_uldivmod>
 8002fc2:	4602      	mov	r2, r0
 8002fc4:	460b      	mov	r3, r1
 8002fc6:	4b0d      	ldr	r3, [pc, #52]	@ (8002ffc <UART_SetConfig+0x2d4>)
 8002fc8:	fba3 1302 	umull	r1, r3, r3, r2
 8002fcc:	095b      	lsrs	r3, r3, #5
 8002fce:	2164      	movs	r1, #100	@ 0x64
 8002fd0:	fb01 f303 	mul.w	r3, r1, r3
 8002fd4:	1ad3      	subs	r3, r2, r3
 8002fd6:	00db      	lsls	r3, r3, #3
 8002fd8:	3332      	adds	r3, #50	@ 0x32
 8002fda:	4a08      	ldr	r2, [pc, #32]	@ (8002ffc <UART_SetConfig+0x2d4>)
 8002fdc:	fba2 2303 	umull	r2, r3, r2, r3
 8002fe0:	095b      	lsrs	r3, r3, #5
 8002fe2:	f003 0207 	and.w	r2, r3, #7
 8002fe6:	f8d7 30f4 	ldr.w	r3, [r7, #244]	@ 0xf4
 8002fea:	681b      	ldr	r3, [r3, #0]
 8002fec:	4422      	add	r2, r4
 8002fee:	609a      	str	r2, [r3, #8]
  }
  else
  {
    huart->Instance->BRR = UART_BRR_SAMPLING16(pclk, huart->Init.BaudRate);
  }
}
 8002ff0:	e106      	b.n	8003200 <UART_SetConfig+0x4d8>
 8002ff2:	bf00      	nop
 8002ff4:	40011000 	.word	0x40011000
 8002ff8:	40011400 	.word	0x40011400
 8002ffc:	51eb851f 	.word	0x51eb851f
    huart->Instance->BRR = UART_BRR_SAMPLING16(pclk, huart->Init.BaudRate);
 8003000:	f8d7 30fc 	ldr.w	r3, [r7, #252]	@ 0xfc
 8003004:	2200      	movs	r2, #0
 8003006:	f8c7 30a0 	str.w	r3, [r7, #160]	@ 0xa0
 800300a:	f8c7 20a4 	str.w	r2, [r7, #164]	@ 0xa4
 800300e:	e9d7 8928 	ldrd	r8, r9, [r7, #160]	@ 0xa0
 8003012:	4642      	mov	r2, r8
 8003014:	464b      	mov	r3, r9
 8003016:	1891      	adds	r1, r2, r2
 8003018:	6239      	str	r1, [r7, #32]
 800301a:	415b      	adcs	r3, r3
 800301c:	627b      	str	r3, [r7, #36]	@ 0x24
 800301e:	e9d7 2308 	ldrd	r2, r3, [r7, #32]
 8003022:	4641      	mov	r1, r8
 8003024:	1854      	adds	r4, r2, r1
 8003026:	4649      	mov	r1, r9
 8003028:	eb43 0501 	adc.w	r5, r3, r1
 800302c:	f04f 0200 	mov.w	r2, #0
 8003030:	f04f 0300 	mov.w	r3, #0
 8003034:	00eb      	lsls	r3, r5, #3
 8003036:	ea43 7354 	orr.w	r3, r3, r4, lsr #29
 800303a:	00e2      	lsls	r2, r4, #3
 800303c:	4614      	mov	r4, r2
 800303e:	461d      	mov	r5, r3
 8003040:	4643      	mov	r3, r8
 8003042:	18e3      	adds	r3, r4, r3
 8003044:	f8c7 3098 	str.w	r3, [r7, #152]	@ 0x98
 8003048:	464b      	mov	r3, r9
 800304a:	eb45 0303 	adc.w	r3, r5, r3
 800304e:	f8c7 309c 	str.w	r3, [r7, #156]	@ 0x9c
 8003052:	f8d7 30f4 	ldr.w	r3, [r7, #244]	@ 0xf4
 8003056:	685b      	ldr	r3, [r3, #4]
 8003058:	2200      	movs	r2, #0
 800305a:	f8c7 3090 	str.w	r3, [r7, #144]	@ 0x90
 800305e:	f8c7 2094 	str.w	r2, [r7, #148]	@ 0x94
 8003062:	f04f 0200 	mov.w	r2, #0
 8003066:	f04f 0300 	mov.w	r3, #0
 800306a:	e9d7 4524 	ldrd	r4, r5, [r7, #144]	@ 0x90
 800306e:	4629      	mov	r1, r5
 8003070:	008b      	lsls	r3, r1, #2
 8003072:	4621      	mov	r1, r4
 8003074:	ea43 7391 	orr.w	r3, r3, r1, lsr #30
 8003078:	4621      	mov	r1, r4
 800307a:	008a      	lsls	r2, r1, #2
 800307c:	e9d7 0126 	ldrd	r0, r1, [r7, #152]	@ 0x98
 8003080:	f7fd f8aa 	bl	80001d8 <__aeabi_uldivmod>
 8003084:	4602      	mov	r2, r0
 8003086:	460b      	mov	r3, r1
 8003088:	4b60      	ldr	r3, [pc, #384]	@ (800320c <UART_SetConfig+0x4e4>)
 800308a:	fba3 2302 	umull	r2, r3, r3, r2
 800308e:	095b      	lsrs	r3, r3, #5
 8003090:	011c      	lsls	r4, r3, #4
 8003092:	f8d7 30fc 	ldr.w	r3, [r7, #252]	@ 0xfc
 8003096:	2200      	movs	r2, #0
 8003098:	f8c7 3088 	str.w	r3, [r7, #136]	@ 0x88
 800309c:	f8c7 208c 	str.w	r2, [r7, #140]	@ 0x8c
 80030a0:	e9d7 8922 	ldrd	r8, r9, [r7, #136]	@ 0x88
 80030a4:	4642      	mov	r2, r8
 80030a6:	464b      	mov	r3, r9
 80030a8:	1891      	adds	r1, r2, r2
 80030aa:	61b9      	str	r1, [r7, #24]
 80030ac:	415b      	adcs	r3, r3
 80030ae:	61fb      	str	r3, [r7, #28]
 80030b0:	e9d7 2306 	ldrd	r2, r3, [r7, #24]
 80030b4:	4641      	mov	r1, r8
 80030b6:	1851      	adds	r1, r2, r1
 80030b8:	6139      	str	r1, [r7, #16]
 80030ba:	4649      	mov	r1, r9
 80030bc:	414b      	adcs	r3, r1
 80030be:	617b      	str	r3, [r7, #20]
 80030c0:	f04f 0200 	mov.w	r2, #0
 80030c4:	f04f 0300 	mov.w	r3, #0
 80030c8:	e9d7 ab04 	ldrd	sl, fp, [r7, #16]
 80030cc:	4659      	mov	r1, fp
 80030ce:	00cb      	lsls	r3, r1, #3
 80030d0:	4651      	mov	r1, sl
 80030d2:	ea43 7351 	orr.w	r3, r3, r1, lsr #29
 80030d6:	4651      	mov	r1, sl
 80030d8:	00ca      	lsls	r2, r1, #3
 80030da:	4610      	mov	r0, r2
 80030dc:	4619      	mov	r1, r3
 80030de:	4603      	mov	r3, r0
 80030e0:	4642      	mov	r2, r8
 80030e2:	189b      	adds	r3, r3, r2
 80030e4:	f8c7 3080 	str.w	r3, [r7, #128]	@ 0x80
 80030e8:	464b      	mov	r3, r9
 80030ea:	460a      	mov	r2, r1
 80030ec:	eb42 0303 	adc.w	r3, r2, r3
 80030f0:	f8c7 3084 	str.w	r3, [r7, #132]	@ 0x84
 80030f4:	f8d7 30f4 	ldr.w	r3, [r7, #244]	@ 0xf4
 80030f8:	685b      	ldr	r3, [r3, #4]
 80030fa:	2200      	movs	r2, #0
 80030fc:	67bb      	str	r3, [r7, #120]	@ 0x78
 80030fe:	67fa      	str	r2, [r7, #124]	@ 0x7c
 8003100:	f04f 0200 	mov.w	r2, #0
 8003104:	f04f 0300 	mov.w	r3, #0
 8003108:	e9d7 891e 	ldrd	r8, r9, [r7, #120]	@ 0x78
 800310c:	4649      	mov	r1, r9
 800310e:	008b      	lsls	r3, r1, #2
 8003110:	4641      	mov	r1, r8
 8003112:	ea43 7391 	orr.w	r3, r3, r1, lsr #30
 8003116:	4641      	mov	r1, r8
 8003118:	008a      	lsls	r2, r1, #2
 800311a:	e9d7 0120 	ldrd	r0, r1, [r7, #128]	@ 0x80
 800311e:	f7fd f85b 	bl	80001d8 <__aeabi_uldivmod>
 8003122:	4602      	mov	r2, r0
 8003124:	460b      	mov	r3, r1
 8003126:	4611      	mov	r1, r2
 8003128:	4b38      	ldr	r3, [pc, #224]	@ (800320c <UART_SetConfig+0x4e4>)
 800312a:	fba3 2301 	umull	r2, r3, r3, r1
 800312e:	095b      	lsrs	r3, r3, #5
 8003130:	2264      	movs	r2, #100	@ 0x64
 8003132:	fb02 f303 	mul.w	r3, r2, r3
 8003136:	1acb      	subs	r3, r1, r3
 8003138:	011b      	lsls	r3, r3, #4
 800313a:	3332      	adds	r3, #50	@ 0x32
 800313c:	4a33      	ldr	r2, [pc, #204]	@ (800320c <UART_SetConfig+0x4e4>)
 800313e:	fba2 2303 	umull	r2, r3, r2, r3
 8003142:	095b      	lsrs	r3, r3, #5
 8003144:	f003 03f0 	and.w	r3, r3, #240	@ 0xf0
 8003148:	441c      	add	r4, r3
 800314a:	f8d7 30fc 	ldr.w	r3, [r7, #252]	@ 0xfc
 800314e:	2200      	movs	r2, #0
 8003150:	673b      	str	r3, [r7, #112]	@ 0x70
 8003152:	677a      	str	r2, [r7, #116]	@ 0x74
 8003154:	e9d7 891c 	ldrd	r8, r9, [r7, #112]	@ 0x70
 8003158:	4642      	mov	r2, r8
 800315a:	464b      	mov	r3, r9
 800315c:	1891      	adds	r1, r2, r2
 800315e:	60b9      	str	r1, [r7, #8]
 8003160:	415b      	adcs	r3, r3
 8003162:	60fb      	str	r3, [r7, #12]
 8003164:	e9d7 2302 	ldrd	r2, r3, [r7, #8]
 8003168:	4641      	mov	r1, r8
 800316a:	1851      	adds	r1, r2, r1
 800316c:	6039      	str	r1, [r7, #0]
 800316e:	4649      	mov	r1, r9
 8003170:	414b      	adcs	r3, r1
 8003172:	607b      	str	r3, [r7, #4]
 8003174:	f04f 0200 	mov.w	r2, #0
 8003178:	f04f 0300 	mov.w	r3, #0
 800317c:	e9d7 ab00 	ldrd	sl, fp, [r7]
 8003180:	4659      	mov	r1, fp
 8003182:	00cb      	lsls	r3, r1, #3
 8003184:	4651      	mov	r1, sl
 8003186:	ea43 7351 	orr.w	r3, r3, r1, lsr #29
 800318a:	4651      	mov	r1, sl
 800318c:	00ca      	lsls	r2, r1, #3
 800318e:	4610      	mov	r0, r2
 8003190:	4619      	mov	r1, r3
 8003192:	4603      	mov	r3, r0
 8003194:	4642      	mov	r2, r8
 8003196:	189b      	adds	r3, r3, r2
 8003198:	66bb      	str	r3, [r7, #104]	@ 0x68
 800319a:	464b      	mov	r3, r9
 800319c:	460a      	mov	r2, r1
 800319e:	eb42 0303 	adc.w	r3, r2, r3
 80031a2:	66fb      	str	r3, [r7, #108]	@ 0x6c
 80031a4:	f8d7 30f4 	ldr.w	r3, [r7, #244]	@ 0xf4
 80031a8:	685b      	ldr	r3, [r3, #4]
 80031aa:	2200      	movs	r2, #0
 80031ac:	663b      	str	r3, [r7, #96]	@ 0x60
 80031ae:	667a      	str	r2, [r7, #100]	@ 0x64
 80031b0:	f04f 0200 	mov.w	r2, #0
 80031b4:	f04f 0300 	mov.w	r3, #0
 80031b8:	e9d7 8918 	ldrd	r8, r9, [r7, #96]	@ 0x60
 80031bc:	4649      	mov	r1, r9
 80031be:	008b      	lsls	r3, r1, #2
 80031c0:	4641      	mov	r1, r8
 80031c2:	ea43 7391 	orr.w	r3, r3, r1, lsr #30
 80031c6:	4641      	mov	r1, r8
 80031c8:	008a      	lsls	r2, r1, #2
 80031ca:	e9d7 011a 	ldrd	r0, r1, [r7, #104]	@ 0x68
 80031ce:	f7fd f803 	bl	80001d8 <__aeabi_uldivmod>
 80031d2:	4602      	mov	r2, r0
 80031d4:	460b      	mov	r3, r1
 80031d6:	4b0d      	ldr	r3, [pc, #52]	@ (800320c <UART_SetConfig+0x4e4>)
 80031d8:	fba3 1302 	umull	r1, r3, r3, r2
 80031dc:	095b      	lsrs	r3, r3, #5
 80031de:	2164      	movs	r1, #100	@ 0x64
 80031e0:	fb01 f303 	mul.w	r3, r1, r3
 80031e4:	1ad3      	subs	r3, r2, r3
 80031e6:	011b      	lsls	r3, r3, #4
 80031e8:	3332      	adds	r3, #50	@ 0x32
 80031ea:	4a08      	ldr	r2, [pc, #32]	@ (800320c <UART_SetConfig+0x4e4>)
 80031ec:	fba2 2303 	umull	r2, r3, r2, r3
 80031f0:	095b      	lsrs	r3, r3, #5
 80031f2:	f003 020f 	and.w	r2, r3, #15
 80031f6:	f8d7 30f4 	ldr.w	r3, [r7, #244]	@ 0xf4
 80031fa:	681b      	ldr	r3, [r3, #0]
 80031fc:	4422      	add	r2, r4
 80031fe:	609a      	str	r2, [r3, #8]
}
 8003200:	bf00      	nop
 8003202:	f507 7780 	add.w	r7, r7, #256	@ 0x100
 8003206:	46bd      	mov	sp, r7
 8003208:	e8bd 8fb0 	ldmia.w	sp!, {r4, r5, r7, r8, r9, sl, fp, pc}
 800320c:	51eb851f 	.word	0x51eb851f

08003210 <memset>:
 8003210:	4402      	add	r2, r0
 8003212:	4603      	mov	r3, r0
 8003214:	4293      	cmp	r3, r2
 8003216:	d100      	bne.n	800321a <memset+0xa>
 8003218:	4770      	bx	lr
 800321a:	f803 1b01 	strb.w	r1, [r3], #1
 800321e:	e7f9      	b.n	8003214 <memset+0x4>

08003220 <__libc_init_array>:
 8003220:	b570      	push	{r4, r5, r6, lr}
 8003222:	4d0d      	ldr	r5, [pc, #52]	@ (8003258 <__libc_init_array+0x38>)
 8003224:	4c0d      	ldr	r4, [pc, #52]	@ (800325c <__libc_init_array+0x3c>)
 8003226:	1b64      	subs	r4, r4, r5
 8003228:	10a4      	asrs	r4, r4, #2
 800322a:	2600      	movs	r6, #0
 800322c:	42a6      	cmp	r6, r4
 800322e:	d109      	bne.n	8003244 <__libc_init_array+0x24>
 8003230:	4d0b      	ldr	r5, [pc, #44]	@ (8003260 <__libc_init_array+0x40>)
 8003232:	4c0c      	ldr	r4, [pc, #48]	@ (8003264 <__libc_init_array+0x44>)
 8003234:	f000 f818 	bl	8003268 <_init>
 8003238:	1b64      	subs	r4, r4, r5
 800323a:	10a4      	asrs	r4, r4, #2
 800323c:	2600      	movs	r6, #0
 800323e:	42a6      	cmp	r6, r4
 8003240:	d105      	bne.n	800324e <__libc_init_array+0x2e>
 8003242:	bd70      	pop	{r4, r5, r6, pc}
 8003244:	f855 3b04 	ldr.w	r3, [r5], #4
 8003248:	4798      	blx	r3
 800324a:	3601      	adds	r6, #1
 800324c:	e7ee      	b.n	800322c <__libc_init_array+0xc>
 800324e:	f855 3b04 	ldr.w	r3, [r5], #4
 8003252:	4798      	blx	r3
 8003254:	3601      	adds	r6, #1
 8003256:	e7f2      	b.n	800323e <__libc_init_array+0x1e>
 8003258:	080032a0 	.word	0x080032a0
 800325c:	080032a0 	.word	0x080032a0
 8003260:	080032a0 	.word	0x080032a0
 8003264:	080032a4 	.word	0x080032a4

08003268 <_init>:
 8003268:	b5f8      	push	{r3, r4, r5, r6, r7, lr}
 800326a:	bf00      	nop
 800326c:	bcf8      	pop	{r3, r4, r5, r6, r7}
 800326e:	bc08      	pop	{r3}
 8003270:	469e      	mov	lr, r3
 8003272:	4770      	bx	lr

08003274 <_fini>:
 8003274:	b5f8      	push	{r3, r4, r5, r6, r7, lr}
 8003276:	bf00      	nop
 8003278:	bcf8      	pop	{r3, r4, r5, r6, r7}
 800327a:	bc08      	pop	{r3}
 800327c:	469e      	mov	lr, r3
 800327e:	4770      	bx	lr
