
hackhathon.elf:     file format elf32-littlearm

Sections:
Idx Name          Size      VMA       LMA       File off  Algn
  0 .isr_vector   00000198  08000000  08000000  00001000  2**0
                  CONTENTS, ALLOC, LOAD, READONLY, DATA
  1 .text         00003b44  080001a0  080001a0  000011a0  2**4
                  CONTENTS, ALLOC, LOAD, READONLY, CODE
  2 .rodata       00000060  08003ce4  08003ce4  00004ce4  2**2
                  CONTENTS, ALLOC, LOAD, READONLY, DATA
  3 .ARM.extab    00000000  08003d44  08003d44  0000505c  2**0
                  CONTENTS
  4 .ARM          00000008  08003d44  08003d44  00004d44  2**2
                  CONTENTS, ALLOC, LOAD, READONLY, DATA
  5 .preinit_array 00000000  08003d4c  08003d4c  0000505c  2**0
                  CONTENTS, ALLOC, LOAD, DATA
  6 .init_array   00000004  08003d4c  08003d4c  00004d4c  2**2
                  CONTENTS, ALLOC, LOAD, READONLY, DATA
  7 .fini_array   00000004  08003d50  08003d50  00004d50  2**2
                  CONTENTS, ALLOC, LOAD, READONLY, DATA
  8 .data         0000005c  20000000  08003d54  00005000  2**2
                  CONTENTS, ALLOC, LOAD, DATA
  9 .bss          00000210  2000005c  08003db0  0000505c  2**2
                  ALLOC
 10 ._user_heap_stack 00000604  2000026c  08003db0  0000526c  2**0
                  ALLOC
 11 .ARM.attributes 00000030  00000000  00000000  0000505c  2**0
                  CONTENTS, READONLY
 12 .debug_info   00009db0  00000000  00000000  0000508c  2**0
                  CONTENTS, READONLY, DEBUGGING, OCTETS
 13 .debug_abbrev 0000169a  00000000  00000000  0000ee3c  2**0
                  CONTENTS, READONLY, DEBUGGING, OCTETS
 14 .debug_aranges 00000910  00000000  00000000  000104d8  2**3
                  CONTENTS, READONLY, DEBUGGING, OCTETS
 15 .debug_rnglists 0000071d  00000000  00000000  00010de8  2**0
                  CONTENTS, READONLY, DEBUGGING, OCTETS
 16 .debug_macro  00015ca2  00000000  00000000  00011505  2**0
                  CONTENTS, READONLY, DEBUGGING, OCTETS
 17 .debug_line   0000c4b0  00000000  00000000  000271a7  2**0
                  CONTENTS, READONLY, DEBUGGING, OCTETS
 18 .debug_str    0008860c  00000000  00000000  00033657  2**0
                  CONTENTS, READONLY, DEBUGGING, OCTETS
 19 .comment      00000043  00000000  00000000  000bbc63  2**0
                  CONTENTS, READONLY
 20 .debug_frame  00002ac0  00000000  00000000  000bbca8  2**2
                  CONTENTS, READONLY, DEBUGGING, OCTETS
 21 .debug_line_str 00000067  00000000  00000000  000be768  2**0
                  CONTENTS, READONLY, DEBUGGING, OCTETS

Disassembly of section .text:

080001a0 <__do_global_dtors_aux>:
 80001a0:	b510      	push	{r4, lr}
 80001a2:	4c05      	ldr	r4, [pc, #20]	@ (80001b8 <__do_global_dtors_aux+0x18>)
 80001a4:	7823      	ldrb	r3, [r4, #0]
 80001a6:	b933      	cbnz	r3, 80001b6 <__do_global_dtors_aux+0x16>
 80001a8:	4b04      	ldr	r3, [pc, #16]	@ (80001bc <__do_global_dtors_aux+0x1c>)
 80001aa:	b113      	cbz	r3, 80001b2 <__do_global_dtors_aux+0x12>
 80001ac:	4804      	ldr	r0, [pc, #16]	@ (80001c0 <__do_global_dtors_aux+0x20>)
 80001ae:	f3af 8000 	nop.w
 80001b2:	2301      	movs	r3, #1
 80001b4:	7023      	strb	r3, [r4, #0]
 80001b6:	bd10      	pop	{r4, pc}
 80001b8:	2000005c 	.word	0x2000005c
 80001bc:	00000000 	.word	0x00000000
 80001c0:	08003ccc 	.word	0x08003ccc

080001c4 <frame_dummy>:
 80001c4:	b508      	push	{r3, lr}
 80001c6:	4b03      	ldr	r3, [pc, #12]	@ (80001d4 <frame_dummy+0x10>)
 80001c8:	b11b      	cbz	r3, 80001d2 <frame_dummy+0xe>
 80001ca:	4903      	ldr	r1, [pc, #12]	@ (80001d8 <frame_dummy+0x14>)
 80001cc:	4803      	ldr	r0, [pc, #12]	@ (80001dc <frame_dummy+0x18>)
 80001ce:	f3af 8000 	nop.w
 80001d2:	bd08      	pop	{r3, pc}
 80001d4:	00000000 	.word	0x00000000
 80001d8:	20000060 	.word	0x20000060
 80001dc:	08003ccc 	.word	0x08003ccc

080001e0 <memchr>:
 80001e0:	f001 01ff 	and.w	r1, r1, #255	@ 0xff
 80001e4:	2a10      	cmp	r2, #16
 80001e6:	db2b      	blt.n	8000240 <memchr+0x60>
 80001e8:	f010 0f07 	tst.w	r0, #7
 80001ec:	d008      	beq.n	8000200 <memchr+0x20>
 80001ee:	f810 3b01 	ldrb.w	r3, [r0], #1
 80001f2:	3a01      	subs	r2, #1
 80001f4:	428b      	cmp	r3, r1
 80001f6:	d02d      	beq.n	8000254 <memchr+0x74>
 80001f8:	f010 0f07 	tst.w	r0, #7
 80001fc:	b342      	cbz	r2, 8000250 <memchr+0x70>
 80001fe:	d1f6      	bne.n	80001ee <memchr+0xe>
 8000200:	b4f0      	push	{r4, r5, r6, r7}
 8000202:	ea41 2101 	orr.w	r1, r1, r1, lsl #8
 8000206:	ea41 4101 	orr.w	r1, r1, r1, lsl #16
 800020a:	f022 0407 	bic.w	r4, r2, #7
 800020e:	f07f 0700 	mvns.w	r7, #0
 8000212:	2300      	movs	r3, #0
 8000214:	e8f0 5602 	ldrd	r5, r6, [r0], #8
 8000218:	3c08      	subs	r4, #8
 800021a:	ea85 0501 	eor.w	r5, r5, r1
 800021e:	ea86 0601 	eor.w	r6, r6, r1
 8000222:	fa85 f547 	uadd8	r5, r5, r7
 8000226:	faa3 f587 	sel	r5, r3, r7
 800022a:	fa86 f647 	uadd8	r6, r6, r7
 800022e:	faa5 f687 	sel	r6, r5, r7
 8000232:	b98e      	cbnz	r6, 8000258 <memchr+0x78>
 8000234:	d1ee      	bne.n	8000214 <memchr+0x34>
 8000236:	bcf0      	pop	{r4, r5, r6, r7}
 8000238:	f001 01ff 	and.w	r1, r1, #255	@ 0xff
 800023c:	f002 0207 	and.w	r2, r2, #7
 8000240:	b132      	cbz	r2, 8000250 <memchr+0x70>
 8000242:	f810 3b01 	ldrb.w	r3, [r0], #1
 8000246:	3a01      	subs	r2, #1
 8000248:	ea83 0301 	eor.w	r3, r3, r1
 800024c:	b113      	cbz	r3, 8000254 <memchr+0x74>
 800024e:	d1f8      	bne.n	8000242 <memchr+0x62>
 8000250:	2000      	movs	r0, #0
 8000252:	4770      	bx	lr
 8000254:	3801      	subs	r0, #1
 8000256:	4770      	bx	lr
 8000258:	2d00      	cmp	r5, #0
 800025a:	bf06      	itte	eq
 800025c:	4635      	moveq	r5, r6
 800025e:	3803      	subeq	r0, #3
 8000260:	3807      	subne	r0, #7
 8000262:	f015 0f01 	tst.w	r5, #1
 8000266:	d107      	bne.n	8000278 <memchr+0x98>
 8000268:	3001      	adds	r0, #1
 800026a:	f415 7f80 	tst.w	r5, #256	@ 0x100
 800026e:	bf02      	ittt	eq
 8000270:	3001      	addeq	r0, #1
 8000272:	f415 3fc0 	tsteq.w	r5, #98304	@ 0x18000
 8000276:	3001      	addeq	r0, #1
 8000278:	bcf0      	pop	{r4, r5, r6, r7}
 800027a:	3801      	subs	r0, #1
 800027c:	4770      	bx	lr
 800027e:	bf00      	nop

08000280 <__aeabi_uldivmod>:
 8000280:	b953      	cbnz	r3, 8000298 <__aeabi_uldivmod+0x18>
 8000282:	b94a      	cbnz	r2, 8000298 <__aeabi_uldivmod+0x18>
 8000284:	2900      	cmp	r1, #0
 8000286:	bf08      	it	eq
 8000288:	2800      	cmpeq	r0, #0
 800028a:	bf1c      	itt	ne
 800028c:	f04f 31ff 	movne.w	r1, #4294967295
 8000290:	f04f 30ff 	movne.w	r0, #4294967295
 8000294:	f000 b96a 	b.w	800056c <__aeabi_idiv0>
 8000298:	f1ad 0c08 	sub.w	ip, sp, #8
 800029c:	e96d ce04 	strd	ip, lr, [sp, #-16]!
 80002a0:	f000 f806 	bl	80002b0 <__udivmoddi4>
 80002a4:	f8dd e004 	ldr.w	lr, [sp, #4]
 80002a8:	e9dd 2302 	ldrd	r2, r3, [sp, #8]
 80002ac:	b004      	add	sp, #16
 80002ae:	4770      	bx	lr

080002b0 <__udivmoddi4>:
 80002b0:	e92d 47f0 	stmdb	sp!, {r4, r5, r6, r7, r8, r9, sl, lr}
 80002b4:	9d08      	ldr	r5, [sp, #32]
 80002b6:	460c      	mov	r4, r1
 80002b8:	2b00      	cmp	r3, #0
 80002ba:	d14e      	bne.n	800035a <__udivmoddi4+0xaa>
 80002bc:	4694      	mov	ip, r2
 80002be:	458c      	cmp	ip, r1
 80002c0:	4686      	mov	lr, r0
 80002c2:	fab2 f282 	clz	r2, r2
 80002c6:	d962      	bls.n	800038e <__udivmoddi4+0xde>
 80002c8:	b14a      	cbz	r2, 80002de <__udivmoddi4+0x2e>
 80002ca:	f1c2 0320 	rsb	r3, r2, #32
 80002ce:	4091      	lsls	r1, r2
 80002d0:	fa20 f303 	lsr.w	r3, r0, r3
 80002d4:	fa0c fc02 	lsl.w	ip, ip, r2
 80002d8:	4319      	orrs	r1, r3
 80002da:	fa00 fe02 	lsl.w	lr, r0, r2
 80002de:	ea4f 471c 	mov.w	r7, ip, lsr #16
 80002e2:	fa1f f68c 	uxth.w	r6, ip
 80002e6:	fbb1 f4f7 	udiv	r4, r1, r7
 80002ea:	ea4f 431e 	mov.w	r3, lr, lsr #16
 80002ee:	fb07 1114 	mls	r1, r7, r4, r1
 80002f2:	ea43 4301 	orr.w	r3, r3, r1, lsl #16
 80002f6:	fb04 f106 	mul.w	r1, r4, r6
 80002fa:	4299      	cmp	r1, r3
 80002fc:	d90a      	bls.n	8000314 <__udivmoddi4+0x64>
 80002fe:	eb1c 0303 	adds.w	r3, ip, r3
 8000302:	f104 30ff 	add.w	r0, r4, #4294967295
 8000306:	f080 8112 	bcs.w	800052e <__udivmoddi4+0x27e>
 800030a:	4299      	cmp	r1, r3
 800030c:	f240 810f 	bls.w	800052e <__udivmoddi4+0x27e>
 8000310:	3c02      	subs	r4, #2
 8000312:	4463      	add	r3, ip
 8000314:	1a59      	subs	r1, r3, r1
 8000316:	fa1f f38e 	uxth.w	r3, lr
 800031a:	fbb1 f0f7 	udiv	r0, r1, r7
 800031e:	fb07 1110 	mls	r1, r7, r0, r1
 8000322:	ea43 4301 	orr.w	r3, r3, r1, lsl #16
 8000326:	fb00 f606 	mul.w	r6, r0, r6
 800032a:	429e      	cmp	r6, r3
 800032c:	d90a      	bls.n	8000344 <__udivmoddi4+0x94>
 800032e:	eb1c 0303 	adds.w	r3, ip, r3
 8000332:	f100 31ff 	add.w	r1, r0, #4294967295
 8000336:	f080 80fc 	bcs.w	8000532 <__udivmoddi4+0x282>
 800033a:	429e      	cmp	r6, r3
 800033c:	f240 80f9 	bls.w	8000532 <__udivmoddi4+0x282>
 8000340:	4463      	add	r3, ip
 8000342:	3802      	subs	r0, #2
 8000344:	1b9b      	subs	r3, r3, r6
 8000346:	ea40 4004 	orr.w	r0, r0, r4, lsl #16
 800034a:	2100      	movs	r1, #0
 800034c:	b11d      	cbz	r5, 8000356 <__udivmoddi4+0xa6>
 800034e:	40d3      	lsrs	r3, r2
 8000350:	2200      	movs	r2, #0
 8000352:	e9c5 3200 	strd	r3, r2, [r5]
 8000356:	e8bd 87f0 	ldmia.w	sp!, {r4, r5, r6, r7, r8, r9, sl, pc}
 800035a:	428b      	cmp	r3, r1
 800035c:	d905      	bls.n	800036a <__udivmoddi4+0xba>
 800035e:	b10d      	cbz	r5, 8000364 <__udivmoddi4+0xb4>
 8000360:	e9c5 0100 	strd	r0, r1, [r5]
 8000364:	2100      	movs	r1, #0
 8000366:	4608      	mov	r0, r1
 8000368:	e7f5      	b.n	8000356 <__udivmoddi4+0xa6>
 800036a:	fab3 f183 	clz	r1, r3
 800036e:	2900      	cmp	r1, #0
 8000370:	d146      	bne.n	8000400 <__udivmoddi4+0x150>
 8000372:	42a3      	cmp	r3, r4
 8000374:	d302      	bcc.n	800037c <__udivmoddi4+0xcc>
 8000376:	4290      	cmp	r0, r2
 8000378:	f0c0 80f0 	bcc.w	800055c <__udivmoddi4+0x2ac>
 800037c:	1a86      	subs	r6, r0, r2
 800037e:	eb64 0303 	sbc.w	r3, r4, r3
 8000382:	2001      	movs	r0, #1
 8000384:	2d00      	cmp	r5, #0
 8000386:	d0e6      	beq.n	8000356 <__udivmoddi4+0xa6>
 8000388:	e9c5 6300 	strd	r6, r3, [r5]
 800038c:	e7e3      	b.n	8000356 <__udivmoddi4+0xa6>
 800038e:	2a00      	cmp	r2, #0
 8000390:	f040 8090 	bne.w	80004b4 <__udivmoddi4+0x204>
 8000394:	eba1 040c 	sub.w	r4, r1, ip
 8000398:	ea4f 481c 	mov.w	r8, ip, lsr #16
 800039c:	fa1f f78c 	uxth.w	r7, ip
 80003a0:	2101      	movs	r1, #1
 80003a2:	fbb4 f6f8 	udiv	r6, r4, r8
 80003a6:	ea4f 431e 	mov.w	r3, lr, lsr #16
 80003aa:	fb08 4416 	mls	r4, r8, r6, r4
 80003ae:	ea43 4304 	orr.w	r3, r3, r4, lsl #16
 80003b2:	fb07 f006 	mul.w	r0, r7, r6
 80003b6:	4298      	cmp	r0, r3
 80003b8:	d908      	bls.n	80003cc <__udivmoddi4+0x11c>
 80003ba:	eb1c 0303 	adds.w	r3, ip, r3
 80003be:	f106 34ff 	add.w	r4, r6, #4294967295
 80003c2:	d202      	bcs.n	80003ca <__udivmoddi4+0x11a>
 80003c4:	4298      	cmp	r0, r3
 80003c6:	f200 80cd 	bhi.w	8000564 <__udivmoddi4+0x2b4>
 80003ca:	4626      	mov	r6, r4
 80003cc:	1a1c      	subs	r4, r3, r0
 80003ce:	fa1f f38e 	uxth.w	r3, lr
 80003d2:	fbb4 f0f8 	udiv	r0, r4, r8
 80003d6:	fb08 4410 	mls	r4, r8, r0, r4
 80003da:	ea43 4304 	orr.w	r3, r3, r4, lsl #16
 80003de:	fb00 f707 	mul.w	r7, r0, r7
 80003e2:	429f      	cmp	r7, r3
 80003e4:	d908      	bls.n	80003f8 <__udivmoddi4+0x148>
 80003e6:	eb1c 0303 	adds.w	r3, ip, r3
 80003ea:	f100 34ff 	add.w	r4, r0, #4294967295
 80003ee:	d202      	bcs.n	80003f6 <__udivmoddi4+0x146>
 80003f0:	429f      	cmp	r7, r3
 80003f2:	f200 80b0 	bhi.w	8000556 <__udivmoddi4+0x2a6>
 80003f6:	4620      	mov	r0, r4
 80003f8:	1bdb      	subs	r3, r3, r7
 80003fa:	ea40 4006 	orr.w	r0, r0, r6, lsl #16
 80003fe:	e7a5      	b.n	800034c <__udivmoddi4+0x9c>
 8000400:	f1c1 0620 	rsb	r6, r1, #32
 8000404:	408b      	lsls	r3, r1
 8000406:	fa22 f706 	lsr.w	r7, r2, r6
 800040a:	431f      	orrs	r7, r3
 800040c:	fa20 fc06 	lsr.w	ip, r0, r6
 8000410:	fa04 f301 	lsl.w	r3, r4, r1
 8000414:	ea43 030c 	orr.w	r3, r3, ip
 8000418:	40f4      	lsrs	r4, r6
 800041a:	fa00 f801 	lsl.w	r8, r0, r1
 800041e:	0c38      	lsrs	r0, r7, #16
 8000420:	ea4f 4913 	mov.w	r9, r3, lsr #16
 8000424:	fbb4 fef0 	udiv	lr, r4, r0
 8000428:	fa1f fc87 	uxth.w	ip, r7
 800042c:	fb00 441e 	mls	r4, r0, lr, r4
 8000430:	ea49 4404 	orr.w	r4, r9, r4, lsl #16
 8000434:	fb0e f90c 	mul.w	r9, lr, ip
 8000438:	45a1      	cmp	r9, r4
 800043a:	fa02 f201 	lsl.w	r2, r2, r1
 800043e:	d90a      	bls.n	8000456 <__udivmoddi4+0x1a6>
 8000440:	193c      	adds	r4, r7, r4
 8000442:	f10e 3aff 	add.w	sl, lr, #4294967295
 8000446:	f080 8084 	bcs.w	8000552 <__udivmoddi4+0x2a2>
 800044a:	45a1      	cmp	r9, r4
 800044c:	f240 8081 	bls.w	8000552 <__udivmoddi4+0x2a2>
 8000450:	f1ae 0e02 	sub.w	lr, lr, #2
 8000454:	443c      	add	r4, r7
 8000456:	eba4 0409 	sub.w	r4, r4, r9
 800045a:	fa1f f983 	uxth.w	r9, r3
 800045e:	fbb4 f3f0 	udiv	r3, r4, r0
 8000462:	fb00 4413 	mls	r4, r0, r3, r4
 8000466:	ea49 4404 	orr.w	r4, r9, r4, lsl #16
 800046a:	fb03 fc0c 	mul.w	ip, r3, ip
 800046e:	45a4      	cmp	ip, r4
 8000470:	d907      	bls.n	8000482 <__udivmoddi4+0x1d2>
 8000472:	193c      	adds	r4, r7, r4
 8000474:	f103 30ff 	add.w	r0, r3, #4294967295
 8000478:	d267      	bcs.n	800054a <__udivmoddi4+0x29a>
 800047a:	45a4      	cmp	ip, r4
 800047c:	d965      	bls.n	800054a <__udivmoddi4+0x29a>
 800047e:	3b02      	subs	r3, #2
 8000480:	443c      	add	r4, r7
 8000482:	ea43 400e 	orr.w	r0, r3, lr, lsl #16
 8000486:	fba0 9302 	umull	r9, r3, r0, r2
 800048a:	eba4 040c 	sub.w	r4, r4, ip
 800048e:	429c      	cmp	r4, r3
 8000490:	46ce      	mov	lr, r9
 8000492:	469c      	mov	ip, r3
 8000494:	d351      	bcc.n	800053a <__udivmoddi4+0x28a>
 8000496:	d04e      	beq.n	8000536 <__udivmoddi4+0x286>
 8000498:	b155      	cbz	r5, 80004b0 <__udivmoddi4+0x200>
 800049a:	ebb8 030e 	subs.w	r3, r8, lr
 800049e:	eb64 040c 	sbc.w	r4, r4, ip
 80004a2:	fa04 f606 	lsl.w	r6, r4, r6
 80004a6:	40cb      	lsrs	r3, r1
 80004a8:	431e      	orrs	r6, r3
 80004aa:	40cc      	lsrs	r4, r1
 80004ac:	e9c5 6400 	strd	r6, r4, [r5]
 80004b0:	2100      	movs	r1, #0
 80004b2:	e750      	b.n	8000356 <__udivmoddi4+0xa6>
 80004b4:	f1c2 0320 	rsb	r3, r2, #32
 80004b8:	fa20 f103 	lsr.w	r1, r0, r3
 80004bc:	fa0c fc02 	lsl.w	ip, ip, r2
 80004c0:	fa24 f303 	lsr.w	r3, r4, r3
 80004c4:	4094      	lsls	r4, r2
 80004c6:	430c      	orrs	r4, r1
 80004c8:	ea4f 481c 	mov.w	r8, ip, lsr #16
 80004cc:	fa00 fe02 	lsl.w	lr, r0, r2
 80004d0:	fa1f f78c 	uxth.w	r7, ip
 80004d4:	fbb3 f0f8 	udiv	r0, r3, r8
 80004d8:	fb08 3110 	mls	r1, r8, r0, r3
 80004dc:	0c23      	lsrs	r3, r4, #16
 80004de:	ea43 4301 	orr.w	r3, r3, r1, lsl #16
 80004e2:	fb00 f107 	mul.w	r1, r0, r7
 80004e6:	4299      	cmp	r1, r3
 80004e8:	d908      	bls.n	80004fc <__udivmoddi4+0x24c>
 80004ea:	eb1c 0303 	adds.w	r3, ip, r3
 80004ee:	f100 36ff 	add.w	r6, r0, #4294967295
 80004f2:	d22c      	bcs.n	800054e <__udivmoddi4+0x29e>
 80004f4:	4299      	cmp	r1, r3
 80004f6:	d92a      	bls.n	800054e <__udivmoddi4+0x29e>
 80004f8:	3802      	subs	r0, #2
 80004fa:	4463      	add	r3, ip
 80004fc:	1a5b      	subs	r3, r3, r1
 80004fe:	b2a4      	uxth	r4, r4
 8000500:	fbb3 f1f8 	udiv	r1, r3, r8
 8000504:	fb08 3311 	mls	r3, r8, r1, r3
 8000508:	ea44 4403 	orr.w	r4, r4, r3, lsl #16
 800050c:	fb01 f307 	mul.w	r3, r1, r7
 8000510:	42a3      	cmp	r3, r4
 8000512:	d908      	bls.n	8000526 <__udivmoddi4+0x276>
 8000514:	eb1c 0404 	adds.w	r4, ip, r4
 8000518:	f101 36ff 	add.w	r6, r1, #4294967295
 800051c:	d213      	bcs.n	8000546 <__udivmoddi4+0x296>
 800051e:	42a3      	cmp	r3, r4
 8000520:	d911      	bls.n	8000546 <__udivmoddi4+0x296>
 8000522:	3902      	subs	r1, #2
 8000524:	4464      	add	r4, ip
 8000526:	1ae4      	subs	r4, r4, r3
 8000528:	ea41 4100 	orr.w	r1, r1, r0, lsl #16
 800052c:	e739      	b.n	80003a2 <__udivmoddi4+0xf2>
 800052e:	4604      	mov	r4, r0
 8000530:	e6f0      	b.n	8000314 <__udivmoddi4+0x64>
 8000532:	4608      	mov	r0, r1
 8000534:	e706      	b.n	8000344 <__udivmoddi4+0x94>
 8000536:	45c8      	cmp	r8, r9
 8000538:	d2ae      	bcs.n	8000498 <__udivmoddi4+0x1e8>
 800053a:	ebb9 0e02 	subs.w	lr, r9, r2
 800053e:	eb63 0c07 	sbc.w	ip, r3, r7
 8000542:	3801      	subs	r0, #1
 8000544:	e7a8      	b.n	8000498 <__udivmoddi4+0x1e8>
 8000546:	4631      	mov	r1, r6
 8000548:	e7ed      	b.n	8000526 <__udivmoddi4+0x276>
 800054a:	4603      	mov	r3, r0
 800054c:	e799      	b.n	8000482 <__udivmoddi4+0x1d2>
 800054e:	4630      	mov	r0, r6
 8000550:	e7d4      	b.n	80004fc <__udivmoddi4+0x24c>
 8000552:	46d6      	mov	lr, sl
 8000554:	e77f      	b.n	8000456 <__udivmoddi4+0x1a6>
 8000556:	4463      	add	r3, ip
 8000558:	3802      	subs	r0, #2
 800055a:	e74d      	b.n	80003f8 <__udivmoddi4+0x148>
 800055c:	4606      	mov	r6, r0
 800055e:	4623      	mov	r3, r4
 8000560:	4608      	mov	r0, r1
 8000562:	e70f      	b.n	8000384 <__udivmoddi4+0xd4>
 8000564:	3e02      	subs	r6, #2
 8000566:	4463      	add	r3, ip
 8000568:	e730      	b.n	80003cc <__udivmoddi4+0x11c>
 800056a:	bf00      	nop

0800056c <__aeabi_idiv0>:
 800056c:	4770      	bx	lr
 800056e:	bf00      	nop

08000570 <main>:
/**
  * @brief  The application entry point.
  * @retval int
  */
int main(void)
{
 8000570:	b580      	push	{r7, lr}
 8000572:	b0a0      	sub	sp, #128	@ 0x80
 8000574:	af04      	add	r7, sp, #16
  /* USER CODE END 1 */

  /* MCU Configuration--------------------------------------------------------*/

  /* Reset of all peripherals, Initializes the Flash interface and the Systick. */
  HAL_Init();
 8000576:	f000 fb4d 	bl	8000c14 <HAL_Init>
  /* USER CODE BEGIN Init */

  /* USER CODE END Init */

  /* Configure the system clock */
  SystemClock_Config();
 800057a:	f000 f875 	bl	8000668 <SystemClock_Config>
  /* USER CODE BEGIN SysInit */

  /* USER CODE END SysInit */

  /* Initialize all configured peripherals */
  MX_GPIO_Init();
 800057e:	f000 f933 	bl	80007e8 <MX_GPIO_Init>
  MX_I2C1_Init();
 8000582:	f000 f8d9 	bl	8000738 <MX_I2C1_Init>
  MX_USART2_UART_Init();
 8000586:	f000 f905 	bl	8000794 <MX_USART2_UART_Init>

  /* USER CODE END 2 */

  /* Infinite loop */
  /* USER CODE BEGIN WHILE */
  volatile uint8_t rec = 0;
 800058a:	2300      	movs	r3, #0
 800058c:	f887 306b 	strb.w	r3, [r7, #107]	@ 0x6b
  HAL_StatusTypeDef r = HAL_I2C_Mem_Read(&hi2c1, ACC_ADDR, 0x0F, 1, (uint8_t*)&rec, 1, HAL_MAX_DELAY);
 8000590:	f04f 33ff 	mov.w	r3, #4294967295
 8000594:	9302      	str	r3, [sp, #8]
 8000596:	2301      	movs	r3, #1
 8000598:	9301      	str	r3, [sp, #4]
 800059a:	f107 036b 	add.w	r3, r7, #107	@ 0x6b
 800059e:	9300      	str	r3, [sp, #0]
 80005a0:	2301      	movs	r3, #1
 80005a2:	220f      	movs	r2, #15
 80005a4:	213a      	movs	r1, #58	@ 0x3a
 80005a6:	4829      	ldr	r0, [pc, #164]	@ (800064c <main+0xdc>)
 80005a8:	f001 f8a6 	bl	80016f8 <HAL_I2C_Mem_Read>
 80005ac:	4603      	mov	r3, r0
 80005ae:	f887 306f 	strb.w	r3, [r7, #111]	@ 0x6f
  uint8_t start_conversion_reg = 0b01100111;
 80005b2:	2367      	movs	r3, #103	@ 0x67
 80005b4:	f887 306a 	strb.w	r3, [r7, #106]	@ 0x6a
  HAL_I2C_Mem_Write(&hi2c1, ACC_ADDR, LSM303C_CTRL_REG1_A, 1, &start_conversion_reg, 1, HAL_MAX_DELAY);
 80005b8:	f04f 33ff 	mov.w	r3, #4294967295
 80005bc:	9302      	str	r3, [sp, #8]
 80005be:	2301      	movs	r3, #1
 80005c0:	9301      	str	r3, [sp, #4]
 80005c2:	f107 036a 	add.w	r3, r7, #106	@ 0x6a
 80005c6:	9300      	str	r3, [sp, #0]
 80005c8:	2301      	movs	r3, #1
 80005ca:	2220      	movs	r2, #32
 80005cc:	213a      	movs	r1, #58	@ 0x3a
 80005ce:	481f      	ldr	r0, [pc, #124]	@ (800064c <main+0xdc>)
 80005d0:	f000 ff98 	bl	8001504 <HAL_I2C_Mem_Write>

  if(r == HAL_OK) HAL_GPIO_WritePin(GPIOB, GPIO_PIN_13, GPIO_PIN_SET);
 80005d4:	f897 306f 	ldrb.w	r3, [r7, #111]	@ 0x6f
 80005d8:	2b00      	cmp	r3, #0
 80005da:	d105      	bne.n	80005e8 <main+0x78>
 80005dc:	2201      	movs	r2, #1
 80005de:	f44f 5100 	mov.w	r1, #8192	@ 0x2000
 80005e2:	481b      	ldr	r0, [pc, #108]	@ (8000650 <main+0xe0>)
 80005e4:	f000 fe16 	bl	8001214 <HAL_GPIO_WritePin>
  {

//	  HAL_GPIO_WritePin(GPIOB, GPIO_PIN_13, GPIO_PIN_RESET);
//	  HAL_GPIO_TogglePin(GPIOB, GPIO_PIN_13);
//	  HAL_GPIO_TogglePin(GPIOB, GPIO_PIN_13);
	  HAL_Delay(100);
 80005e8:	2064      	movs	r0, #100	@ 0x64
 80005ea:	f000 fb85 	bl	8000cf8 <HAL_Delay>
	  read_accelerator((int16_t*)&x_acc_val, (int16_t*)&y_acc_val, (int16_t*)&z_acc_val);
 80005ee:	4a19      	ldr	r2, [pc, #100]	@ (8000654 <main+0xe4>)
 80005f0:	4919      	ldr	r1, [pc, #100]	@ (8000658 <main+0xe8>)
 80005f2:	481a      	ldr	r0, [pc, #104]	@ (800065c <main+0xec>)
 80005f4:	f000 f94a 	bl	800088c <read_accelerator>
	  if(x_acc_val > y_acc_val) HAL_GPIO_TogglePin(GPIOB, GPIO_PIN_14);
 80005f8:	4b18      	ldr	r3, [pc, #96]	@ (800065c <main+0xec>)
 80005fa:	881b      	ldrh	r3, [r3, #0]
 80005fc:	b21a      	sxth	r2, r3
 80005fe:	4b16      	ldr	r3, [pc, #88]	@ (8000658 <main+0xe8>)
 8000600:	881b      	ldrh	r3, [r3, #0]
 8000602:	b21b      	sxth	r3, r3
 8000604:	429a      	cmp	r2, r3
 8000606:	dd04      	ble.n	8000612 <main+0xa2>
 8000608:	f44f 4180 	mov.w	r1, #16384	@ 0x4000
 800060c:	4810      	ldr	r0, [pc, #64]	@ (8000650 <main+0xe0>)
 800060e:	f000 fe1a 	bl	8001246 <HAL_GPIO_TogglePin>
//	  if(rec == 0x41) HAL_GPIO_TogglePin(GPIOB, GPIO_PIN_13);
	  uint8_t msg[100];
	  uint16_t msg_len = sprintf((char*)msg, "X:%d, Y:%d, Z:%d\n\r", x_acc_val, y_acc_val, z_acc_val);
 8000612:	4b12      	ldr	r3, [pc, #72]	@ (800065c <main+0xec>)
 8000614:	881b      	ldrh	r3, [r3, #0]
 8000616:	b21b      	sxth	r3, r3
 8000618:	461a      	mov	r2, r3
 800061a:	4b0f      	ldr	r3, [pc, #60]	@ (8000658 <main+0xe8>)
 800061c:	881b      	ldrh	r3, [r3, #0]
 800061e:	b21b      	sxth	r3, r3
 8000620:	4619      	mov	r1, r3
 8000622:	4b0c      	ldr	r3, [pc, #48]	@ (8000654 <main+0xe4>)
 8000624:	881b      	ldrh	r3, [r3, #0]
 8000626:	b21b      	sxth	r3, r3
 8000628:	1d38      	adds	r0, r7, #4
 800062a:	9300      	str	r3, [sp, #0]
 800062c:	460b      	mov	r3, r1
 800062e:	490c      	ldr	r1, [pc, #48]	@ (8000660 <main+0xf0>)
 8000630:	f002 feac 	bl	800338c <siprintf>
 8000634:	4603      	mov	r3, r0
 8000636:	f8a7 306c 	strh.w	r3, [r7, #108]	@ 0x6c
	  HAL_UART_Transmit(&huart2, (uint8_t*)msg, msg_len, 1000);
 800063a:	f8b7 206c 	ldrh.w	r2, [r7, #108]	@ 0x6c
 800063e:	1d39      	adds	r1, r7, #4
 8000640:	f44f 737a 	mov.w	r3, #1000	@ 0x3e8
 8000644:	4807      	ldr	r0, [pc, #28]	@ (8000664 <main+0xf4>)
 8000646:	f002 fae5 	bl	8002c14 <HAL_UART_Transmit>
  {
 800064a:	e7cd      	b.n	80005e8 <main+0x78>
 800064c:	20000078 	.word	0x20000078
 8000650:	40020400 	.word	0x40020400
 8000654:	20000118 	.word	0x20000118
 8000658:	20000116 	.word	0x20000116
 800065c:	20000114 	.word	0x20000114
 8000660:	08003ce4 	.word	0x08003ce4
 8000664:	200000cc 	.word	0x200000cc

08000668 <SystemClock_Config>:
/**
  * @brief System Clock Configuration
  * @retval None
  */
void SystemClock_Config(void)
{
 8000668:	b580      	push	{r7, lr}
 800066a:	b094      	sub	sp, #80	@ 0x50
 800066c:	af00      	add	r7, sp, #0
  RCC_OscInitTypeDef RCC_OscInitStruct = {0};
 800066e:	f107 0320 	add.w	r3, r7, #32
 8000672:	2230      	movs	r2, #48	@ 0x30
 8000674:	2100      	movs	r1, #0
 8000676:	4618      	mov	r0, r3
 8000678:	f002 fea8 	bl	80033cc <memset>
  RCC_ClkInitTypeDef RCC_ClkInitStruct = {0};
 800067c:	f107 030c 	add.w	r3, r7, #12
 8000680:	2200      	movs	r2, #0
 8000682:	601a      	str	r2, [r3, #0]
 8000684:	605a      	str	r2, [r3, #4]
 8000686:	609a      	str	r2, [r3, #8]
 8000688:	60da      	str	r2, [r3, #12]
 800068a:	611a      	str	r2, [r3, #16]

  /** Configure the main internal regulator output voltage
  */
  __HAL_RCC_PWR_CLK_ENABLE();
 800068c:	2300      	movs	r3, #0
 800068e:	60bb      	str	r3, [r7, #8]
 8000690:	4b27      	ldr	r3, [pc, #156]	@ (8000730 <SystemClock_Config+0xc8>)
 8000692:	6c1b      	ldr	r3, [r3, #64]	@ 0x40
 8000694:	4a26      	ldr	r2, [pc, #152]	@ (8000730 <SystemClock_Config+0xc8>)
 8000696:	f043 5380 	orr.w	r3, r3, #268435456	@ 0x10000000
 800069a:	6413      	str	r3, [r2, #64]	@ 0x40
 800069c:	4b24      	ldr	r3, [pc, #144]	@ (8000730 <SystemClock_Config+0xc8>)
 800069e:	6c1b      	ldr	r3, [r3, #64]	@ 0x40
 80006a0:	f003 5380 	and.w	r3, r3, #268435456	@ 0x10000000
 80006a4:	60bb      	str	r3, [r7, #8]
 80006a6:	68bb      	ldr	r3, [r7, #8]
  __HAL_PWR_VOLTAGESCALING_CONFIG(PWR_REGULATOR_VOLTAGE_SCALE1);
 80006a8:	2300      	movs	r3, #0
 80006aa:	607b      	str	r3, [r7, #4]
 80006ac:	4b21      	ldr	r3, [pc, #132]	@ (8000734 <SystemClock_Config+0xcc>)
 80006ae:	681b      	ldr	r3, [r3, #0]
 80006b0:	4a20      	ldr	r2, [pc, #128]	@ (8000734 <SystemClock_Config+0xcc>)
 80006b2:	f443 4340 	orr.w	r3, r3, #49152	@ 0xc000
 80006b6:	6013      	str	r3, [r2, #0]
 80006b8:	4b1e      	ldr	r3, [pc, #120]	@ (8000734 <SystemClock_Config+0xcc>)
 80006ba:	681b      	ldr	r3, [r3, #0]
 80006bc:	f403 4340 	and.w	r3, r3, #49152	@ 0xc000
 80006c0:	607b      	str	r3, [r7, #4]
 80006c2:	687b      	ldr	r3, [r7, #4]

  /** Initializes the RCC Oscillators according to the specified parameters
  * in the RCC_OscInitTypeDef structure.
  */
  RCC_OscInitStruct.OscillatorType = RCC_OSCILLATORTYPE_HSI;
 80006c4:	2302      	movs	r3, #2
 80006c6:	623b      	str	r3, [r7, #32]
  RCC_OscInitStruct.HSIState = RCC_HSI_ON;
 80006c8:	2301      	movs	r3, #1
 80006ca:	62fb      	str	r3, [r7, #44]	@ 0x2c
  RCC_OscInitStruct.HSICalibrationValue = RCC_HSICALIBRATION_DEFAULT;
 80006cc:	2310      	movs	r3, #16
 80006ce:	633b      	str	r3, [r7, #48]	@ 0x30
  RCC_OscInitStruct.PLL.PLLState = RCC_PLL_ON;
 80006d0:	2302      	movs	r3, #2
 80006d2:	63bb      	str	r3, [r7, #56]	@ 0x38
  RCC_OscInitStruct.PLL.PLLSource = RCC_PLLSOURCE_HSI;
 80006d4:	2300      	movs	r3, #0
 80006d6:	63fb      	str	r3, [r7, #60]	@ 0x3c
  RCC_OscInitStruct.PLL.PLLM = 8;
 80006d8:	2308      	movs	r3, #8
 80006da:	643b      	str	r3, [r7, #64]	@ 0x40
  RCC_OscInitStruct.PLL.PLLN = 100;
 80006dc:	2364      	movs	r3, #100	@ 0x64
 80006de:	647b      	str	r3, [r7, #68]	@ 0x44
  RCC_OscInitStruct.PLL.PLLP = RCC_PLLP_DIV2;
 80006e0:	2302      	movs	r3, #2
 80006e2:	64bb      	str	r3, [r7, #72]	@ 0x48
  RCC_OscInitStruct.PLL.PLLQ = 4;
 80006e4:	2304      	movs	r3, #4
 80006e6:	64fb      	str	r3, [r7, #76]	@ 0x4c
  if (HAL_RCC_OscConfig(&RCC_OscInitStruct) != HAL_OK)
 80006e8:	f107 0320 	add.w	r3, r7, #32
 80006ec:	4618      	mov	r0, r3
 80006ee:	f001 fde9 	bl	80022c4 <HAL_RCC_OscConfig>
 80006f2:	4603      	mov	r3, r0
 80006f4:	2b00      	cmp	r3, #0
 80006f6:	d001      	beq.n	80006fc <SystemClock_Config+0x94>
  {
    Error_Handler();
 80006f8:	f000 f92c 	bl	8000954 <Error_Handler>
  }

  /** Initializes the CPU, AHB and APB buses clocks
  */
  RCC_ClkInitStruct.ClockType = RCC_CLOCKTYPE_HCLK|RCC_CLOCKTYPE_SYSCLK
 80006fc:	230f      	movs	r3, #15
 80006fe:	60fb      	str	r3, [r7, #12]
                              |RCC_CLOCKTYPE_PCLK1|RCC_CLOCKTYPE_PCLK2;
  RCC_ClkInitStruct.SYSCLKSource = RCC_SYSCLKSOURCE_PLLCLK;
 8000700:	2302      	movs	r3, #2
 8000702:	613b      	str	r3, [r7, #16]
  RCC_ClkInitStruct.AHBCLKDivider = RCC_SYSCLK_DIV1;
 8000704:	2300      	movs	r3, #0
 8000706:	617b      	str	r3, [r7, #20]
  RCC_ClkInitStruct.APB1CLKDivider = RCC_HCLK_DIV2;
 8000708:	f44f 5380 	mov.w	r3, #4096	@ 0x1000
 800070c:	61bb      	str	r3, [r7, #24]
  RCC_ClkInitStruct.APB2CLKDivider = RCC_HCLK_DIV1;
 800070e:	2300      	movs	r3, #0
 8000710:	61fb      	str	r3, [r7, #28]

  if (HAL_RCC_ClockConfig(&RCC_ClkInitStruct, FLASH_LATENCY_3) != HAL_OK)
 8000712:	f107 030c 	add.w	r3, r7, #12
 8000716:	2103      	movs	r1, #3
 8000718:	4618      	mov	r0, r3
 800071a:	f002 f84b 	bl	80027b4 <HAL_RCC_ClockConfig>
 800071e:	4603      	mov	r3, r0
 8000720:	2b00      	cmp	r3, #0
 8000722:	d001      	beq.n	8000728 <SystemClock_Config+0xc0>
  {
    Error_Handler();
 8000724:	f000 f916 	bl	8000954 <Error_Handler>
  }
}
 8000728:	bf00      	nop
 800072a:	3750      	adds	r7, #80	@ 0x50
 800072c:	46bd      	mov	sp, r7
 800072e:	bd80      	pop	{r7, pc}
 8000730:	40023800 	.word	0x40023800
 8000734:	40007000 	.word	0x40007000

08000738 <MX_I2C1_Init>:
  * @brief I2C1 Initialization Function
  * @param None
  * @retval None
  */
static void MX_I2C1_Init(void)
{
 8000738:	b580      	push	{r7, lr}
 800073a:	af00      	add	r7, sp, #0
  /* USER CODE END I2C1_Init 0 */

  /* USER CODE BEGIN I2C1_Init 1 */

  /* USER CODE END I2C1_Init 1 */
  hi2c1.Instance = I2C1;
 800073c:	4b12      	ldr	r3, [pc, #72]	@ (8000788 <MX_I2C1_Init+0x50>)
 800073e:	4a13      	ldr	r2, [pc, #76]	@ (800078c <MX_I2C1_Init+0x54>)
 8000740:	601a      	str	r2, [r3, #0]
  hi2c1.Init.ClockSpeed = 100000;
 8000742:	4b11      	ldr	r3, [pc, #68]	@ (8000788 <MX_I2C1_Init+0x50>)
 8000744:	4a12      	ldr	r2, [pc, #72]	@ (8000790 <MX_I2C1_Init+0x58>)
 8000746:	605a      	str	r2, [r3, #4]
  hi2c1.Init.DutyCycle = I2C_DUTYCYCLE_2;
 8000748:	4b0f      	ldr	r3, [pc, #60]	@ (8000788 <MX_I2C1_Init+0x50>)
 800074a:	2200      	movs	r2, #0
 800074c:	609a      	str	r2, [r3, #8]
  hi2c1.Init.OwnAddress1 = 0;
 800074e:	4b0e      	ldr	r3, [pc, #56]	@ (8000788 <MX_I2C1_Init+0x50>)
 8000750:	2200      	movs	r2, #0
 8000752:	60da      	str	r2, [r3, #12]
  hi2c1.Init.AddressingMode = I2C_ADDRESSINGMODE_7BIT;
 8000754:	4b0c      	ldr	r3, [pc, #48]	@ (8000788 <MX_I2C1_Init+0x50>)
 8000756:	f44f 4280 	mov.w	r2, #16384	@ 0x4000
 800075a:	611a      	str	r2, [r3, #16]
  hi2c1.Init.DualAddressMode = I2C_DUALADDRESS_DISABLE;
 800075c:	4b0a      	ldr	r3, [pc, #40]	@ (8000788 <MX_I2C1_Init+0x50>)
 800075e:	2200      	movs	r2, #0
 8000760:	615a      	str	r2, [r3, #20]
  hi2c1.Init.OwnAddress2 = 0;
 8000762:	4b09      	ldr	r3, [pc, #36]	@ (8000788 <MX_I2C1_Init+0x50>)
 8000764:	2200      	movs	r2, #0
 8000766:	619a      	str	r2, [r3, #24]
  hi2c1.Init.GeneralCallMode = I2C_GENERALCALL_DISABLE;
 8000768:	4b07      	ldr	r3, [pc, #28]	@ (8000788 <MX_I2C1_Init+0x50>)
 800076a:	2200      	movs	r2, #0
 800076c:	61da      	str	r2, [r3, #28]
  hi2c1.Init.NoStretchMode = I2C_NOSTRETCH_DISABLE;
 800076e:	4b06      	ldr	r3, [pc, #24]	@ (8000788 <MX_I2C1_Init+0x50>)
 8000770:	2200      	movs	r2, #0
 8000772:	621a      	str	r2, [r3, #32]
  if (HAL_I2C_Init(&hi2c1) != HAL_OK)
 8000774:	4804      	ldr	r0, [pc, #16]	@ (8000788 <MX_I2C1_Init+0x50>)
 8000776:	f000 fd81 	bl	800127c <HAL_I2C_Init>
 800077a:	4603      	mov	r3, r0
 800077c:	2b00      	cmp	r3, #0
 800077e:	d001      	beq.n	8000784 <MX_I2C1_Init+0x4c>
  {
    Error_Handler();
 8000780:	f000 f8e8 	bl	8000954 <Error_Handler>
  }
  /* USER CODE BEGIN I2C1_Init 2 */

  /* USER CODE END I2C1_Init 2 */

}
 8000784:	bf00      	nop
 8000786:	bd80      	pop	{r7, pc}
 8000788:	20000078 	.word	0x20000078
 800078c:	40005400 	.word	0x40005400
 8000790:	000186a0 	.word	0x000186a0

08000794 <MX_USART2_UART_Init>:
  * @brief USART2 Initialization Function
  * @param None
  * @retval None
  */
static void MX_USART2_UART_Init(void)
{
 8000794:	b580      	push	{r7, lr}
 8000796:	af00      	add	r7, sp, #0
  /* USER CODE END USART2_Init 0 */

  /* USER CODE BEGIN USART2_Init 1 */

  /* USER CODE END USART2_Init 1 */
  huart2.Instance = USART2;
 8000798:	4b11      	ldr	r3, [pc, #68]	@ (80007e0 <MX_USART2_UART_Init+0x4c>)
 800079a:	4a12      	ldr	r2, [pc, #72]	@ (80007e4 <MX_USART2_UART_Init+0x50>)
 800079c:	601a      	str	r2, [r3, #0]
  huart2.Init.BaudRate = 115200;
 800079e:	4b10      	ldr	r3, [pc, #64]	@ (80007e0 <MX_USART2_UART_Init+0x4c>)
 80007a0:	f44f 32e1 	mov.w	r2, #115200	@ 0x1c200
 80007a4:	605a      	str	r2, [r3, #4]
  huart2.Init.WordLength = UART_WORDLENGTH_8B;
 80007a6:	4b0e      	ldr	r3, [pc, #56]	@ (80007e0 <MX_USART2_UART_Init+0x4c>)
 80007a8:	2200      	movs	r2, #0
 80007aa:	609a      	str	r2, [r3, #8]
  huart2.Init.StopBits = UART_STOPBITS_1;
 80007ac:	4b0c      	ldr	r3, [pc, #48]	@ (80007e0 <MX_USART2_UART_Init+0x4c>)
 80007ae:	2200      	movs	r2, #0
 80007b0:	60da      	str	r2, [r3, #12]
  huart2.Init.Parity = UART_PARITY_NONE;
 80007b2:	4b0b      	ldr	r3, [pc, #44]	@ (80007e0 <MX_USART2_UART_Init+0x4c>)
 80007b4:	2200      	movs	r2, #0
 80007b6:	611a      	str	r2, [r3, #16]
  huart2.Init.Mode = UART_MODE_TX_RX;
 80007b8:	4b09      	ldr	r3, [pc, #36]	@ (80007e0 <MX_USART2_UART_Init+0x4c>)
 80007ba:	220c      	movs	r2, #12
 80007bc:	615a      	str	r2, [r3, #20]
  huart2.Init.HwFlowCtl = UART_HWCONTROL_NONE;
 80007be:	4b08      	ldr	r3, [pc, #32]	@ (80007e0 <MX_USART2_UART_Init+0x4c>)
 80007c0:	2200      	movs	r2, #0
 80007c2:	619a      	str	r2, [r3, #24]
  huart2.Init.OverSampling = UART_OVERSAMPLING_16;
 80007c4:	4b06      	ldr	r3, [pc, #24]	@ (80007e0 <MX_USART2_UART_Init+0x4c>)
 80007c6:	2200      	movs	r2, #0
 80007c8:	61da      	str	r2, [r3, #28]
  if (HAL_UART_Init(&huart2) != HAL_OK)
 80007ca:	4805      	ldr	r0, [pc, #20]	@ (80007e0 <MX_USART2_UART_Init+0x4c>)
 80007cc:	f002 f9d2 	bl	8002b74 <HAL_UART_Init>
 80007d0:	4603      	mov	r3, r0
 80007d2:	2b00      	cmp	r3, #0
 80007d4:	d001      	beq.n	80007da <MX_USART2_UART_Init+0x46>
  {
    Error_Handler();
 80007d6:	f000 f8bd 	bl	8000954 <Error_Handler>
  }
  /* USER CODE BEGIN USART2_Init 2 */

  /* USER CODE END USART2_Init 2 */

}
 80007da:	bf00      	nop
 80007dc:	bd80      	pop	{r7, pc}
 80007de:	bf00      	nop
 80007e0:	200000cc 	.word	0x200000cc
 80007e4:	40004400 	.word	0x40004400

080007e8 <MX_GPIO_Init>:
  * @brief GPIO Initialization Function
  * @param None
  * @retval None
  */
static void MX_GPIO_Init(void)
{
 80007e8:	b580      	push	{r7, lr}
 80007ea:	b088      	sub	sp, #32
 80007ec:	af00      	add	r7, sp, #0
  GPIO_InitTypeDef GPIO_InitStruct = {0};
 80007ee:	f107 030c 	add.w	r3, r7, #12
 80007f2:	2200      	movs	r2, #0
 80007f4:	601a      	str	r2, [r3, #0]
 80007f6:	605a      	str	r2, [r3, #4]
 80007f8:	609a      	str	r2, [r3, #8]
 80007fa:	60da      	str	r2, [r3, #12]
 80007fc:	611a      	str	r2, [r3, #16]
/* USER CODE BEGIN MX_GPIO_Init_1 */
/* USER CODE END MX_GPIO_Init_1 */

  /* GPIO Ports Clock Enable */
  __HAL_RCC_GPIOA_CLK_ENABLE();
 80007fe:	2300      	movs	r3, #0
 8000800:	60bb      	str	r3, [r7, #8]
 8000802:	4b20      	ldr	r3, [pc, #128]	@ (8000884 <MX_GPIO_Init+0x9c>)
 8000804:	6b1b      	ldr	r3, [r3, #48]	@ 0x30
 8000806:	4a1f      	ldr	r2, [pc, #124]	@ (8000884 <MX_GPIO_Init+0x9c>)
 8000808:	f043 0301 	orr.w	r3, r3, #1
 800080c:	6313      	str	r3, [r2, #48]	@ 0x30
 800080e:	4b1d      	ldr	r3, [pc, #116]	@ (8000884 <MX_GPIO_Init+0x9c>)
 8000810:	6b1b      	ldr	r3, [r3, #48]	@ 0x30
 8000812:	f003 0301 	and.w	r3, r3, #1
 8000816:	60bb      	str	r3, [r7, #8]
 8000818:	68bb      	ldr	r3, [r7, #8]
  __HAL_RCC_GPIOB_CLK_ENABLE();
 800081a:	2300      	movs	r3, #0
 800081c:	607b      	str	r3, [r7, #4]
 800081e:	4b19      	ldr	r3, [pc, #100]	@ (8000884 <MX_GPIO_Init+0x9c>)
 8000820:	6b1b      	ldr	r3, [r3, #48]	@ 0x30
 8000822:	4a18      	ldr	r2, [pc, #96]	@ (8000884 <MX_GPIO_Init+0x9c>)
 8000824:	f043 0302 	orr.w	r3, r3, #2
 8000828:	6313      	str	r3, [r2, #48]	@ 0x30
 800082a:	4b16      	ldr	r3, [pc, #88]	@ (8000884 <MX_GPIO_Init+0x9c>)
 800082c:	6b1b      	ldr	r3, [r3, #48]	@ 0x30
 800082e:	f003 0302 	and.w	r3, r3, #2
 8000832:	607b      	str	r3, [r7, #4]
 8000834:	687b      	ldr	r3, [r7, #4]

  /*Configure GPIO pin Output Level */
  HAL_GPIO_WritePin(GPIOB, GPIO_PIN_13|GPIO_PIN_14, GPIO_PIN_RESET);
 8000836:	2200      	movs	r2, #0
 8000838:	f44f 41c0 	mov.w	r1, #24576	@ 0x6000
 800083c:	4812      	ldr	r0, [pc, #72]	@ (8000888 <MX_GPIO_Init+0xa0>)
 800083e:	f000 fce9 	bl	8001214 <HAL_GPIO_WritePin>

  /*Configure GPIO pins : PB13 PB14 */
  GPIO_InitStruct.Pin = GPIO_PIN_13|GPIO_PIN_14;
 8000842:	f44f 43c0 	mov.w	r3, #24576	@ 0x6000
 8000846:	60fb      	str	r3, [r7, #12]
  GPIO_InitStruct.Mode = GPIO_MODE_OUTPUT_PP;
 8000848:	2301      	movs	r3, #1
 800084a:	613b      	str	r3, [r7, #16]
  GPIO_InitStruct.Pull = GPIO_NOPULL;
 800084c:	2300      	movs	r3, #0
 800084e:	617b      	str	r3, [r7, #20]
  GPIO_InitStruct.Speed = GPIO_SPEED_FREQ_LOW;
 8000850:	2300      	movs	r3, #0
 8000852:	61bb      	str	r3, [r7, #24]
  HAL_GPIO_Init(GPIOB, &GPIO_InitStruct);
 8000854:	f107 030c 	add.w	r3, r7, #12
 8000858:	4619      	mov	r1, r3
 800085a:	480b      	ldr	r0, [pc, #44]	@ (8000888 <MX_GPIO_Init+0xa0>)
 800085c:	f000 fb56 	bl	8000f0c <HAL_GPIO_Init>

  /*Configure GPIO pin : PB15 */
  GPIO_InitStruct.Pin = GPIO_PIN_15;
 8000860:	f44f 4300 	mov.w	r3, #32768	@ 0x8000
 8000864:	60fb      	str	r3, [r7, #12]
  GPIO_InitStruct.Mode = GPIO_MODE_INPUT;
 8000866:	2300      	movs	r3, #0
 8000868:	613b      	str	r3, [r7, #16]
  GPIO_InitStruct.Pull = GPIO_NOPULL;
 800086a:	2300      	movs	r3, #0
 800086c:	617b      	str	r3, [r7, #20]
  HAL_GPIO_Init(GPIOB, &GPIO_InitStruct);
 800086e:	f107 030c 	add.w	r3, r7, #12
 8000872:	4619      	mov	r1, r3
 8000874:	4804      	ldr	r0, [pc, #16]	@ (8000888 <MX_GPIO_Init+0xa0>)
 8000876:	f000 fb49 	bl	8000f0c <HAL_GPIO_Init>

/* USER CODE BEGIN MX_GPIO_Init_2 */
/* USER CODE END MX_GPIO_Init_2 */
}
 800087a:	bf00      	nop
 800087c:	3720      	adds	r7, #32
 800087e:	46bd      	mov	sp, r7
 8000880:	bd80      	pop	{r7, pc}
 8000882:	bf00      	nop
 8000884:	40023800 	.word	0x40023800
 8000888:	40020400 	.word	0x40020400

0800088c <read_accelerator>:

/* USER CODE BEGIN 4 */
void read_accelerator(int16_t* x_acc, int16_t* y_acc, int16_t* z_acc){
 800088c:	b580      	push	{r7, lr}
 800088e:	b08c      	sub	sp, #48	@ 0x30
 8000890:	af04      	add	r7, sp, #16
 8000892:	60f8      	str	r0, [r7, #12]
 8000894:	60b9      	str	r1, [r7, #8]
 8000896:	607a      	str	r2, [r7, #4]
	uint8_t* x_acc_addr = (uint8_t*)x_acc;
 8000898:	68fb      	ldr	r3, [r7, #12]
 800089a:	61fb      	str	r3, [r7, #28]
	uint8_t* y_acc_addr = (uint8_t*)y_acc;
 800089c:	68bb      	ldr	r3, [r7, #8]
 800089e:	61bb      	str	r3, [r7, #24]
	uint8_t* z_acc_addr = (uint8_t*)z_acc;
 80008a0:	687b      	ldr	r3, [r7, #4]
 80008a2:	617b      	str	r3, [r7, #20]

	HAL_I2C_Mem_Read(&hi2c1, ACC_ADDR, LSM303C_OUT_X_L_A, 1, x_acc_addr, 1, HAL_MAX_DELAY);
 80008a4:	f04f 33ff 	mov.w	r3, #4294967295
 80008a8:	9302      	str	r3, [sp, #8]
 80008aa:	2301      	movs	r3, #1
 80008ac:	9301      	str	r3, [sp, #4]
 80008ae:	69fb      	ldr	r3, [r7, #28]
 80008b0:	9300      	str	r3, [sp, #0]
 80008b2:	2301      	movs	r3, #1
 80008b4:	2228      	movs	r2, #40	@ 0x28
 80008b6:	213a      	movs	r1, #58	@ 0x3a
 80008b8:	4825      	ldr	r0, [pc, #148]	@ (8000950 <read_accelerator+0xc4>)
 80008ba:	f000 ff1d 	bl	80016f8 <HAL_I2C_Mem_Read>
	HAL_I2C_Mem_Read(&hi2c1, ACC_ADDR, LSM303C_OUT_X_H_A, 1, &(x_acc_addr[1]), 1, HAL_MAX_DELAY);
 80008be:	69fb      	ldr	r3, [r7, #28]
 80008c0:	3301      	adds	r3, #1
 80008c2:	f04f 32ff 	mov.w	r2, #4294967295
 80008c6:	9202      	str	r2, [sp, #8]
 80008c8:	2201      	movs	r2, #1
 80008ca:	9201      	str	r2, [sp, #4]
 80008cc:	9300      	str	r3, [sp, #0]
 80008ce:	2301      	movs	r3, #1
 80008d0:	2229      	movs	r2, #41	@ 0x29
 80008d2:	213a      	movs	r1, #58	@ 0x3a
 80008d4:	481e      	ldr	r0, [pc, #120]	@ (8000950 <read_accelerator+0xc4>)
 80008d6:	f000 ff0f 	bl	80016f8 <HAL_I2C_Mem_Read>

	HAL_I2C_Mem_Read(&hi2c1, ACC_ADDR, LSM303C_OUT_Y_L_A, 1, y_acc_addr, 1, HAL_MAX_DELAY);
 80008da:	f04f 33ff 	mov.w	r3, #4294967295
 80008de:	9302      	str	r3, [sp, #8]
 80008e0:	2301      	movs	r3, #1
 80008e2:	9301      	str	r3, [sp, #4]
 80008e4:	69bb      	ldr	r3, [r7, #24]
 80008e6:	9300      	str	r3, [sp, #0]
 80008e8:	2301      	movs	r3, #1
 80008ea:	222a      	movs	r2, #42	@ 0x2a
 80008ec:	213a      	movs	r1, #58	@ 0x3a
 80008ee:	4818      	ldr	r0, [pc, #96]	@ (8000950 <read_accelerator+0xc4>)
 80008f0:	f000 ff02 	bl	80016f8 <HAL_I2C_Mem_Read>
	HAL_I2C_Mem_Read(&hi2c1, ACC_ADDR, LSM303C_OUT_Y_H_A, 1, &(y_acc_addr[1]), 1, HAL_MAX_DELAY);
 80008f4:	69bb      	ldr	r3, [r7, #24]
 80008f6:	3301      	adds	r3, #1
 80008f8:	f04f 32ff 	mov.w	r2, #4294967295
 80008fc:	9202      	str	r2, [sp, #8]
 80008fe:	2201      	movs	r2, #1
 8000900:	9201      	str	r2, [sp, #4]
 8000902:	9300      	str	r3, [sp, #0]
 8000904:	2301      	movs	r3, #1
 8000906:	222b      	movs	r2, #43	@ 0x2b
 8000908:	213a      	movs	r1, #58	@ 0x3a
 800090a:	4811      	ldr	r0, [pc, #68]	@ (8000950 <read_accelerator+0xc4>)
 800090c:	f000 fef4 	bl	80016f8 <HAL_I2C_Mem_Read>

	HAL_I2C_Mem_Read(&hi2c1, ACC_ADDR, LSM303C_OUT_Z_L_A, 1, z_acc_addr, 1, HAL_MAX_DELAY);
 8000910:	f04f 33ff 	mov.w	r3, #4294967295
 8000914:	9302      	str	r3, [sp, #8]
 8000916:	2301      	movs	r3, #1
 8000918:	9301      	str	r3, [sp, #4]
 800091a:	697b      	ldr	r3, [r7, #20]
 800091c:	9300      	str	r3, [sp, #0]
 800091e:	2301      	movs	r3, #1
 8000920:	222c      	movs	r2, #44	@ 0x2c
 8000922:	213a      	movs	r1, #58	@ 0x3a
 8000924:	480a      	ldr	r0, [pc, #40]	@ (8000950 <read_accelerator+0xc4>)
 8000926:	f000 fee7 	bl	80016f8 <HAL_I2C_Mem_Read>
	HAL_I2C_Mem_Read(&hi2c1, ACC_ADDR, LSM303C_OUT_Z_H_A, 1, &(z_acc_addr[1]), 1, HAL_MAX_DELAY);
 800092a:	697b      	ldr	r3, [r7, #20]
 800092c:	3301      	adds	r3, #1
 800092e:	f04f 32ff 	mov.w	r2, #4294967295
 8000932:	9202      	str	r2, [sp, #8]
 8000934:	2201      	movs	r2, #1
 8000936:	9201      	str	r2, [sp, #4]
 8000938:	9300      	str	r3, [sp, #0]
 800093a:	2301      	movs	r3, #1
 800093c:	222d      	movs	r2, #45	@ 0x2d
 800093e:	213a      	movs	r1, #58	@ 0x3a
 8000940:	4803      	ldr	r0, [pc, #12]	@ (8000950 <read_accelerator+0xc4>)
 8000942:	f000 fed9 	bl	80016f8 <HAL_I2C_Mem_Read>

}
 8000946:	bf00      	nop
 8000948:	3720      	adds	r7, #32
 800094a:	46bd      	mov	sp, r7
 800094c:	bd80      	pop	{r7, pc}
 800094e:	bf00      	nop
 8000950:	20000078 	.word	0x20000078

08000954 <Error_Handler>:
/**
  * @brief  This function is executed in case of error occurrence.
  * @retval None
  */
void Error_Handler(void)
{
 8000954:	b480      	push	{r7}
 8000956:	af00      	add	r7, sp, #0
  \details Disables IRQ interrupts by setting special-purpose register PRIMASK.
           Can only be executed in Privileged modes.
 */
__STATIC_FORCEINLINE void __disable_irq(void)
{
  __ASM volatile ("cpsid i" : : : "memory");
 8000958:	b672      	cpsid	i
}
 800095a:	bf00      	nop
  /* USER CODE BEGIN Error_Handler_Debug */
  /* User can add his own implementation to report the HAL error return state */
  __disable_irq();
  while (1)
 800095c:	bf00      	nop
 800095e:	e7fd      	b.n	800095c <Error_Handler+0x8>

08000960 <HAL_MspInit>:
/* USER CODE END 0 */
/**
  * Initializes the Global MSP.
  */
void HAL_MspInit(void)
{
 8000960:	b480      	push	{r7}
 8000962:	b083      	sub	sp, #12
 8000964:	af00      	add	r7, sp, #0

  /* USER CODE BEGIN MspInit 0 */

  /* USER CODE END MspInit 0 */

  __HAL_RCC_SYSCFG_CLK_ENABLE();
 8000966:	2300      	movs	r3, #0
 8000968:	607b      	str	r3, [r7, #4]
 800096a:	4b10      	ldr	r3, [pc, #64]	@ (80009ac <HAL_MspInit+0x4c>)
 800096c:	6c5b      	ldr	r3, [r3, #68]	@ 0x44
 800096e:	4a0f      	ldr	r2, [pc, #60]	@ (80009ac <HAL_MspInit+0x4c>)
 8000970:	f443 4380 	orr.w	r3, r3, #16384	@ 0x4000
 8000974:	6453      	str	r3, [r2, #68]	@ 0x44
 8000976:	4b0d      	ldr	r3, [pc, #52]	@ (80009ac <HAL_MspInit+0x4c>)
 8000978:	6c5b      	ldr	r3, [r3, #68]	@ 0x44
 800097a:	f403 4380 	and.w	r3, r3, #16384	@ 0x4000
 800097e:	607b      	str	r3, [r7, #4]
 8000980:	687b      	ldr	r3, [r7, #4]
  __HAL_RCC_PWR_CLK_ENABLE();
 8000982:	2300      	movs	r3, #0
 8000984:	603b      	str	r3, [r7, #0]
 8000986:	4b09      	ldr	r3, [pc, #36]	@ (80009ac <HAL_MspInit+0x4c>)
 8000988:	6c1b      	ldr	r3, [r3, #64]	@ 0x40
 800098a:	4a08      	ldr	r2, [pc, #32]	@ (80009ac <HAL_MspInit+0x4c>)
 800098c:	f043 5380 	orr.w	r3, r3, #268435456	@ 0x10000000
 8000990:	6413      	str	r3, [r2, #64]	@ 0x40
 8000992:	4b06      	ldr	r3, [pc, #24]	@ (80009ac <HAL_MspInit+0x4c>)
 8000994:	6c1b      	ldr	r3, [r3, #64]	@ 0x40
 8000996:	f003 5380 	and.w	r3, r3, #268435456	@ 0x10000000
 800099a:	603b      	str	r3, [r7, #0]
 800099c:	683b      	ldr	r3, [r7, #0]
  /* System interrupt init*/

  /* USER CODE BEGIN MspInit 1 */

  /* USER CODE END MspInit 1 */
}
 800099e:	bf00      	nop
 80009a0:	370c      	adds	r7, #12
 80009a2:	46bd      	mov	sp, r7
 80009a4:	f85d 7b04 	ldr.w	r7, [sp], #4
 80009a8:	4770      	bx	lr
 80009aa:	bf00      	nop
 80009ac:	40023800 	.word	0x40023800

080009b0 <HAL_I2C_MspInit>:
* This function configures the hardware resources used in this example
* @param hi2c: I2C handle pointer
* @retval None
*/
void HAL_I2C_MspInit(I2C_HandleTypeDef* hi2c)
{
 80009b0:	b580      	push	{r7, lr}
 80009b2:	b08a      	sub	sp, #40	@ 0x28
 80009b4:	af00      	add	r7, sp, #0
 80009b6:	6078      	str	r0, [r7, #4]
  GPIO_InitTypeDef GPIO_InitStruct = {0};
 80009b8:	f107 0314 	add.w	r3, r7, #20
 80009bc:	2200      	movs	r2, #0
 80009be:	601a      	str	r2, [r3, #0]
 80009c0:	605a      	str	r2, [r3, #4]
 80009c2:	609a      	str	r2, [r3, #8]
 80009c4:	60da      	str	r2, [r3, #12]
 80009c6:	611a      	str	r2, [r3, #16]
  if(hi2c->Instance==I2C1)
 80009c8:	687b      	ldr	r3, [r7, #4]
 80009ca:	681b      	ldr	r3, [r3, #0]
 80009cc:	4a19      	ldr	r2, [pc, #100]	@ (8000a34 <HAL_I2C_MspInit+0x84>)
 80009ce:	4293      	cmp	r3, r2
 80009d0:	d12b      	bne.n	8000a2a <HAL_I2C_MspInit+0x7a>
  {
  /* USER CODE BEGIN I2C1_MspInit 0 */

  /* USER CODE END I2C1_MspInit 0 */

    __HAL_RCC_GPIOB_CLK_ENABLE();
 80009d2:	2300      	movs	r3, #0
 80009d4:	613b      	str	r3, [r7, #16]
 80009d6:	4b18      	ldr	r3, [pc, #96]	@ (8000a38 <HAL_I2C_MspInit+0x88>)
 80009d8:	6b1b      	ldr	r3, [r3, #48]	@ 0x30
 80009da:	4a17      	ldr	r2, [pc, #92]	@ (8000a38 <HAL_I2C_MspInit+0x88>)
 80009dc:	f043 0302 	orr.w	r3, r3, #2
 80009e0:	6313      	str	r3, [r2, #48]	@ 0x30
 80009e2:	4b15      	ldr	r3, [pc, #84]	@ (8000a38 <HAL_I2C_MspInit+0x88>)
 80009e4:	6b1b      	ldr	r3, [r3, #48]	@ 0x30
 80009e6:	f003 0302 	and.w	r3, r3, #2
 80009ea:	613b      	str	r3, [r7, #16]
 80009ec:	693b      	ldr	r3, [r7, #16]
    /**I2C1 GPIO Configuration
    PB6     ------> I2C1_SCL
    PB7     ------> I2C1_SDA
    */
    GPIO_InitStruct.Pin = GPIO_PIN_6|GPIO_PIN_7;
 80009ee:	23c0      	movs	r3, #192	@ 0xc0
 80009f0:	617b      	str	r3, [r7, #20]
    GPIO_InitStruct.Mode = GPIO_MODE_AF_OD;
 80009f2:	2312      	movs	r3, #18
 80009f4:	61bb      	str	r3, [r7, #24]
    GPIO_InitStruct.Pull = GPIO_NOPULL;
 80009f6:	2300      	movs	r3, #0
 80009f8:	61fb      	str	r3, [r7, #28]
    GPIO_InitStruct.Speed = GPIO_SPEED_FREQ_VERY_HIGH;
 80009fa:	2303      	movs	r3, #3
 80009fc:	623b      	str	r3, [r7, #32]
    GPIO_InitStruct.Alternate = GPIO_AF4_I2C1;
 80009fe:	2304      	movs	r3, #4
 8000a00:	627b      	str	r3, [r7, #36]	@ 0x24
    HAL_GPIO_Init(GPIOB, &GPIO_InitStruct);
 8000a02:	f107 0314 	add.w	r3, r7, #20
 8000a06:	4619      	mov	r1, r3
 8000a08:	480c      	ldr	r0, [pc, #48]	@ (8000a3c <HAL_I2C_MspInit+0x8c>)
 8000a0a:	f000 fa7f 	bl	8000f0c <HAL_GPIO_Init>

    /* Peripheral clock enable */
    __HAL_RCC_I2C1_CLK_ENABLE();
 8000a0e:	2300      	movs	r3, #0
 8000a10:	60fb      	str	r3, [r7, #12]
 8000a12:	4b09      	ldr	r3, [pc, #36]	@ (8000a38 <HAL_I2C_MspInit+0x88>)
 8000a14:	6c1b      	ldr	r3, [r3, #64]	@ 0x40
 8000a16:	4a08      	ldr	r2, [pc, #32]	@ (8000a38 <HAL_I2C_MspInit+0x88>)
 8000a18:	f443 1300 	orr.w	r3, r3, #2097152	@ 0x200000
 8000a1c:	6413      	str	r3, [r2, #64]	@ 0x40
 8000a1e:	4b06      	ldr	r3, [pc, #24]	@ (8000a38 <HAL_I2C_MspInit+0x88>)
 8000a20:	6c1b      	ldr	r3, [r3, #64]	@ 0x40
 8000a22:	f403 1300 	and.w	r3, r3, #2097152	@ 0x200000
 8000a26:	60fb      	str	r3, [r7, #12]
 8000a28:	68fb      	ldr	r3, [r7, #12]

  /* USER CODE END I2C1_MspInit 1 */

  }

}
 8000a2a:	bf00      	nop
 8000a2c:	3728      	adds	r7, #40	@ 0x28
 8000a2e:	46bd      	mov	sp, r7
 8000a30:	bd80      	pop	{r7, pc}
 8000a32:	bf00      	nop
 8000a34:	40005400 	.word	0x40005400
 8000a38:	40023800 	.word	0x40023800
 8000a3c:	40020400 	.word	0x40020400

08000a40 <HAL_UART_MspInit>:
* This function configures the hardware resources used in this example
* @param huart: UART handle pointer
* @retval None
*/
void HAL_UART_MspInit(UART_HandleTypeDef* huart)
{
 8000a40:	b580      	push	{r7, lr}
 8000a42:	b08a      	sub	sp, #40	@ 0x28
 8000a44:	af00      	add	r7, sp, #0
 8000a46:	6078      	str	r0, [r7, #4]
  GPIO_InitTypeDef GPIO_InitStruct = {0};
 8000a48:	f107 0314 	add.w	r3, r7, #20
 8000a4c:	2200      	movs	r2, #0
 8000a4e:	601a      	str	r2, [r3, #0]
 8000a50:	605a      	str	r2, [r3, #4]
 8000a52:	609a      	str	r2, [r3, #8]
 8000a54:	60da      	str	r2, [r3, #12]
 8000a56:	611a      	str	r2, [r3, #16]
  if(huart->Instance==USART2)
 8000a58:	687b      	ldr	r3, [r7, #4]
 8000a5a:	681b      	ldr	r3, [r3, #0]
 8000a5c:	4a19      	ldr	r2, [pc, #100]	@ (8000ac4 <HAL_UART_MspInit+0x84>)
 8000a5e:	4293      	cmp	r3, r2
 8000a60:	d12b      	bne.n	8000aba <HAL_UART_MspInit+0x7a>
  {
  /* USER CODE BEGIN USART2_MspInit 0 */

  /* USER CODE END USART2_MspInit 0 */
    /* Peripheral clock enable */
    __HAL_RCC_USART2_CLK_ENABLE();
 8000a62:	2300      	movs	r3, #0
 8000a64:	613b      	str	r3, [r7, #16]
 8000a66:	4b18      	ldr	r3, [pc, #96]	@ (8000ac8 <HAL_UART_MspInit+0x88>)
 8000a68:	6c1b      	ldr	r3, [r3, #64]	@ 0x40
 8000a6a:	4a17      	ldr	r2, [pc, #92]	@ (8000ac8 <HAL_UART_MspInit+0x88>)
 8000a6c:	f443 3300 	orr.w	r3, r3, #131072	@ 0x20000
 8000a70:	6413      	str	r3, [r2, #64]	@ 0x40
 8000a72:	4b15      	ldr	r3, [pc, #84]	@ (8000ac8 <HAL_UART_MspInit+0x88>)
 8000a74:	6c1b      	ldr	r3, [r3, #64]	@ 0x40
 8000a76:	f403 3300 	and.w	r3, r3, #131072	@ 0x20000
 8000a7a:	613b      	str	r3, [r7, #16]
 8000a7c:	693b      	ldr	r3, [r7, #16]

    __HAL_RCC_GPIOA_CLK_ENABLE();
 8000a7e:	2300      	movs	r3, #0
 8000a80:	60fb      	str	r3, [r7, #12]
 8000a82:	4b11      	ldr	r3, [pc, #68]	@ (8000ac8 <HAL_UART_MspInit+0x88>)
 8000a84:	6b1b      	ldr	r3, [r3, #48]	@ 0x30
 8000a86:	4a10      	ldr	r2, [pc, #64]	@ (8000ac8 <HAL_UART_MspInit+0x88>)
 8000a88:	f043 0301 	orr.w	r3, r3, #1
 8000a8c:	6313      	str	r3, [r2, #48]	@ 0x30
 8000a8e:	4b0e      	ldr	r3, [pc, #56]	@ (8000ac8 <HAL_UART_MspInit+0x88>)
 8000a90:	6b1b      	ldr	r3, [r3, #48]	@ 0x30
 8000a92:	f003 0301 	and.w	r3, r3, #1
 8000a96:	60fb      	str	r3, [r7, #12]
 8000a98:	68fb      	ldr	r3, [r7, #12]
    /**USART2 GPIO Configuration
    PA2     ------> USART2_TX
    PA3     ------> USART2_RX
    */
    GPIO_InitStruct.Pin = GPIO_PIN_2|GPIO_PIN_3;
 8000a9a:	230c      	movs	r3, #12
 8000a9c:	617b      	str	r3, [r7, #20]
    GPIO_InitStruct.Mode = GPIO_MODE_AF_PP;
 8000a9e:	2302      	movs	r3, #2
 8000aa0:	61bb      	str	r3, [r7, #24]
    GPIO_InitStruct.Pull = GPIO_NOPULL;
 8000aa2:	2300      	movs	r3, #0
 8000aa4:	61fb      	str	r3, [r7, #28]
    GPIO_InitStruct.Speed = GPIO_SPEED_FREQ_VERY_HIGH;
 8000aa6:	2303      	movs	r3, #3
 8000aa8:	623b      	str	r3, [r7, #32]
    GPIO_InitStruct.Alternate = GPIO_AF7_USART2;
 8000aaa:	2307      	movs	r3, #7
 8000aac:	627b      	str	r3, [r7, #36]	@ 0x24
    HAL_GPIO_Init(GPIOA, &GPIO_InitStruct);
 8000aae:	f107 0314 	add.w	r3, r7, #20
 8000ab2:	4619      	mov	r1, r3
 8000ab4:	4805      	ldr	r0, [pc, #20]	@ (8000acc <HAL_UART_MspInit+0x8c>)
 8000ab6:	f000 fa29 	bl	8000f0c <HAL_GPIO_Init>

  /* USER CODE END USART2_MspInit 1 */

  }

}
 8000aba:	bf00      	nop
 8000abc:	3728      	adds	r7, #40	@ 0x28
 8000abe:	46bd      	mov	sp, r7
 8000ac0:	bd80      	pop	{r7, pc}
 8000ac2:	bf00      	nop
 8000ac4:	40004400 	.word	0x40004400
 8000ac8:	40023800 	.word	0x40023800
 8000acc:	40020000 	.word	0x40020000

08000ad0 <NMI_Handler>:
/******************************************************************************/
/**
  * @brief This function handles Non maskable interrupt.
  */
void NMI_Handler(void)
{
 8000ad0:	b480      	push	{r7}
 8000ad2:	af00      	add	r7, sp, #0
  /* USER CODE BEGIN NonMaskableInt_IRQn 0 */

  /* USER CODE END NonMaskableInt_IRQn 0 */
  /* USER CODE BEGIN NonMaskableInt_IRQn 1 */
   while (1)
 8000ad4:	bf00      	nop
 8000ad6:	e7fd      	b.n	8000ad4 <NMI_Handler+0x4>

08000ad8 <HardFault_Handler>:

/**
  * @brief This function handles Hard fault interrupt.
  */
void HardFault_Handler(void)
{
 8000ad8:	b480      	push	{r7}
 8000ada:	af00      	add	r7, sp, #0
  /* USER CODE BEGIN HardFault_IRQn 0 */

  /* USER CODE END HardFault_IRQn 0 */
  while (1)
 8000adc:	bf00      	nop
 8000ade:	e7fd      	b.n	8000adc <HardFault_Handler+0x4>

08000ae0 <MemManage_Handler>:

/**
  * @brief This function handles Memory management fault.
  */
void MemManage_Handler(void)
{
 8000ae0:	b480      	push	{r7}
 8000ae2:	af00      	add	r7, sp, #0
  /* USER CODE BEGIN MemoryManagement_IRQn 0 */

  /* USER CODE END MemoryManagement_IRQn 0 */
  while (1)
 8000ae4:	bf00      	nop
 8000ae6:	e7fd      	b.n	8000ae4 <MemManage_Handler+0x4>

08000ae8 <BusFault_Handler>:

/**
  * @brief This function handles Pre-fetch fault, memory access fault.
  */
void BusFault_Handler(void)
{
 8000ae8:	b480      	push	{r7}
 8000aea:	af00      	add	r7, sp, #0
  /* USER CODE BEGIN BusFault_IRQn 0 */

  /* USER CODE END BusFault_IRQn 0 */
  while (1)
 8000aec:	bf00      	nop
 8000aee:	e7fd      	b.n	8000aec <BusFault_Handler+0x4>

08000af0 <UsageFault_Handler>:

/**
  * @brief This function handles Undefined instruction or illegal state.
  */
void UsageFault_Handler(void)
{
 8000af0:	b480      	push	{r7}
 8000af2:	af00      	add	r7, sp, #0
  /* USER CODE BEGIN UsageFault_IRQn 0 */

  /* USER CODE END UsageFault_IRQn 0 */
  while (1)
 8000af4:	bf00      	nop
 8000af6:	e7fd      	b.n	8000af4 <UsageFault_Handler+0x4>

08000af8 <SVC_Handler>:

/**
  * @brief This function handles System service call via SWI instruction.
  */
void SVC_Handler(void)
{
 8000af8:	b480      	push	{r7}
 8000afa:	af00      	add	r7, sp, #0

  /* USER CODE END SVCall_IRQn 0 */
  /* USER CODE BEGIN SVCall_IRQn 1 */

  /* USER CODE END SVCall_IRQn 1 */
}
 8000afc:	bf00      	nop
 8000afe:	46bd      	mov	sp, r7
 8000b00:	f85d 7b04 	ldr.w	r7, [sp], #4
 8000b04:	4770      	bx	lr

08000b06 <DebugMon_Handler>:

/**
  * @brief This function handles Debug monitor.
  */
void DebugMon_Handler(void)
{
 8000b06:	b480      	push	{r7}
 8000b08:	af00      	add	r7, sp, #0

  /* USER CODE END DebugMonitor_IRQn 0 */
  /* USER CODE BEGIN DebugMonitor_IRQn 1 */

  /* USER CODE END DebugMonitor_IRQn 1 */
}
 8000b0a:	bf00      	nop
 8000b0c:	46bd      	mov	sp, r7
 8000b0e:	f85d 7b04 	ldr.w	r7, [sp], #4
 8000b12:	4770      	bx	lr

08000b14 <PendSV_Handler>:

/**
  * @brief This function handles Pendable request for system service.
  */
void PendSV_Handler(void)
{
 8000b14:	b480      	push	{r7}
 8000b16:	af00      	add	r7, sp, #0

  /* USER CODE END PendSV_IRQn 0 */
  /* USER CODE BEGIN PendSV_IRQn 1 */

  /* USER CODE END PendSV_IRQn 1 */
}
 8000b18:	bf00      	nop
 8000b1a:	46bd      	mov	sp, r7
 8000b1c:	f85d 7b04 	ldr.w	r7, [sp], #4
 8000b20:	4770      	bx	lr

08000b22 <SysTick_Handler>:

/**
  * @brief This function handles System tick timer.
  */
void SysTick_Handler(void)
{
 8000b22:	b580      	push	{r7, lr}
 8000b24:	af00      	add	r7, sp, #0
  /* USER CODE BEGIN SysTick_IRQn 0 */

  /* USER CODE END SysTick_IRQn 0 */
  HAL_IncTick();
 8000b26:	f000 f8c7 	bl	8000cb8 <HAL_IncTick>
  /* USER CODE BEGIN SysTick_IRQn 1 */

  /* USER CODE END SysTick_IRQn 1 */
}
 8000b2a:	bf00      	nop
 8000b2c:	bd80      	pop	{r7, pc}
	...

08000b30 <_sbrk>:
 *
 * @param incr Memory size
 * @return Pointer to allocated memory
 */
void *_sbrk(ptrdiff_t incr)
{
 8000b30:	b580      	push	{r7, lr}
 8000b32:	b086      	sub	sp, #24
 8000b34:	af00      	add	r7, sp, #0
 8000b36:	6078      	str	r0, [r7, #4]
  extern uint8_t _end; /* Symbol defined in the linker script */
  extern uint8_t _estack; /* Symbol defined in the linker script */
  extern uint32_t _Min_Stack_Size; /* Symbol defined in the linker script */
  const uint32_t stack_limit = (uint32_t)&_estack - (uint32_t)&_Min_Stack_Size;
 8000b38:	4a14      	ldr	r2, [pc, #80]	@ (8000b8c <_sbrk+0x5c>)
 8000b3a:	4b15      	ldr	r3, [pc, #84]	@ (8000b90 <_sbrk+0x60>)
 8000b3c:	1ad3      	subs	r3, r2, r3
 8000b3e:	617b      	str	r3, [r7, #20]
  const uint8_t *max_heap = (uint8_t *)stack_limit;
 8000b40:	697b      	ldr	r3, [r7, #20]
 8000b42:	613b      	str	r3, [r7, #16]
  uint8_t *prev_heap_end;

  /* Initialize heap end at first call */
  if (NULL == __sbrk_heap_end)
 8000b44:	4b13      	ldr	r3, [pc, #76]	@ (8000b94 <_sbrk+0x64>)
 8000b46:	681b      	ldr	r3, [r3, #0]
 8000b48:	2b00      	cmp	r3, #0
 8000b4a:	d102      	bne.n	8000b52 <_sbrk+0x22>
  {
    __sbrk_heap_end = &_end;
 8000b4c:	4b11      	ldr	r3, [pc, #68]	@ (8000b94 <_sbrk+0x64>)
 8000b4e:	4a12      	ldr	r2, [pc, #72]	@ (8000b98 <_sbrk+0x68>)
 8000b50:	601a      	str	r2, [r3, #0]
  }

  /* Protect heap from growing into the reserved MSP stack */
  if (__sbrk_heap_end + incr > max_heap)
 8000b52:	4b10      	ldr	r3, [pc, #64]	@ (8000b94 <_sbrk+0x64>)
 8000b54:	681a      	ldr	r2, [r3, #0]
 8000b56:	687b      	ldr	r3, [r7, #4]
 8000b58:	4413      	add	r3, r2
 8000b5a:	693a      	ldr	r2, [r7, #16]
 8000b5c:	429a      	cmp	r2, r3
 8000b5e:	d207      	bcs.n	8000b70 <_sbrk+0x40>
  {
    errno = ENOMEM;
 8000b60:	f002 fc3c 	bl	80033dc <__errno>
 8000b64:	4603      	mov	r3, r0
 8000b66:	220c      	movs	r2, #12
 8000b68:	601a      	str	r2, [r3, #0]
    return (void *)-1;
 8000b6a:	f04f 33ff 	mov.w	r3, #4294967295
 8000b6e:	e009      	b.n	8000b84 <_sbrk+0x54>
  }

  prev_heap_end = __sbrk_heap_end;
 8000b70:	4b08      	ldr	r3, [pc, #32]	@ (8000b94 <_sbrk+0x64>)
 8000b72:	681b      	ldr	r3, [r3, #0]
 8000b74:	60fb      	str	r3, [r7, #12]
  __sbrk_heap_end += incr;
 8000b76:	4b07      	ldr	r3, [pc, #28]	@ (8000b94 <_sbrk+0x64>)
 8000b78:	681a      	ldr	r2, [r3, #0]
 8000b7a:	687b      	ldr	r3, [r7, #4]
 8000b7c:	4413      	add	r3, r2
 8000b7e:	4a05      	ldr	r2, [pc, #20]	@ (8000b94 <_sbrk+0x64>)
 8000b80:	6013      	str	r3, [r2, #0]

  return (void *)prev_heap_end;
 8000b82:	68fb      	ldr	r3, [r7, #12]
}
 8000b84:	4618      	mov	r0, r3
 8000b86:	3718      	adds	r7, #24
 8000b88:	46bd      	mov	sp, r7
 8000b8a:	bd80      	pop	{r7, pc}
 8000b8c:	20020000 	.word	0x20020000
 8000b90:	00000400 	.word	0x00000400
 8000b94:	2000011c 	.word	0x2000011c
 8000b98:	20000270 	.word	0x20000270

08000b9c <SystemInit>:
  *         configuration.
  * @param  None
  * @retval None
  */
void SystemInit(void)
{
 8000b9c:	b480      	push	{r7}
 8000b9e:	af00      	add	r7, sp, #0
  /* FPU settings ------------------------------------------------------------*/
  #if (__FPU_PRESENT == 1) && (__FPU_USED == 1)
    SCB->CPACR |= ((3UL << 10*2)|(3UL << 11*2));  /* set CP10 and CP11 Full Access */
 8000ba0:	4b06      	ldr	r3, [pc, #24]	@ (8000bbc <SystemInit+0x20>)
 8000ba2:	f8d3 3088 	ldr.w	r3, [r3, #136]	@ 0x88
 8000ba6:	4a05      	ldr	r2, [pc, #20]	@ (8000bbc <SystemInit+0x20>)
 8000ba8:	f443 0370 	orr.w	r3, r3, #15728640	@ 0xf00000
 8000bac:	f8c2 3088 	str.w	r3, [r2, #136]	@ 0x88

  /* Configure the Vector Table location -------------------------------------*/
#if defined(USER_VECT_TAB_ADDRESS)
  SCB->VTOR = VECT_TAB_BASE_ADDRESS | VECT_TAB_OFFSET; /* Vector Table Relocation in Internal SRAM */
#endif /* USER_VECT_TAB_ADDRESS */
}
 8000bb0:	bf00      	nop
 8000bb2:	46bd      	mov	sp, r7
 8000bb4:	f85d 7b04 	ldr.w	r7, [sp], #4
 8000bb8:	4770      	bx	lr
 8000bba:	bf00      	nop
 8000bbc:	e000ed00 	.word	0xe000ed00

08000bc0 <Reset_Handler>:

    .section  .text.Reset_Handler
  .weak  Reset_Handler
  .type  Reset_Handler, %function
Reset_Handler:  
  ldr   sp, =_estack    		 /* set stack pointer */
 8000bc0:	f8df d034 	ldr.w	sp, [pc, #52]	@ 8000bf8 <LoopFillZerobss+0xe>

/* Call the clock system initialization function.*/
  bl  SystemInit   
 8000bc4:	f7ff ffea 	bl	8000b9c <SystemInit>

/* Copy the data segment initializers from flash to SRAM */  
  ldr r0, =_sdata
 8000bc8:	480c      	ldr	r0, [pc, #48]	@ (8000bfc <LoopFillZerobss+0x12>)
  ldr r1, =_edata
 8000bca:	490d      	ldr	r1, [pc, #52]	@ (8000c00 <LoopFillZerobss+0x16>)
  ldr r2, =_sidata
 8000bcc:	4a0d      	ldr	r2, [pc, #52]	@ (8000c04 <LoopFillZerobss+0x1a>)
  movs r3, #0
 8000bce:	2300      	movs	r3, #0
  b LoopCopyDataInit
 8000bd0:	e002      	b.n	8000bd8 <LoopCopyDataInit>

08000bd2 <CopyDataInit>:

CopyDataInit:
  ldr r4, [r2, r3]
 8000bd2:	58d4      	ldr	r4, [r2, r3]
  str r4, [r0, r3]
 8000bd4:	50c4      	str	r4, [r0, r3]
  adds r3, r3, #4
 8000bd6:	3304      	adds	r3, #4

08000bd8 <LoopCopyDataInit>:

LoopCopyDataInit:
  adds r4, r0, r3
 8000bd8:	18c4      	adds	r4, r0, r3
  cmp r4, r1
 8000bda:	428c      	cmp	r4, r1
  bcc CopyDataInit
 8000bdc:	d3f9      	bcc.n	8000bd2 <CopyDataInit>
  
/* Zero fill the bss segment. */
  ldr r2, =_sbss
 8000bde:	4a0a      	ldr	r2, [pc, #40]	@ (8000c08 <LoopFillZerobss+0x1e>)
  ldr r4, =_ebss
 8000be0:	4c0a      	ldr	r4, [pc, #40]	@ (8000c0c <LoopFillZerobss+0x22>)
  movs r3, #0
 8000be2:	2300      	movs	r3, #0
  b LoopFillZerobss
 8000be4:	e001      	b.n	8000bea <LoopFillZerobss>

08000be6 <FillZerobss>:

FillZerobss:
  str  r3, [r2]
 8000be6:	6013      	str	r3, [r2, #0]
  adds r2, r2, #4
 8000be8:	3204      	adds	r2, #4

08000bea <LoopFillZerobss>:

LoopFillZerobss:
  cmp r2, r4
 8000bea:	42a2      	cmp	r2, r4
  bcc FillZerobss
 8000bec:	d3fb      	bcc.n	8000be6 <FillZerobss>

/* Call static constructors */
    bl __libc_init_array
 8000bee:	f002 fbfb 	bl	80033e8 <__libc_init_array>
/* Call the application's entry point.*/
  bl  main
 8000bf2:	f7ff fcbd 	bl	8000570 <main>
  bx  lr    
 8000bf6:	4770      	bx	lr
  ldr   sp, =_estack    		 /* set stack pointer */
 8000bf8:	20020000 	.word	0x20020000
  ldr r0, =_sdata
 8000bfc:	20000000 	.word	0x20000000
  ldr r1, =_edata
 8000c00:	2000005c 	.word	0x2000005c
  ldr r2, =_sidata
 8000c04:	08003d54 	.word	0x08003d54
  ldr r2, =_sbss
 8000c08:	2000005c 	.word	0x2000005c
  ldr r4, =_ebss
 8000c0c:	2000026c 	.word	0x2000026c

08000c10 <ADC_IRQHandler>:
 * @retval None       
*/
    .section  .text.Default_Handler,"ax",%progbits
Default_Handler:
Infinite_Loop:
  b  Infinite_Loop
 8000c10:	e7fe      	b.n	8000c10 <ADC_IRQHandler>
	...

08000c14 <HAL_Init>:
  *         need to ensure that the SysTick time base is always set to 1 millisecond
  *         to have correct HAL operation.
  * @retval HAL status
  */
HAL_StatusTypeDef HAL_Init(void)
{
 8000c14:	b580      	push	{r7, lr}
 8000c16:	af00      	add	r7, sp, #0
  /* Configure Flash prefetch, Instruction cache, Data cache */ 
#if (INSTRUCTION_CACHE_ENABLE != 0U)
  __HAL_FLASH_INSTRUCTION_CACHE_ENABLE();
 8000c18:	4b0e      	ldr	r3, [pc, #56]	@ (8000c54 <HAL_Init+0x40>)
 8000c1a:	681b      	ldr	r3, [r3, #0]
 8000c1c:	4a0d      	ldr	r2, [pc, #52]	@ (8000c54 <HAL_Init+0x40>)
 8000c1e:	f443 7300 	orr.w	r3, r3, #512	@ 0x200
 8000c22:	6013      	str	r3, [r2, #0]
#endif /* INSTRUCTION_CACHE_ENABLE */

#if (DATA_CACHE_ENABLE != 0U)
  __HAL_FLASH_DATA_CACHE_ENABLE();
 8000c24:	4b0b      	ldr	r3, [pc, #44]	@ (8000c54 <HAL_Init+0x40>)
 8000c26:	681b      	ldr	r3, [r3, #0]
 8000c28:	4a0a      	ldr	r2, [pc, #40]	@ (8000c54 <HAL_Init+0x40>)
 8000c2a:	f443 6380 	orr.w	r3, r3, #1024	@ 0x400
 8000c2e:	6013      	str	r3, [r2, #0]
#endif /* DATA_CACHE_ENABLE */

#if (PREFETCH_ENABLE != 0U)
  __HAL_FLASH_PREFETCH_BUFFER_ENABLE();
 8000c30:	4b08      	ldr	r3, [pc, #32]	@ (8000c54 <HAL_Init+0x40>)
 8000c32:	681b      	ldr	r3, [r3, #0]
 8000c34:	4a07      	ldr	r2, [pc, #28]	@ (8000c54 <HAL_Init+0x40>)
 8000c36:	f443 7380 	orr.w	r3, r3, #256	@ 0x100
 8000c3a:	6013      	str	r3, [r2, #0]
#endif /* PREFETCH_ENABLE */

  /* Set Interrupt Group Priority */
  HAL_NVIC_SetPriorityGrouping(NVIC_PRIORITYGROUP_4);
 8000c3c:	2003      	movs	r0, #3
 8000c3e:	f000 f931 	bl	8000ea4 <HAL_NVIC_SetPriorityGrouping>

  /* Use systick as time base source and configure 1ms tick (default clock after Reset is HSI) */
  HAL_InitTick(TICK_INT_PRIORITY);
 8000c42:	200f      	movs	r0, #15
 8000c44:	f000 f808 	bl	8000c58 <HAL_InitTick>

  /* Init the low level hardware */
  HAL_MspInit();
 8000c48:	f7ff fe8a 	bl	8000960 <HAL_MspInit>

  /* Return function status */
  return HAL_OK;
 8000c4c:	2300      	movs	r3, #0
}
 8000c4e:	4618      	mov	r0, r3
 8000c50:	bd80      	pop	{r7, pc}
 8000c52:	bf00      	nop
 8000c54:	40023c00 	.word	0x40023c00

08000c58 <HAL_InitTick>:
  *       implementation  in user file.
  * @param TickPriority Tick interrupt priority.
  * @retval HAL status
  */
__weak HAL_StatusTypeDef HAL_InitTick(uint32_t TickPriority)
{
 8000c58:	b580      	push	{r7, lr}
 8000c5a:	b082      	sub	sp, #8
 8000c5c:	af00      	add	r7, sp, #0
 8000c5e:	6078      	str	r0, [r7, #4]
  /* Configure the SysTick to have interrupt in 1ms time basis*/
  if (HAL_SYSTICK_Config(SystemCoreClock / (1000U / uwTickFreq)) > 0U)
 8000c60:	4b12      	ldr	r3, [pc, #72]	@ (8000cac <HAL_InitTick+0x54>)
 8000c62:	681a      	ldr	r2, [r3, #0]
 8000c64:	4b12      	ldr	r3, [pc, #72]	@ (8000cb0 <HAL_InitTick+0x58>)
 8000c66:	781b      	ldrb	r3, [r3, #0]
 8000c68:	4619      	mov	r1, r3
 8000c6a:	f44f 737a 	mov.w	r3, #1000	@ 0x3e8
 8000c6e:	fbb3 f3f1 	udiv	r3, r3, r1
 8000c72:	fbb2 f3f3 	udiv	r3, r2, r3
 8000c76:	4618      	mov	r0, r3
 8000c78:	f000 f93b 	bl	8000ef2 <HAL_SYSTICK_Config>
 8000c7c:	4603      	mov	r3, r0
 8000c7e:	2b00      	cmp	r3, #0
 8000c80:	d001      	beq.n	8000c86 <HAL_InitTick+0x2e>
  {
    return HAL_ERROR;
 8000c82:	2301      	movs	r3, #1
 8000c84:	e00e      	b.n	8000ca4 <HAL_InitTick+0x4c>
  }

  /* Configure the SysTick IRQ priority */
  if (TickPriority < (1UL << __NVIC_PRIO_BITS))
 8000c86:	687b      	ldr	r3, [r7, #4]
 8000c88:	2b0f      	cmp	r3, #15
 8000c8a:	d80a      	bhi.n	8000ca2 <HAL_InitTick+0x4a>
  {
    HAL_NVIC_SetPriority(SysTick_IRQn, TickPriority, 0U);
 8000c8c:	2200      	movs	r2, #0
 8000c8e:	6879      	ldr	r1, [r7, #4]
 8000c90:	f04f 30ff 	mov.w	r0, #4294967295
 8000c94:	f000 f911 	bl	8000eba <HAL_NVIC_SetPriority>
    uwTickPrio = TickPriority;
 8000c98:	4a06      	ldr	r2, [pc, #24]	@ (8000cb4 <HAL_InitTick+0x5c>)
 8000c9a:	687b      	ldr	r3, [r7, #4]
 8000c9c:	6013      	str	r3, [r2, #0]
  {
    return HAL_ERROR;
  }

  /* Return function status */
  return HAL_OK;
 8000c9e:	2300      	movs	r3, #0
 8000ca0:	e000      	b.n	8000ca4 <HAL_InitTick+0x4c>
    return HAL_ERROR;
 8000ca2:	2301      	movs	r3, #1
}
 8000ca4:	4618      	mov	r0, r3
 8000ca6:	3708      	adds	r7, #8
 8000ca8:	46bd      	mov	sp, r7
 8000caa:	bd80      	pop	{r7, pc}
 8000cac:	20000000 	.word	0x20000000
 8000cb0:	20000008 	.word	0x20000008
 8000cb4:	20000004 	.word	0x20000004

08000cb8 <HAL_IncTick>:
 * @note This function is declared as __weak to be overwritten in case of other 
  *      implementations in user file.
  * @retval None
  */
__weak void HAL_IncTick(void)
{
 8000cb8:	b480      	push	{r7}
 8000cba:	af00      	add	r7, sp, #0
  uwTick += uwTickFreq;
 8000cbc:	4b06      	ldr	r3, [pc, #24]	@ (8000cd8 <HAL_IncTick+0x20>)
 8000cbe:	781b      	ldrb	r3, [r3, #0]
 8000cc0:	461a      	mov	r2, r3
 8000cc2:	4b06      	ldr	r3, [pc, #24]	@ (8000cdc <HAL_IncTick+0x24>)
 8000cc4:	681b      	ldr	r3, [r3, #0]
 8000cc6:	4413      	add	r3, r2
 8000cc8:	4a04      	ldr	r2, [pc, #16]	@ (8000cdc <HAL_IncTick+0x24>)
 8000cca:	6013      	str	r3, [r2, #0]
}
 8000ccc:	bf00      	nop
 8000cce:	46bd      	mov	sp, r7
 8000cd0:	f85d 7b04 	ldr.w	r7, [sp], #4
 8000cd4:	4770      	bx	lr
 8000cd6:	bf00      	nop
 8000cd8:	20000008 	.word	0x20000008
 8000cdc:	20000120 	.word	0x20000120

08000ce0 <HAL_GetTick>:
  * @note This function is declared as __weak to be overwritten in case of other 
  *       implementations in user file.
  * @retval tick value
  */
__weak uint32_t HAL_GetTick(void)
{
 8000ce0:	b480      	push	{r7}
 8000ce2:	af00      	add	r7, sp, #0
  return uwTick;
 8000ce4:	4b03      	ldr	r3, [pc, #12]	@ (8000cf4 <HAL_GetTick+0x14>)
 8000ce6:	681b      	ldr	r3, [r3, #0]
}
 8000ce8:	4618      	mov	r0, r3
 8000cea:	46bd      	mov	sp, r7
 8000cec:	f85d 7b04 	ldr.w	r7, [sp], #4
 8000cf0:	4770      	bx	lr
 8000cf2:	bf00      	nop
 8000cf4:	20000120 	.word	0x20000120

08000cf8 <HAL_Delay>:
  *       implementations in user file.
  * @param Delay specifies the delay time length, in milliseconds.
  * @retval None
  */
__weak void HAL_Delay(uint32_t Delay)
{
 8000cf8:	b580      	push	{r7, lr}
 8000cfa:	b084      	sub	sp, #16
 8000cfc:	af00      	add	r7, sp, #0
 8000cfe:	6078      	str	r0, [r7, #4]
  uint32_t tickstart = HAL_GetTick();
 8000d00:	f7ff ffee 	bl	8000ce0 <HAL_GetTick>
 8000d04:	60b8      	str	r0, [r7, #8]
  uint32_t wait = Delay;
 8000d06:	687b      	ldr	r3, [r7, #4]
 8000d08:	60fb      	str	r3, [r7, #12]

  /* Add a freq to guarantee minimum wait */
  if (wait < HAL_MAX_DELAY)
 8000d0a:	68fb      	ldr	r3, [r7, #12]
 8000d0c:	f1b3 3fff 	cmp.w	r3, #4294967295
 8000d10:	d005      	beq.n	8000d1e <HAL_Delay+0x26>
  {
    wait += (uint32_t)(uwTickFreq);
 8000d12:	4b0a      	ldr	r3, [pc, #40]	@ (8000d3c <HAL_Delay+0x44>)
 8000d14:	781b      	ldrb	r3, [r3, #0]
 8000d16:	461a      	mov	r2, r3
 8000d18:	68fb      	ldr	r3, [r7, #12]
 8000d1a:	4413      	add	r3, r2
 8000d1c:	60fb      	str	r3, [r7, #12]
  }

  while((HAL_GetTick() - tickstart) < wait)
 8000d1e:	bf00      	nop
 8000d20:	f7ff ffde 	bl	8000ce0 <HAL_GetTick>
 8000d24:	4602      	mov	r2, r0
 8000d26:	68bb      	ldr	r3, [r7, #8]
 8000d28:	1ad3      	subs	r3, r2, r3
 8000d2a:	68fa      	ldr	r2, [r7, #12]
 8000d2c:	429a      	cmp	r2, r3
 8000d2e:	d8f7      	bhi.n	8000d20 <HAL_Delay+0x28>
  {
  }
}
 8000d30:	bf00      	nop
 8000d32:	bf00      	nop
 8000d34:	3710      	adds	r7, #16
 8000d36:	46bd      	mov	sp, r7
 8000d38:	bd80      	pop	{r7, pc}
 8000d3a:	bf00      	nop
 8000d3c:	20000008 	.word	0x20000008

08000d40 <__NVIC_SetPriorityGrouping>:
           In case of a conflict between priority grouping and available
           priority bits (__NVIC_PRIO_BITS), the smallest possible priority group is set.
  \param [in]      PriorityGroup  Priority grouping field.
 */
__STATIC_INLINE void __NVIC_SetPriorityGrouping(uint32_t PriorityGroup)
{
 8000d40:	b480      	push	{r7}
 8000d42:	b085      	sub	sp, #20
 8000d44:	af00      	add	r7, sp, #0
 8000d46:	6078      	str	r0, [r7, #4]
  uint32_t reg_value;
  uint32_t PriorityGroupTmp = (PriorityGroup & (uint32_t)0x07UL);             /* only values 0..7 are used          */
 8000d48:	687b      	ldr	r3, [r7, #4]
 8000d4a:	f003 0307 	and.w	r3, r3, #7
 8000d4e:	60fb      	str	r3, [r7, #12]

  reg_value  =  SCB->AIRCR;                                                   /* read old register configuration    */
 8000d50:	4b0c      	ldr	r3, [pc, #48]	@ (8000d84 <__NVIC_SetPriorityGrouping+0x44>)
 8000d52:	68db      	ldr	r3, [r3, #12]
 8000d54:	60bb      	str	r3, [r7, #8]
  reg_value &= ~((uint32_t)(SCB_AIRCR_VECTKEY_Msk | SCB_AIRCR_PRIGROUP_Msk)); /* clear bits to change               */
 8000d56:	68ba      	ldr	r2, [r7, #8]
 8000d58:	f64f 03ff 	movw	r3, #63743	@ 0xf8ff
 8000d5c:	4013      	ands	r3, r2
 8000d5e:	60bb      	str	r3, [r7, #8]
  reg_value  =  (reg_value                                   |
                ((uint32_t)0x5FAUL << SCB_AIRCR_VECTKEY_Pos) |
                (PriorityGroupTmp << SCB_AIRCR_PRIGROUP_Pos)  );              /* Insert write key and priority group */
 8000d60:	68fb      	ldr	r3, [r7, #12]
 8000d62:	021a      	lsls	r2, r3, #8
                ((uint32_t)0x5FAUL << SCB_AIRCR_VECTKEY_Pos) |
 8000d64:	68bb      	ldr	r3, [r7, #8]
 8000d66:	4313      	orrs	r3, r2
  reg_value  =  (reg_value                                   |
 8000d68:	f043 63bf 	orr.w	r3, r3, #100139008	@ 0x5f80000
 8000d6c:	f443 3300 	orr.w	r3, r3, #131072	@ 0x20000
 8000d70:	60bb      	str	r3, [r7, #8]
  SCB->AIRCR =  reg_value;
 8000d72:	4a04      	ldr	r2, [pc, #16]	@ (8000d84 <__NVIC_SetPriorityGrouping+0x44>)
 8000d74:	68bb      	ldr	r3, [r7, #8]
 8000d76:	60d3      	str	r3, [r2, #12]
}
 8000d78:	bf00      	nop
 8000d7a:	3714      	adds	r7, #20
 8000d7c:	46bd      	mov	sp, r7
 8000d7e:	f85d 7b04 	ldr.w	r7, [sp], #4
 8000d82:	4770      	bx	lr
 8000d84:	e000ed00 	.word	0xe000ed00

08000d88 <__NVIC_GetPriorityGrouping>:
  \brief   Get Priority Grouping
  \details Reads the priority grouping field from the NVIC Interrupt Controller.
  \return                Priority grouping field (SCB->AIRCR [10:8] PRIGROUP field).
 */
__STATIC_INLINE uint32_t __NVIC_GetPriorityGrouping(void)
{
 8000d88:	b480      	push	{r7}
 8000d8a:	af00      	add	r7, sp, #0
  return ((uint32_t)((SCB->AIRCR & SCB_AIRCR_PRIGROUP_Msk) >> SCB_AIRCR_PRIGROUP_Pos));
 8000d8c:	4b04      	ldr	r3, [pc, #16]	@ (8000da0 <__NVIC_GetPriorityGrouping+0x18>)
 8000d8e:	68db      	ldr	r3, [r3, #12]
 8000d90:	0a1b      	lsrs	r3, r3, #8
 8000d92:	f003 0307 	and.w	r3, r3, #7
}
 8000d96:	4618      	mov	r0, r3
 8000d98:	46bd      	mov	sp, r7
 8000d9a:	f85d 7b04 	ldr.w	r7, [sp], #4
 8000d9e:	4770      	bx	lr
 8000da0:	e000ed00 	.word	0xe000ed00

08000da4 <__NVIC_SetPriority>:
  \param [in]      IRQn  Interrupt number.
  \param [in]  priority  Priority to set.
  \note    The priority cannot be set for every processor exception.
 */
__STATIC_INLINE void __NVIC_SetPriority(IRQn_Type IRQn, uint32_t priority)
{
 8000da4:	b480      	push	{r7}
 8000da6:	b083      	sub	sp, #12
 8000da8:	af00      	add	r7, sp, #0
 8000daa:	4603      	mov	r3, r0
 8000dac:	6039      	str	r1, [r7, #0]
 8000dae:	71fb      	strb	r3, [r7, #7]
  if ((int32_t)(IRQn) >= 0)
 8000db0:	f997 3007 	ldrsb.w	r3, [r7, #7]
 8000db4:	2b00      	cmp	r3, #0
 8000db6:	db0a      	blt.n	8000dce <__NVIC_SetPriority+0x2a>
  {
    NVIC->IP[((uint32_t)IRQn)]               = (uint8_t)((priority << (8U - __NVIC_PRIO_BITS)) & (uint32_t)0xFFUL);
 8000db8:	683b      	ldr	r3, [r7, #0]
 8000dba:	b2da      	uxtb	r2, r3
 8000dbc:	490c      	ldr	r1, [pc, #48]	@ (8000df0 <__NVIC_SetPriority+0x4c>)
 8000dbe:	f997 3007 	ldrsb.w	r3, [r7, #7]
 8000dc2:	0112      	lsls	r2, r2, #4
 8000dc4:	b2d2      	uxtb	r2, r2
 8000dc6:	440b      	add	r3, r1
 8000dc8:	f883 2300 	strb.w	r2, [r3, #768]	@ 0x300
  }
  else
  {
    SCB->SHP[(((uint32_t)IRQn) & 0xFUL)-4UL] = (uint8_t)((priority << (8U - __NVIC_PRIO_BITS)) & (uint32_t)0xFFUL);
  }
}
 8000dcc:	e00a      	b.n	8000de4 <__NVIC_SetPriority+0x40>
    SCB->SHP[(((uint32_t)IRQn) & 0xFUL)-4UL] = (uint8_t)((priority << (8U - __NVIC_PRIO_BITS)) & (uint32_t)0xFFUL);
 8000dce:	683b      	ldr	r3, [r7, #0]
 8000dd0:	b2da      	uxtb	r2, r3
 8000dd2:	4908      	ldr	r1, [pc, #32]	@ (8000df4 <__NVIC_SetPriority+0x50>)
 8000dd4:	79fb      	ldrb	r3, [r7, #7]
 8000dd6:	f003 030f 	and.w	r3, r3, #15
 8000dda:	3b04      	subs	r3, #4
 8000ddc:	0112      	lsls	r2, r2, #4
 8000dde:	b2d2      	uxtb	r2, r2
 8000de0:	440b      	add	r3, r1
 8000de2:	761a      	strb	r2, [r3, #24]
}
 8000de4:	bf00      	nop
 8000de6:	370c      	adds	r7, #12
 8000de8:	46bd      	mov	sp, r7
 8000dea:	f85d 7b04 	ldr.w	r7, [sp], #4
 8000dee:	4770      	bx	lr
 8000df0:	e000e100 	.word	0xe000e100
 8000df4:	e000ed00 	.word	0xe000ed00

08000df8 <NVIC_EncodePriority>:
  \param [in]   PreemptPriority  Preemptive priority value (starting from 0).
  \param [in]       SubPriority  Subpriority value (starting from 0).
  \return                        Encoded priority. Value can be used in the function \ref NVIC_SetPriority().
 */
__STATIC_INLINE uint32_t NVIC_EncodePriority (uint32_t PriorityGroup, uint32_t PreemptPriority, uint32_t SubPriority)
{
 8000df8:	b480      	push	{r7}
 8000dfa:	b089      	sub	sp, #36	@ 0x24
 8000dfc:	af00      	add	r7, sp, #0
 8000dfe:	60f8      	str	r0, [r7, #12]
 8000e00:	60b9      	str	r1, [r7, #8]
 8000e02:	607a      	str	r2, [r7, #4]
  uint32_t PriorityGroupTmp = (PriorityGroup & (uint32_t)0x07UL);   /* only values 0..7 are used          */
 8000e04:	68fb      	ldr	r3, [r7, #12]
 8000e06:	f003 0307 	and.w	r3, r3, #7
 8000e0a:	61fb      	str	r3, [r7, #28]
  uint32_t PreemptPriorityBits;
  uint32_t SubPriorityBits;

  PreemptPriorityBits = ((7UL - PriorityGroupTmp) > (uint32_t)(__NVIC_PRIO_BITS)) ? (uint32_t)(__NVIC_PRIO_BITS) : (uint32_t)(7UL - PriorityGroupTmp);
 8000e0c:	69fb      	ldr	r3, [r7, #28]
 8000e0e:	f1c3 0307 	rsb	r3, r3, #7
 8000e12:	2b04      	cmp	r3, #4
 8000e14:	bf28      	it	cs
 8000e16:	2304      	movcs	r3, #4
 8000e18:	61bb      	str	r3, [r7, #24]
  SubPriorityBits     = ((PriorityGroupTmp + (uint32_t)(__NVIC_PRIO_BITS)) < (uint32_t)7UL) ? (uint32_t)0UL : (uint32_t)((PriorityGroupTmp - 7UL) + (uint32_t)(__NVIC_PRIO_BITS));
 8000e1a:	69fb      	ldr	r3, [r7, #28]
 8000e1c:	3304      	adds	r3, #4
 8000e1e:	2b06      	cmp	r3, #6
 8000e20:	d902      	bls.n	8000e28 <NVIC_EncodePriority+0x30>
 8000e22:	69fb      	ldr	r3, [r7, #28]
 8000e24:	3b03      	subs	r3, #3
 8000e26:	e000      	b.n	8000e2a <NVIC_EncodePriority+0x32>
 8000e28:	2300      	movs	r3, #0
 8000e2a:	617b      	str	r3, [r7, #20]

  return (
           ((PreemptPriority & (uint32_t)((1UL << (PreemptPriorityBits)) - 1UL)) << SubPriorityBits) |
 8000e2c:	f04f 32ff 	mov.w	r2, #4294967295
 8000e30:	69bb      	ldr	r3, [r7, #24]
 8000e32:	fa02 f303 	lsl.w	r3, r2, r3
 8000e36:	43da      	mvns	r2, r3
 8000e38:	68bb      	ldr	r3, [r7, #8]
 8000e3a:	401a      	ands	r2, r3
 8000e3c:	697b      	ldr	r3, [r7, #20]
 8000e3e:	409a      	lsls	r2, r3
           ((SubPriority     & (uint32_t)((1UL << (SubPriorityBits    )) - 1UL)))
 8000e40:	f04f 31ff 	mov.w	r1, #4294967295
 8000e44:	697b      	ldr	r3, [r7, #20]
 8000e46:	fa01 f303 	lsl.w	r3, r1, r3
 8000e4a:	43d9      	mvns	r1, r3
 8000e4c:	687b      	ldr	r3, [r7, #4]
 8000e4e:	400b      	ands	r3, r1
           ((PreemptPriority & (uint32_t)((1UL << (PreemptPriorityBits)) - 1UL)) << SubPriorityBits) |
 8000e50:	4313      	orrs	r3, r2
         );
}
 8000e52:	4618      	mov	r0, r3
 8000e54:	3724      	adds	r7, #36	@ 0x24
 8000e56:	46bd      	mov	sp, r7
 8000e58:	f85d 7b04 	ldr.w	r7, [sp], #4
 8000e5c:	4770      	bx	lr
	...

08000e60 <SysTick_Config>:
  \note    When the variable <b>__Vendor_SysTickConfig</b> is set to 1, then the
           function <b>SysTick_Config</b> is not included. In this case, the file <b><i>device</i>.h</b>
           must contain a vendor-specific implementation of this function.
 */
__STATIC_INLINE uint32_t SysTick_Config(uint32_t ticks)
{
 8000e60:	b580      	push	{r7, lr}
 8000e62:	b082      	sub	sp, #8
 8000e64:	af00      	add	r7, sp, #0
 8000e66:	6078      	str	r0, [r7, #4]
  if ((ticks - 1UL) > SysTick_LOAD_RELOAD_Msk)
 8000e68:	687b      	ldr	r3, [r7, #4]
 8000e6a:	3b01      	subs	r3, #1
 8000e6c:	f1b3 7f80 	cmp.w	r3, #16777216	@ 0x1000000
 8000e70:	d301      	bcc.n	8000e76 <SysTick_Config+0x16>
  {
    return (1UL);                                                   /* Reload value impossible */
 8000e72:	2301      	movs	r3, #1
 8000e74:	e00f      	b.n	8000e96 <SysTick_Config+0x36>
  }

  SysTick->LOAD  = (uint32_t)(ticks - 1UL);                         /* set reload register */
 8000e76:	4a0a      	ldr	r2, [pc, #40]	@ (8000ea0 <SysTick_Config+0x40>)
 8000e78:	687b      	ldr	r3, [r7, #4]
 8000e7a:	3b01      	subs	r3, #1
 8000e7c:	6053      	str	r3, [r2, #4]
  NVIC_SetPriority (SysTick_IRQn, (1UL << __NVIC_PRIO_BITS) - 1UL); /* set Priority for Systick Interrupt */
 8000e7e:	210f      	movs	r1, #15
 8000e80:	f04f 30ff 	mov.w	r0, #4294967295
 8000e84:	f7ff ff8e 	bl	8000da4 <__NVIC_SetPriority>
  SysTick->VAL   = 0UL;                                             /* Load the SysTick Counter Value */
 8000e88:	4b05      	ldr	r3, [pc, #20]	@ (8000ea0 <SysTick_Config+0x40>)
 8000e8a:	2200      	movs	r2, #0
 8000e8c:	609a      	str	r2, [r3, #8]
  SysTick->CTRL  = SysTick_CTRL_CLKSOURCE_Msk |
 8000e8e:	4b04      	ldr	r3, [pc, #16]	@ (8000ea0 <SysTick_Config+0x40>)
 8000e90:	2207      	movs	r2, #7
 8000e92:	601a      	str	r2, [r3, #0]
                   SysTick_CTRL_TICKINT_Msk   |
                   SysTick_CTRL_ENABLE_Msk;                         /* Enable SysTick IRQ and SysTick Timer */
  return (0UL);                                                     /* Function successful */
 8000e94:	2300      	movs	r3, #0
}
 8000e96:	4618      	mov	r0, r3
 8000e98:	3708      	adds	r7, #8
 8000e9a:	46bd      	mov	sp, r7
 8000e9c:	bd80      	pop	{r7, pc}
 8000e9e:	bf00      	nop
 8000ea0:	e000e010 	.word	0xe000e010

08000ea4 <HAL_NVIC_SetPriorityGrouping>:
  * @note   When the NVIC_PriorityGroup_0 is selected, IRQ preemption is no more possible. 
  *         The pending IRQ priority will be managed only by the subpriority. 
  * @retval None
  */
void HAL_NVIC_SetPriorityGrouping(uint32_t PriorityGroup)
{
 8000ea4:	b580      	push	{r7, lr}
 8000ea6:	b082      	sub	sp, #8
 8000ea8:	af00      	add	r7, sp, #0
 8000eaa:	6078      	str	r0, [r7, #4]
  /* Check the parameters */
  assert_param(IS_NVIC_PRIORITY_GROUP(PriorityGroup));
  
  /* Set the PRIGROUP[10:8] bits according to the PriorityGroup parameter value */
  NVIC_SetPriorityGrouping(PriorityGroup);
 8000eac:	6878      	ldr	r0, [r7, #4]
 8000eae:	f7ff ff47 	bl	8000d40 <__NVIC_SetPriorityGrouping>
}
 8000eb2:	bf00      	nop
 8000eb4:	3708      	adds	r7, #8
 8000eb6:	46bd      	mov	sp, r7
 8000eb8:	bd80      	pop	{r7, pc}

08000eba <HAL_NVIC_SetPriority>:
  *         This parameter can be a value between 0 and 15
  *         A lower priority value indicates a higher priority.          
  * @retval None
  */
void HAL_NVIC_SetPriority(IRQn_Type IRQn, uint32_t PreemptPriority, uint32_t SubPriority)
{ 
 8000eba:	b580      	push	{r7, lr}
 8000ebc:	b086      	sub	sp, #24
 8000ebe:	af00      	add	r7, sp, #0
 8000ec0:	4603      	mov	r3, r0
 8000ec2:	60b9      	str	r1, [r7, #8]
 8000ec4:	607a      	str	r2, [r7, #4]
 8000ec6:	73fb      	strb	r3, [r7, #15]
  uint32_t prioritygroup = 0x00U;
 8000ec8:	2300      	movs	r3, #0
 8000eca:	617b      	str	r3, [r7, #20]
  
  /* Check the parameters */
  assert_param(IS_NVIC_SUB_PRIORITY(SubPriority));
  assert_param(IS_NVIC_PREEMPTION_PRIORITY(PreemptPriority));
  
  prioritygroup = NVIC_GetPriorityGrouping();
 8000ecc:	f7ff ff5c 	bl	8000d88 <__NVIC_GetPriorityGrouping>
 8000ed0:	6178      	str	r0, [r7, #20]
  
  NVIC_SetPriority(IRQn, NVIC_EncodePriority(prioritygroup, PreemptPriority, SubPriority));
 8000ed2:	687a      	ldr	r2, [r7, #4]
 8000ed4:	68b9      	ldr	r1, [r7, #8]
 8000ed6:	6978      	ldr	r0, [r7, #20]
 8000ed8:	f7ff ff8e 	bl	8000df8 <NVIC_EncodePriority>
 8000edc:	4602      	mov	r2, r0
 8000ede:	f997 300f 	ldrsb.w	r3, [r7, #15]
 8000ee2:	4611      	mov	r1, r2
 8000ee4:	4618      	mov	r0, r3
 8000ee6:	f7ff ff5d 	bl	8000da4 <__NVIC_SetPriority>
}
 8000eea:	bf00      	nop
 8000eec:	3718      	adds	r7, #24
 8000eee:	46bd      	mov	sp, r7
 8000ef0:	bd80      	pop	{r7, pc}

08000ef2 <HAL_SYSTICK_Config>:
  * @param  TicksNumb Specifies the ticks Number of ticks between two interrupts.
  * @retval status:  - 0  Function succeeded.
  *                  - 1  Function failed.
  */
uint32_t HAL_SYSTICK_Config(uint32_t TicksNumb)
{
 8000ef2:	b580      	push	{r7, lr}
 8000ef4:	b082      	sub	sp, #8
 8000ef6:	af00      	add	r7, sp, #0
 8000ef8:	6078      	str	r0, [r7, #4]
   return SysTick_Config(TicksNumb);
 8000efa:	6878      	ldr	r0, [r7, #4]
 8000efc:	f7ff ffb0 	bl	8000e60 <SysTick_Config>
 8000f00:	4603      	mov	r3, r0
}
 8000f02:	4618      	mov	r0, r3
 8000f04:	3708      	adds	r7, #8
 8000f06:	46bd      	mov	sp, r7
 8000f08:	bd80      	pop	{r7, pc}
	...

08000f0c <HAL_GPIO_Init>:
  * @param  GPIO_Init pointer to a GPIO_InitTypeDef structure that contains
  *         the configuration information for the specified GPIO peripheral.
  * @retval None
  */
void HAL_GPIO_Init(GPIO_TypeDef  *GPIOx, GPIO_InitTypeDef *GPIO_Init)
{
 8000f0c:	b480      	push	{r7}
 8000f0e:	b089      	sub	sp, #36	@ 0x24
 8000f10:	af00      	add	r7, sp, #0
 8000f12:	6078      	str	r0, [r7, #4]
 8000f14:	6039      	str	r1, [r7, #0]
  uint32_t position;
  uint32_t ioposition = 0x00U;
 8000f16:	2300      	movs	r3, #0
 8000f18:	617b      	str	r3, [r7, #20]
  uint32_t iocurrent = 0x00U;
 8000f1a:	2300      	movs	r3, #0
 8000f1c:	613b      	str	r3, [r7, #16]
  uint32_t temp = 0x00U;
 8000f1e:	2300      	movs	r3, #0
 8000f20:	61bb      	str	r3, [r7, #24]
  assert_param(IS_GPIO_ALL_INSTANCE(GPIOx));
  assert_param(IS_GPIO_PIN(GPIO_Init->Pin));
  assert_param(IS_GPIO_MODE(GPIO_Init->Mode));

  /* Configure the port pins */
  for(position = 0U; position < GPIO_NUMBER; position++)
 8000f22:	2300      	movs	r3, #0
 8000f24:	61fb      	str	r3, [r7, #28]
 8000f26:	e159      	b.n	80011dc <HAL_GPIO_Init+0x2d0>
  {
    /* Get the IO position */
    ioposition = 0x01U << position;
 8000f28:	2201      	movs	r2, #1
 8000f2a:	69fb      	ldr	r3, [r7, #28]
 8000f2c:	fa02 f303 	lsl.w	r3, r2, r3
 8000f30:	617b      	str	r3, [r7, #20]
    /* Get the current IO position */
    iocurrent = (uint32_t)(GPIO_Init->Pin) & ioposition;
 8000f32:	683b      	ldr	r3, [r7, #0]
 8000f34:	681b      	ldr	r3, [r3, #0]
 8000f36:	697a      	ldr	r2, [r7, #20]
 8000f38:	4013      	ands	r3, r2
 8000f3a:	613b      	str	r3, [r7, #16]

    if(iocurrent == ioposition)
 8000f3c:	693a      	ldr	r2, [r7, #16]
 8000f3e:	697b      	ldr	r3, [r7, #20]
 8000f40:	429a      	cmp	r2, r3
 8000f42:	f040 8148 	bne.w	80011d6 <HAL_GPIO_Init+0x2ca>
    {
      /*--------------------- GPIO Mode Configuration ------------------------*/
      /* In case of Output or Alternate function mode selection */
      if(((GPIO_Init->Mode & GPIO_MODE) == MODE_OUTPUT) || \
 8000f46:	683b      	ldr	r3, [r7, #0]
 8000f48:	685b      	ldr	r3, [r3, #4]
 8000f4a:	f003 0303 	and.w	r3, r3, #3
 8000f4e:	2b01      	cmp	r3, #1
 8000f50:	d005      	beq.n	8000f5e <HAL_GPIO_Init+0x52>
          (GPIO_Init->Mode & GPIO_MODE) == MODE_AF)
 8000f52:	683b      	ldr	r3, [r7, #0]
 8000f54:	685b      	ldr	r3, [r3, #4]
 8000f56:	f003 0303 	and.w	r3, r3, #3
      if(((GPIO_Init->Mode & GPIO_MODE) == MODE_OUTPUT) || \
 8000f5a:	2b02      	cmp	r3, #2
 8000f5c:	d130      	bne.n	8000fc0 <HAL_GPIO_Init+0xb4>
      {
        /* Check the Speed parameter */
        assert_param(IS_GPIO_SPEED(GPIO_Init->Speed));
        /* Configure the IO Speed */
        temp = GPIOx->OSPEEDR; 
 8000f5e:	687b      	ldr	r3, [r7, #4]
 8000f60:	689b      	ldr	r3, [r3, #8]
 8000f62:	61bb      	str	r3, [r7, #24]
        temp &= ~(GPIO_OSPEEDER_OSPEEDR0 << (position * 2U));
 8000f64:	69fb      	ldr	r3, [r7, #28]
 8000f66:	005b      	lsls	r3, r3, #1
 8000f68:	2203      	movs	r2, #3
 8000f6a:	fa02 f303 	lsl.w	r3, r2, r3
 8000f6e:	43db      	mvns	r3, r3
 8000f70:	69ba      	ldr	r2, [r7, #24]
 8000f72:	4013      	ands	r3, r2
 8000f74:	61bb      	str	r3, [r7, #24]
        temp |= (GPIO_Init->Speed << (position * 2U));
 8000f76:	683b      	ldr	r3, [r7, #0]
 8000f78:	68da      	ldr	r2, [r3, #12]
 8000f7a:	69fb      	ldr	r3, [r7, #28]
 8000f7c:	005b      	lsls	r3, r3, #1
 8000f7e:	fa02 f303 	lsl.w	r3, r2, r3
 8000f82:	69ba      	ldr	r2, [r7, #24]
 8000f84:	4313      	orrs	r3, r2
 8000f86:	61bb      	str	r3, [r7, #24]
        GPIOx->OSPEEDR = temp;
 8000f88:	687b      	ldr	r3, [r7, #4]
 8000f8a:	69ba      	ldr	r2, [r7, #24]
 8000f8c:	609a      	str	r2, [r3, #8]

        /* Configure the IO Output Type */
        temp = GPIOx->OTYPER;
 8000f8e:	687b      	ldr	r3, [r7, #4]
 8000f90:	685b      	ldr	r3, [r3, #4]
 8000f92:	61bb      	str	r3, [r7, #24]
        temp &= ~(GPIO_OTYPER_OT_0 << position) ;
 8000f94:	2201      	movs	r2, #1
 8000f96:	69fb      	ldr	r3, [r7, #28]
 8000f98:	fa02 f303 	lsl.w	r3, r2, r3
 8000f9c:	43db      	mvns	r3, r3
 8000f9e:	69ba      	ldr	r2, [r7, #24]
 8000fa0:	4013      	ands	r3, r2
 8000fa2:	61bb      	str	r3, [r7, #24]
        temp |= (((GPIO_Init->Mode & OUTPUT_TYPE) >> OUTPUT_TYPE_Pos) << position);
 8000fa4:	683b      	ldr	r3, [r7, #0]
 8000fa6:	685b      	ldr	r3, [r3, #4]
 8000fa8:	091b      	lsrs	r3, r3, #4
 8000faa:	f003 0201 	and.w	r2, r3, #1
 8000fae:	69fb      	ldr	r3, [r7, #28]
 8000fb0:	fa02 f303 	lsl.w	r3, r2, r3
 8000fb4:	69ba      	ldr	r2, [r7, #24]
 8000fb6:	4313      	orrs	r3, r2
 8000fb8:	61bb      	str	r3, [r7, #24]
        GPIOx->OTYPER = temp;
 8000fba:	687b      	ldr	r3, [r7, #4]
 8000fbc:	69ba      	ldr	r2, [r7, #24]
 8000fbe:	605a      	str	r2, [r3, #4]
       }

      if((GPIO_Init->Mode & GPIO_MODE) != MODE_ANALOG)
 8000fc0:	683b      	ldr	r3, [r7, #0]
 8000fc2:	685b      	ldr	r3, [r3, #4]
 8000fc4:	f003 0303 	and.w	r3, r3, #3
 8000fc8:	2b03      	cmp	r3, #3
 8000fca:	d017      	beq.n	8000ffc <HAL_GPIO_Init+0xf0>
      {
        /* Check the parameters */
        assert_param(IS_GPIO_PULL(GPIO_Init->Pull));
        
        /* Activate the Pull-up or Pull down resistor for the current IO */
        temp = GPIOx->PUPDR;
 8000fcc:	687b      	ldr	r3, [r7, #4]
 8000fce:	68db      	ldr	r3, [r3, #12]
 8000fd0:	61bb      	str	r3, [r7, #24]
        temp &= ~(GPIO_PUPDR_PUPDR0 << (position * 2U));
 8000fd2:	69fb      	ldr	r3, [r7, #28]
 8000fd4:	005b      	lsls	r3, r3, #1
 8000fd6:	2203      	movs	r2, #3
 8000fd8:	fa02 f303 	lsl.w	r3, r2, r3
 8000fdc:	43db      	mvns	r3, r3
 8000fde:	69ba      	ldr	r2, [r7, #24]
 8000fe0:	4013      	ands	r3, r2
 8000fe2:	61bb      	str	r3, [r7, #24]
        temp |= ((GPIO_Init->Pull) << (position * 2U));
 8000fe4:	683b      	ldr	r3, [r7, #0]
 8000fe6:	689a      	ldr	r2, [r3, #8]
 8000fe8:	69fb      	ldr	r3, [r7, #28]
 8000fea:	005b      	lsls	r3, r3, #1
 8000fec:	fa02 f303 	lsl.w	r3, r2, r3
 8000ff0:	69ba      	ldr	r2, [r7, #24]
 8000ff2:	4313      	orrs	r3, r2
 8000ff4:	61bb      	str	r3, [r7, #24]
        GPIOx->PUPDR = temp;
 8000ff6:	687b      	ldr	r3, [r7, #4]
 8000ff8:	69ba      	ldr	r2, [r7, #24]
 8000ffa:	60da      	str	r2, [r3, #12]
      }

      /* In case of Alternate function mode selection */
      if((GPIO_Init->Mode & GPIO_MODE) == MODE_AF)
 8000ffc:	683b      	ldr	r3, [r7, #0]
 8000ffe:	685b      	ldr	r3, [r3, #4]
 8001000:	f003 0303 	and.w	r3, r3, #3
 8001004:	2b02      	cmp	r3, #2
 8001006:	d123      	bne.n	8001050 <HAL_GPIO_Init+0x144>
      {
        /* Check the Alternate function parameter */
        assert_param(IS_GPIO_AF(GPIO_Init->Alternate));
        /* Configure Alternate function mapped with the current IO */
        temp = GPIOx->AFR[position >> 3U];
 8001008:	69fb      	ldr	r3, [r7, #28]
 800100a:	08da      	lsrs	r2, r3, #3
 800100c:	687b      	ldr	r3, [r7, #4]
 800100e:	3208      	adds	r2, #8
 8001010:	f853 3022 	ldr.w	r3, [r3, r2, lsl #2]
 8001014:	61bb      	str	r3, [r7, #24]
        temp &= ~(0xFU << ((uint32_t)(position & 0x07U) * 4U)) ;
 8001016:	69fb      	ldr	r3, [r7, #28]
 8001018:	f003 0307 	and.w	r3, r3, #7
 800101c:	009b      	lsls	r3, r3, #2
 800101e:	220f      	movs	r2, #15
 8001020:	fa02 f303 	lsl.w	r3, r2, r3
 8001024:	43db      	mvns	r3, r3
 8001026:	69ba      	ldr	r2, [r7, #24]
 8001028:	4013      	ands	r3, r2
 800102a:	61bb      	str	r3, [r7, #24]
        temp |= ((uint32_t)(GPIO_Init->Alternate) << (((uint32_t)position & 0x07U) * 4U));
 800102c:	683b      	ldr	r3, [r7, #0]
 800102e:	691a      	ldr	r2, [r3, #16]
 8001030:	69fb      	ldr	r3, [r7, #28]
 8001032:	f003 0307 	and.w	r3, r3, #7
 8001036:	009b      	lsls	r3, r3, #2
 8001038:	fa02 f303 	lsl.w	r3, r2, r3
 800103c:	69ba      	ldr	r2, [r7, #24]
 800103e:	4313      	orrs	r3, r2
 8001040:	61bb      	str	r3, [r7, #24]
        GPIOx->AFR[position >> 3U] = temp;
 8001042:	69fb      	ldr	r3, [r7, #28]
 8001044:	08da      	lsrs	r2, r3, #3
 8001046:	687b      	ldr	r3, [r7, #4]
 8001048:	3208      	adds	r2, #8
 800104a:	69b9      	ldr	r1, [r7, #24]
 800104c:	f843 1022 	str.w	r1, [r3, r2, lsl #2]
      }

      /* Configure IO Direction mode (Input, Output, Alternate or Analog) */
      temp = GPIOx->MODER;
 8001050:	687b      	ldr	r3, [r7, #4]
 8001052:	681b      	ldr	r3, [r3, #0]
 8001054:	61bb      	str	r3, [r7, #24]
      temp &= ~(GPIO_MODER_MODER0 << (position * 2U));
 8001056:	69fb      	ldr	r3, [r7, #28]
 8001058:	005b      	lsls	r3, r3, #1
 800105a:	2203      	movs	r2, #3
 800105c:	fa02 f303 	lsl.w	r3, r2, r3
 8001060:	43db      	mvns	r3, r3
 8001062:	69ba      	ldr	r2, [r7, #24]
 8001064:	4013      	ands	r3, r2
 8001066:	61bb      	str	r3, [r7, #24]
      temp |= ((GPIO_Init->Mode & GPIO_MODE) << (position * 2U));
 8001068:	683b      	ldr	r3, [r7, #0]
 800106a:	685b      	ldr	r3, [r3, #4]
 800106c:	f003 0203 	and.w	r2, r3, #3
 8001070:	69fb      	ldr	r3, [r7, #28]
 8001072:	005b      	lsls	r3, r3, #1
 8001074:	fa02 f303 	lsl.w	r3, r2, r3
 8001078:	69ba      	ldr	r2, [r7, #24]
 800107a:	4313      	orrs	r3, r2
 800107c:	61bb      	str	r3, [r7, #24]
      GPIOx->MODER = temp;
 800107e:	687b      	ldr	r3, [r7, #4]
 8001080:	69ba      	ldr	r2, [r7, #24]
 8001082:	601a      	str	r2, [r3, #0]

      /*--------------------- EXTI Mode Configuration ------------------------*/
      /* Configure the External Interrupt or event for the current IO */
      if((GPIO_Init->Mode & EXTI_MODE) != 0x00U)
 8001084:	683b      	ldr	r3, [r7, #0]
 8001086:	685b      	ldr	r3, [r3, #4]
 8001088:	f403 3340 	and.w	r3, r3, #196608	@ 0x30000
 800108c:	2b00      	cmp	r3, #0
 800108e:	f000 80a2 	beq.w	80011d6 <HAL_GPIO_Init+0x2ca>
      {
        /* Enable SYSCFG Clock */
        __HAL_RCC_SYSCFG_CLK_ENABLE();
 8001092:	2300      	movs	r3, #0
 8001094:	60fb      	str	r3, [r7, #12]
 8001096:	4b57      	ldr	r3, [pc, #348]	@ (80011f4 <HAL_GPIO_Init+0x2e8>)
 8001098:	6c5b      	ldr	r3, [r3, #68]	@ 0x44
 800109a:	4a56      	ldr	r2, [pc, #344]	@ (80011f4 <HAL_GPIO_Init+0x2e8>)
 800109c:	f443 4380 	orr.w	r3, r3, #16384	@ 0x4000
 80010a0:	6453      	str	r3, [r2, #68]	@ 0x44
 80010a2:	4b54      	ldr	r3, [pc, #336]	@ (80011f4 <HAL_GPIO_Init+0x2e8>)
 80010a4:	6c5b      	ldr	r3, [r3, #68]	@ 0x44
 80010a6:	f403 4380 	and.w	r3, r3, #16384	@ 0x4000
 80010aa:	60fb      	str	r3, [r7, #12]
 80010ac:	68fb      	ldr	r3, [r7, #12]

        temp = SYSCFG->EXTICR[position >> 2U];
 80010ae:	4a52      	ldr	r2, [pc, #328]	@ (80011f8 <HAL_GPIO_Init+0x2ec>)
 80010b0:	69fb      	ldr	r3, [r7, #28]
 80010b2:	089b      	lsrs	r3, r3, #2
 80010b4:	3302      	adds	r3, #2
 80010b6:	f852 3023 	ldr.w	r3, [r2, r3, lsl #2]
 80010ba:	61bb      	str	r3, [r7, #24]
        temp &= ~(0x0FU << (4U * (position & 0x03U)));
 80010bc:	69fb      	ldr	r3, [r7, #28]
 80010be:	f003 0303 	and.w	r3, r3, #3
 80010c2:	009b      	lsls	r3, r3, #2
 80010c4:	220f      	movs	r2, #15
 80010c6:	fa02 f303 	lsl.w	r3, r2, r3
 80010ca:	43db      	mvns	r3, r3
 80010cc:	69ba      	ldr	r2, [r7, #24]
 80010ce:	4013      	ands	r3, r2
 80010d0:	61bb      	str	r3, [r7, #24]
        temp |= ((uint32_t)(GPIO_GET_INDEX(GPIOx)) << (4U * (position & 0x03U)));
 80010d2:	687b      	ldr	r3, [r7, #4]
 80010d4:	4a49      	ldr	r2, [pc, #292]	@ (80011fc <HAL_GPIO_Init+0x2f0>)
 80010d6:	4293      	cmp	r3, r2
 80010d8:	d019      	beq.n	800110e <HAL_GPIO_Init+0x202>
 80010da:	687b      	ldr	r3, [r7, #4]
 80010dc:	4a48      	ldr	r2, [pc, #288]	@ (8001200 <HAL_GPIO_Init+0x2f4>)
 80010de:	4293      	cmp	r3, r2
 80010e0:	d013      	beq.n	800110a <HAL_GPIO_Init+0x1fe>
 80010e2:	687b      	ldr	r3, [r7, #4]
 80010e4:	4a47      	ldr	r2, [pc, #284]	@ (8001204 <HAL_GPIO_Init+0x2f8>)
 80010e6:	4293      	cmp	r3, r2
 80010e8:	d00d      	beq.n	8001106 <HAL_GPIO_Init+0x1fa>
 80010ea:	687b      	ldr	r3, [r7, #4]
 80010ec:	4a46      	ldr	r2, [pc, #280]	@ (8001208 <HAL_GPIO_Init+0x2fc>)
 80010ee:	4293      	cmp	r3, r2
 80010f0:	d007      	beq.n	8001102 <HAL_GPIO_Init+0x1f6>
 80010f2:	687b      	ldr	r3, [r7, #4]
 80010f4:	4a45      	ldr	r2, [pc, #276]	@ (800120c <HAL_GPIO_Init+0x300>)
 80010f6:	4293      	cmp	r3, r2
 80010f8:	d101      	bne.n	80010fe <HAL_GPIO_Init+0x1f2>
 80010fa:	2304      	movs	r3, #4
 80010fc:	e008      	b.n	8001110 <HAL_GPIO_Init+0x204>
 80010fe:	2307      	movs	r3, #7
 8001100:	e006      	b.n	8001110 <HAL_GPIO_Init+0x204>
 8001102:	2303      	movs	r3, #3
 8001104:	e004      	b.n	8001110 <HAL_GPIO_Init+0x204>
 8001106:	2302      	movs	r3, #2
 8001108:	e002      	b.n	8001110 <HAL_GPIO_Init+0x204>
 800110a:	2301      	movs	r3, #1
 800110c:	e000      	b.n	8001110 <HAL_GPIO_Init+0x204>
 800110e:	2300      	movs	r3, #0
 8001110:	69fa      	ldr	r2, [r7, #28]
 8001112:	f002 0203 	and.w	r2, r2, #3
 8001116:	0092      	lsls	r2, r2, #2
 8001118:	4093      	lsls	r3, r2
 800111a:	69ba      	ldr	r2, [r7, #24]
 800111c:	4313      	orrs	r3, r2
 800111e:	61bb      	str	r3, [r7, #24]
        SYSCFG->EXTICR[position >> 2U] = temp;
 8001120:	4935      	ldr	r1, [pc, #212]	@ (80011f8 <HAL_GPIO_Init+0x2ec>)
 8001122:	69fb      	ldr	r3, [r7, #28]
 8001124:	089b      	lsrs	r3, r3, #2
 8001126:	3302      	adds	r3, #2
 8001128:	69ba      	ldr	r2, [r7, #24]
 800112a:	f841 2023 	str.w	r2, [r1, r3, lsl #2]

        /* Clear Rising Falling edge configuration */
        temp = EXTI->RTSR;
 800112e:	4b38      	ldr	r3, [pc, #224]	@ (8001210 <HAL_GPIO_Init+0x304>)
 8001130:	689b      	ldr	r3, [r3, #8]
 8001132:	61bb      	str	r3, [r7, #24]
        temp &= ~((uint32_t)iocurrent);
 8001134:	693b      	ldr	r3, [r7, #16]
 8001136:	43db      	mvns	r3, r3
 8001138:	69ba      	ldr	r2, [r7, #24]
 800113a:	4013      	ands	r3, r2
 800113c:	61bb      	str	r3, [r7, #24]
        if((GPIO_Init->Mode & TRIGGER_RISING) != 0x00U)
 800113e:	683b      	ldr	r3, [r7, #0]
 8001140:	685b      	ldr	r3, [r3, #4]
 8001142:	f403 1380 	and.w	r3, r3, #1048576	@ 0x100000
 8001146:	2b00      	cmp	r3, #0
 8001148:	d003      	beq.n	8001152 <HAL_GPIO_Init+0x246>
        {
          temp |= iocurrent;
 800114a:	69ba      	ldr	r2, [r7, #24]
 800114c:	693b      	ldr	r3, [r7, #16]
 800114e:	4313      	orrs	r3, r2
 8001150:	61bb      	str	r3, [r7, #24]
        }
        EXTI->RTSR = temp;
 8001152:	4a2f      	ldr	r2, [pc, #188]	@ (8001210 <HAL_GPIO_Init+0x304>)
 8001154:	69bb      	ldr	r3, [r7, #24]
 8001156:	6093      	str	r3, [r2, #8]

        temp = EXTI->FTSR;
 8001158:	4b2d      	ldr	r3, [pc, #180]	@ (8001210 <HAL_GPIO_Init+0x304>)
 800115a:	68db      	ldr	r3, [r3, #12]
 800115c:	61bb      	str	r3, [r7, #24]
        temp &= ~((uint32_t)iocurrent);
 800115e:	693b      	ldr	r3, [r7, #16]
 8001160:	43db      	mvns	r3, r3
 8001162:	69ba      	ldr	r2, [r7, #24]
 8001164:	4013      	ands	r3, r2
 8001166:	61bb      	str	r3, [r7, #24]
        if((GPIO_Init->Mode & TRIGGER_FALLING) != 0x00U)
 8001168:	683b      	ldr	r3, [r7, #0]
 800116a:	685b      	ldr	r3, [r3, #4]
 800116c:	f403 1300 	and.w	r3, r3, #2097152	@ 0x200000
 8001170:	2b00      	cmp	r3, #0
 8001172:	d003      	beq.n	800117c <HAL_GPIO_Init+0x270>
        {
          temp |= iocurrent;
 8001174:	69ba      	ldr	r2, [r7, #24]
 8001176:	693b      	ldr	r3, [r7, #16]
 8001178:	4313      	orrs	r3, r2
 800117a:	61bb      	str	r3, [r7, #24]
        }
        EXTI->FTSR = temp;
 800117c:	4a24      	ldr	r2, [pc, #144]	@ (8001210 <HAL_GPIO_Init+0x304>)
 800117e:	69bb      	ldr	r3, [r7, #24]
 8001180:	60d3      	str	r3, [r2, #12]

        temp = EXTI->EMR;
 8001182:	4b23      	ldr	r3, [pc, #140]	@ (8001210 <HAL_GPIO_Init+0x304>)
 8001184:	685b      	ldr	r3, [r3, #4]
 8001186:	61bb      	str	r3, [r7, #24]
        temp &= ~((uint32_t)iocurrent);
 8001188:	693b      	ldr	r3, [r7, #16]
 800118a:	43db      	mvns	r3, r3
 800118c:	69ba      	ldr	r2, [r7, #24]
 800118e:	4013      	ands	r3, r2
 8001190:	61bb      	str	r3, [r7, #24]
        if((GPIO_Init->Mode & EXTI_EVT) != 0x00U)
 8001192:	683b      	ldr	r3, [r7, #0]
 8001194:	685b      	ldr	r3, [r3, #4]
 8001196:	f403 3300 	and.w	r3, r3, #131072	@ 0x20000
 800119a:	2b00      	cmp	r3, #0
 800119c:	d003      	beq.n	80011a6 <HAL_GPIO_Init+0x29a>
        {
          temp |= iocurrent;
 800119e:	69ba      	ldr	r2, [r7, #24]
 80011a0:	693b      	ldr	r3, [r7, #16]
 80011a2:	4313      	orrs	r3, r2
 80011a4:	61bb      	str	r3, [r7, #24]
        }
        EXTI->EMR = temp;
 80011a6:	4a1a      	ldr	r2, [pc, #104]	@ (8001210 <HAL_GPIO_Init+0x304>)
 80011a8:	69bb      	ldr	r3, [r7, #24]
 80011aa:	6053      	str	r3, [r2, #4]

        /* Clear EXTI line configuration */
        temp = EXTI->IMR;
 80011ac:	4b18      	ldr	r3, [pc, #96]	@ (8001210 <HAL_GPIO_Init+0x304>)
 80011ae:	681b      	ldr	r3, [r3, #0]
 80011b0:	61bb      	str	r3, [r7, #24]
        temp &= ~((uint32_t)iocurrent);
 80011b2:	693b      	ldr	r3, [r7, #16]
 80011b4:	43db      	mvns	r3, r3
 80011b6:	69ba      	ldr	r2, [r7, #24]
 80011b8:	4013      	ands	r3, r2
 80011ba:	61bb      	str	r3, [r7, #24]
        if((GPIO_Init->Mode & EXTI_IT) != 0x00U)
 80011bc:	683b      	ldr	r3, [r7, #0]
 80011be:	685b      	ldr	r3, [r3, #4]
 80011c0:	f403 3380 	and.w	r3, r3, #65536	@ 0x10000
 80011c4:	2b00      	cmp	r3, #0
 80011c6:	d003      	beq.n	80011d0 <HAL_GPIO_Init+0x2c4>
        {
          temp |= iocurrent;
 80011c8:	69ba      	ldr	r2, [r7, #24]
 80011ca:	693b      	ldr	r3, [r7, #16]
 80011cc:	4313      	orrs	r3, r2
 80011ce:	61bb      	str	r3, [r7, #24]
        }
        EXTI->IMR = temp;
 80011d0:	4a0f      	ldr	r2, [pc, #60]	@ (8001210 <HAL_GPIO_Init+0x304>)
 80011d2:	69bb      	ldr	r3, [r7, #24]
 80011d4:	6013      	str	r3, [r2, #0]
  for(position = 0U; position < GPIO_NUMBER; position++)
 80011d6:	69fb      	ldr	r3, [r7, #28]
 80011d8:	3301      	adds	r3, #1
 80011da:	61fb      	str	r3, [r7, #28]
 80011dc:	69fb      	ldr	r3, [r7, #28]
 80011de:	2b0f      	cmp	r3, #15
 80011e0:	f67f aea2 	bls.w	8000f28 <HAL_GPIO_Init+0x1c>
      }
    }
  }
}
 80011e4:	bf00      	nop
 80011e6:	bf00      	nop
 80011e8:	3724      	adds	r7, #36	@ 0x24
 80011ea:	46bd      	mov	sp, r7
 80011ec:	f85d 7b04 	ldr.w	r7, [sp], #4
 80011f0:	4770      	bx	lr
 80011f2:	bf00      	nop
 80011f4:	40023800 	.word	0x40023800
 80011f8:	40013800 	.word	0x40013800
 80011fc:	40020000 	.word	0x40020000
 8001200:	40020400 	.word	0x40020400
 8001204:	40020800 	.word	0x40020800
 8001208:	40020c00 	.word	0x40020c00
 800120c:	40021000 	.word	0x40021000
 8001210:	40013c00 	.word	0x40013c00

08001214 <HAL_GPIO_WritePin>:
  *            @arg GPIO_PIN_RESET: to clear the port pin
  *            @arg GPIO_PIN_SET: to set the port pin
  * @retval None
  */
void HAL_GPIO_WritePin(GPIO_TypeDef* GPIOx, uint16_t GPIO_Pin, GPIO_PinState PinState)
{
 8001214:	b480      	push	{r7}
 8001216:	b083      	sub	sp, #12
 8001218:	af00      	add	r7, sp, #0
 800121a:	6078      	str	r0, [r7, #4]
 800121c:	460b      	mov	r3, r1
 800121e:	807b      	strh	r3, [r7, #2]
 8001220:	4613      	mov	r3, r2
 8001222:	707b      	strb	r3, [r7, #1]
  /* Check the parameters */
  assert_param(IS_GPIO_PIN(GPIO_Pin));
  assert_param(IS_GPIO_PIN_ACTION(PinState));

  if(PinState != GPIO_PIN_RESET)
 8001224:	787b      	ldrb	r3, [r7, #1]
 8001226:	2b00      	cmp	r3, #0
 8001228:	d003      	beq.n	8001232 <HAL_GPIO_WritePin+0x1e>
  {
    GPIOx->BSRR = GPIO_Pin;
 800122a:	887a      	ldrh	r2, [r7, #2]
 800122c:	687b      	ldr	r3, [r7, #4]
 800122e:	619a      	str	r2, [r3, #24]
  }
  else
  {
    GPIOx->BSRR = (uint32_t)GPIO_Pin << 16U;
  }
}
 8001230:	e003      	b.n	800123a <HAL_GPIO_WritePin+0x26>
    GPIOx->BSRR = (uint32_t)GPIO_Pin << 16U;
 8001232:	887b      	ldrh	r3, [r7, #2]
 8001234:	041a      	lsls	r2, r3, #16
 8001236:	687b      	ldr	r3, [r7, #4]
 8001238:	619a      	str	r2, [r3, #24]
}
 800123a:	bf00      	nop
 800123c:	370c      	adds	r7, #12
 800123e:	46bd      	mov	sp, r7
 8001240:	f85d 7b04 	ldr.w	r7, [sp], #4
 8001244:	4770      	bx	lr

08001246 <HAL_GPIO_TogglePin>:
  *                      x can be (A..I) to select the GPIO peripheral for STM32F40XX and STM32F427X devices.
  * @param  GPIO_Pin Specifies the pins to be toggled.
  * @retval None
  */
void HAL_GPIO_TogglePin(GPIO_TypeDef* GPIOx, uint16_t GPIO_Pin)
{
 8001246:	b480      	push	{r7}
 8001248:	b085      	sub	sp, #20
 800124a:	af00      	add	r7, sp, #0
 800124c:	6078      	str	r0, [r7, #4]
 800124e:	460b      	mov	r3, r1
 8001250:	807b      	strh	r3, [r7, #2]

  /* Check the parameters */
  assert_param(IS_GPIO_PIN(GPIO_Pin));

  /* get current Output Data Register value */
  odr = GPIOx->ODR;
 8001252:	687b      	ldr	r3, [r7, #4]
 8001254:	695b      	ldr	r3, [r3, #20]
 8001256:	60fb      	str	r3, [r7, #12]

  /* Set selected pins that were at low level, and reset ones that were high */
  GPIOx->BSRR = ((odr & GPIO_Pin) << GPIO_NUMBER) | (~odr & GPIO_Pin);
 8001258:	887a      	ldrh	r2, [r7, #2]
 800125a:	68fb      	ldr	r3, [r7, #12]
 800125c:	4013      	ands	r3, r2
 800125e:	041a      	lsls	r2, r3, #16
 8001260:	68fb      	ldr	r3, [r7, #12]
 8001262:	43d9      	mvns	r1, r3
 8001264:	887b      	ldrh	r3, [r7, #2]
 8001266:	400b      	ands	r3, r1
 8001268:	431a      	orrs	r2, r3
 800126a:	687b      	ldr	r3, [r7, #4]
 800126c:	619a      	str	r2, [r3, #24]
}
 800126e:	bf00      	nop
 8001270:	3714      	adds	r7, #20
 8001272:	46bd      	mov	sp, r7
 8001274:	f85d 7b04 	ldr.w	r7, [sp], #4
 8001278:	4770      	bx	lr
	...

0800127c <HAL_I2C_Init>:
  * @param  hi2c Pointer to a I2C_HandleTypeDef structure that contains
  *                the configuration information for the specified I2C.
  * @retval HAL status
  */
HAL_StatusTypeDef HAL_I2C_Init(I2C_HandleTypeDef *hi2c)
{
 800127c:	b580      	push	{r7, lr}
 800127e:	b084      	sub	sp, #16
 8001280:	af00      	add	r7, sp, #0
 8001282:	6078      	str	r0, [r7, #4]
  uint32_t freqrange;
  uint32_t pclk1;

  /* Check the I2C handle allocation */
  if (hi2c == NULL)
 8001284:	687b      	ldr	r3, [r7, #4]
 8001286:	2b00      	cmp	r3, #0
 8001288:	d101      	bne.n	800128e <HAL_I2C_Init+0x12>
  {
    return HAL_ERROR;
 800128a:	2301      	movs	r3, #1
 800128c:	e12b      	b.n	80014e6 <HAL_I2C_Init+0x26a>
  assert_param(IS_I2C_DUAL_ADDRESS(hi2c->Init.DualAddressMode));
  assert_param(IS_I2C_OWN_ADDRESS2(hi2c->Init.OwnAddress2));
  assert_param(IS_I2C_GENERAL_CALL(hi2c->Init.GeneralCallMode));
  assert_param(IS_I2C_NO_STRETCH(hi2c->Init.NoStretchMode));

  if (hi2c->State == HAL_I2C_STATE_RESET)
 800128e:	687b      	ldr	r3, [r7, #4]
 8001290:	f893 303d 	ldrb.w	r3, [r3, #61]	@ 0x3d
 8001294:	b2db      	uxtb	r3, r3
 8001296:	2b00      	cmp	r3, #0
 8001298:	d106      	bne.n	80012a8 <HAL_I2C_Init+0x2c>
  {
    /* Allocate lock resource and initialize it */
    hi2c->Lock = HAL_UNLOCKED;
 800129a:	687b      	ldr	r3, [r7, #4]
 800129c:	2200      	movs	r2, #0
 800129e:	f883 203c 	strb.w	r2, [r3, #60]	@ 0x3c

    /* Init the low level hardware : GPIO, CLOCK, NVIC */
    hi2c->MspInitCallback(hi2c);
#else
    /* Init the low level hardware : GPIO, CLOCK, NVIC */
    HAL_I2C_MspInit(hi2c);
 80012a2:	6878      	ldr	r0, [r7, #4]
 80012a4:	f7ff fb84 	bl	80009b0 <HAL_I2C_MspInit>
#endif /* USE_HAL_I2C_REGISTER_CALLBACKS */
  }

  hi2c->State = HAL_I2C_STATE_BUSY;
 80012a8:	687b      	ldr	r3, [r7, #4]
 80012aa:	2224      	movs	r2, #36	@ 0x24
 80012ac:	f883 203d 	strb.w	r2, [r3, #61]	@ 0x3d

  /* Disable the selected I2C peripheral */
  __HAL_I2C_DISABLE(hi2c);
 80012b0:	687b      	ldr	r3, [r7, #4]
 80012b2:	681b      	ldr	r3, [r3, #0]
 80012b4:	681a      	ldr	r2, [r3, #0]
 80012b6:	687b      	ldr	r3, [r7, #4]
 80012b8:	681b      	ldr	r3, [r3, #0]
 80012ba:	f022 0201 	bic.w	r2, r2, #1
 80012be:	601a      	str	r2, [r3, #0]

  /*Reset I2C*/
  hi2c->Instance->CR1 |= I2C_CR1_SWRST;
 80012c0:	687b      	ldr	r3, [r7, #4]
 80012c2:	681b      	ldr	r3, [r3, #0]
 80012c4:	681a      	ldr	r2, [r3, #0]
 80012c6:	687b      	ldr	r3, [r7, #4]
 80012c8:	681b      	ldr	r3, [r3, #0]
 80012ca:	f442 4200 	orr.w	r2, r2, #32768	@ 0x8000
 80012ce:	601a      	str	r2, [r3, #0]
  hi2c->Instance->CR1 &= ~I2C_CR1_SWRST;
 80012d0:	687b      	ldr	r3, [r7, #4]
 80012d2:	681b      	ldr	r3, [r3, #0]
 80012d4:	681a      	ldr	r2, [r3, #0]
 80012d6:	687b      	ldr	r3, [r7, #4]
 80012d8:	681b      	ldr	r3, [r3, #0]
 80012da:	f422 4200 	bic.w	r2, r2, #32768	@ 0x8000
 80012de:	601a      	str	r2, [r3, #0]

  /* Get PCLK1 frequency */
  pclk1 = HAL_RCC_GetPCLK1Freq();
 80012e0:	f001 fc20 	bl	8002b24 <HAL_RCC_GetPCLK1Freq>
 80012e4:	60f8      	str	r0, [r7, #12]

  /* Check the minimum allowed PCLK1 frequency */
  if (I2C_MIN_PCLK_FREQ(pclk1, hi2c->Init.ClockSpeed) == 1U)
 80012e6:	687b      	ldr	r3, [r7, #4]
 80012e8:	685b      	ldr	r3, [r3, #4]
 80012ea:	4a81      	ldr	r2, [pc, #516]	@ (80014f0 <HAL_I2C_Init+0x274>)
 80012ec:	4293      	cmp	r3, r2
 80012ee:	d807      	bhi.n	8001300 <HAL_I2C_Init+0x84>
 80012f0:	68fb      	ldr	r3, [r7, #12]
 80012f2:	4a80      	ldr	r2, [pc, #512]	@ (80014f4 <HAL_I2C_Init+0x278>)
 80012f4:	4293      	cmp	r3, r2
 80012f6:	bf94      	ite	ls
 80012f8:	2301      	movls	r3, #1
 80012fa:	2300      	movhi	r3, #0
 80012fc:	b2db      	uxtb	r3, r3
 80012fe:	e006      	b.n	800130e <HAL_I2C_Init+0x92>
 8001300:	68fb      	ldr	r3, [r7, #12]
 8001302:	4a7d      	ldr	r2, [pc, #500]	@ (80014f8 <HAL_I2C_Init+0x27c>)
 8001304:	4293      	cmp	r3, r2
 8001306:	bf94      	ite	ls
 8001308:	2301      	movls	r3, #1
 800130a:	2300      	movhi	r3, #0
 800130c:	b2db      	uxtb	r3, r3
 800130e:	2b00      	cmp	r3, #0
 8001310:	d001      	beq.n	8001316 <HAL_I2C_Init+0x9a>
  {
    return HAL_ERROR;
 8001312:	2301      	movs	r3, #1
 8001314:	e0e7      	b.n	80014e6 <HAL_I2C_Init+0x26a>
  }

  /* Calculate frequency range */
  freqrange = I2C_FREQRANGE(pclk1);
 8001316:	68fb      	ldr	r3, [r7, #12]
 8001318:	4a78      	ldr	r2, [pc, #480]	@ (80014fc <HAL_I2C_Init+0x280>)
 800131a:	fba2 2303 	umull	r2, r3, r2, r3
 800131e:	0c9b      	lsrs	r3, r3, #18
 8001320:	60bb      	str	r3, [r7, #8]

  /*---------------------------- I2Cx CR2 Configuration ----------------------*/
  /* Configure I2Cx: Frequency range */
  MODIFY_REG(hi2c->Instance->CR2, I2C_CR2_FREQ, freqrange);
 8001322:	687b      	ldr	r3, [r7, #4]
 8001324:	681b      	ldr	r3, [r3, #0]
 8001326:	685b      	ldr	r3, [r3, #4]
 8001328:	f023 013f 	bic.w	r1, r3, #63	@ 0x3f
 800132c:	687b      	ldr	r3, [r7, #4]
 800132e:	681b      	ldr	r3, [r3, #0]
 8001330:	68ba      	ldr	r2, [r7, #8]
 8001332:	430a      	orrs	r2, r1
 8001334:	605a      	str	r2, [r3, #4]

  /*---------------------------- I2Cx TRISE Configuration --------------------*/
  /* Configure I2Cx: Rise Time */
  MODIFY_REG(hi2c->Instance->TRISE, I2C_TRISE_TRISE, I2C_RISE_TIME(freqrange, hi2c->Init.ClockSpeed));
 8001336:	687b      	ldr	r3, [r7, #4]
 8001338:	681b      	ldr	r3, [r3, #0]
 800133a:	6a1b      	ldr	r3, [r3, #32]
 800133c:	f023 013f 	bic.w	r1, r3, #63	@ 0x3f
 8001340:	687b      	ldr	r3, [r7, #4]
 8001342:	685b      	ldr	r3, [r3, #4]
 8001344:	4a6a      	ldr	r2, [pc, #424]	@ (80014f0 <HAL_I2C_Init+0x274>)
 8001346:	4293      	cmp	r3, r2
 8001348:	d802      	bhi.n	8001350 <HAL_I2C_Init+0xd4>
 800134a:	68bb      	ldr	r3, [r7, #8]
 800134c:	3301      	adds	r3, #1
 800134e:	e009      	b.n	8001364 <HAL_I2C_Init+0xe8>
 8001350:	68bb      	ldr	r3, [r7, #8]
 8001352:	f44f 7296 	mov.w	r2, #300	@ 0x12c
 8001356:	fb02 f303 	mul.w	r3, r2, r3
 800135a:	4a69      	ldr	r2, [pc, #420]	@ (8001500 <HAL_I2C_Init+0x284>)
 800135c:	fba2 2303 	umull	r2, r3, r2, r3
 8001360:	099b      	lsrs	r3, r3, #6
 8001362:	3301      	adds	r3, #1
 8001364:	687a      	ldr	r2, [r7, #4]
 8001366:	6812      	ldr	r2, [r2, #0]
 8001368:	430b      	orrs	r3, r1
 800136a:	6213      	str	r3, [r2, #32]

  /*---------------------------- I2Cx CCR Configuration ----------------------*/
  /* Configure I2Cx: Speed */
  MODIFY_REG(hi2c->Instance->CCR, (I2C_CCR_FS | I2C_CCR_DUTY | I2C_CCR_CCR), I2C_SPEED(pclk1, hi2c->Init.ClockSpeed, hi2c->Init.DutyCycle));
 800136c:	687b      	ldr	r3, [r7, #4]
 800136e:	681b      	ldr	r3, [r3, #0]
 8001370:	69db      	ldr	r3, [r3, #28]
 8001372:	f423 424f 	bic.w	r2, r3, #52992	@ 0xcf00
 8001376:	f022 02ff 	bic.w	r2, r2, #255	@ 0xff
 800137a:	687b      	ldr	r3, [r7, #4]
 800137c:	685b      	ldr	r3, [r3, #4]
 800137e:	495c      	ldr	r1, [pc, #368]	@ (80014f0 <HAL_I2C_Init+0x274>)
 8001380:	428b      	cmp	r3, r1
 8001382:	d819      	bhi.n	80013b8 <HAL_I2C_Init+0x13c>
 8001384:	68fb      	ldr	r3, [r7, #12]
 8001386:	1e59      	subs	r1, r3, #1
 8001388:	687b      	ldr	r3, [r7, #4]
 800138a:	685b      	ldr	r3, [r3, #4]
 800138c:	005b      	lsls	r3, r3, #1
 800138e:	fbb1 f3f3 	udiv	r3, r1, r3
 8001392:	1c59      	adds	r1, r3, #1
 8001394:	f640 73fc 	movw	r3, #4092	@ 0xffc
 8001398:	400b      	ands	r3, r1
 800139a:	2b00      	cmp	r3, #0
 800139c:	d00a      	beq.n	80013b4 <HAL_I2C_Init+0x138>
 800139e:	68fb      	ldr	r3, [r7, #12]
 80013a0:	1e59      	subs	r1, r3, #1
 80013a2:	687b      	ldr	r3, [r7, #4]
 80013a4:	685b      	ldr	r3, [r3, #4]
 80013a6:	005b      	lsls	r3, r3, #1
 80013a8:	fbb1 f3f3 	udiv	r3, r1, r3
 80013ac:	3301      	adds	r3, #1
 80013ae:	f3c3 030b 	ubfx	r3, r3, #0, #12
 80013b2:	e051      	b.n	8001458 <HAL_I2C_Init+0x1dc>
 80013b4:	2304      	movs	r3, #4
 80013b6:	e04f      	b.n	8001458 <HAL_I2C_Init+0x1dc>
 80013b8:	687b      	ldr	r3, [r7, #4]
 80013ba:	689b      	ldr	r3, [r3, #8]
 80013bc:	2b00      	cmp	r3, #0
 80013be:	d111      	bne.n	80013e4 <HAL_I2C_Init+0x168>
 80013c0:	68fb      	ldr	r3, [r7, #12]
 80013c2:	1e58      	subs	r0, r3, #1
 80013c4:	687b      	ldr	r3, [r7, #4]
 80013c6:	6859      	ldr	r1, [r3, #4]
 80013c8:	460b      	mov	r3, r1
 80013ca:	005b      	lsls	r3, r3, #1
 80013cc:	440b      	add	r3, r1
 80013ce:	fbb0 f3f3 	udiv	r3, r0, r3
 80013d2:	3301      	adds	r3, #1
 80013d4:	f3c3 030b 	ubfx	r3, r3, #0, #12
 80013d8:	2b00      	cmp	r3, #0
 80013da:	bf0c      	ite	eq
 80013dc:	2301      	moveq	r3, #1
 80013de:	2300      	movne	r3, #0
 80013e0:	b2db      	uxtb	r3, r3
 80013e2:	e012      	b.n	800140a <HAL_I2C_Init+0x18e>
 80013e4:	68fb      	ldr	r3, [r7, #12]
 80013e6:	1e58      	subs	r0, r3, #1
 80013e8:	687b      	ldr	r3, [r7, #4]
 80013ea:	6859      	ldr	r1, [r3, #4]
 80013ec:	460b      	mov	r3, r1
 80013ee:	009b      	lsls	r3, r3, #2
 80013f0:	440b      	add	r3, r1
 80013f2:	0099      	lsls	r1, r3, #2
 80013f4:	440b      	add	r3, r1
 80013f6:	fbb0 f3f3 	udiv	r3, r0, r3
 80013fa:	3301      	adds	r3, #1
 80013fc:	f3c3 030b 	ubfx	r3, r3, #0, #12
 8001400:	2b00      	cmp	r3, #0
 8001402:	bf0c      	ite	eq
 8001404:	2301      	moveq	r3, #1
 8001406:	2300      	movne	r3, #0
 8001408:	b2db      	uxtb	r3, r3
 800140a:	2b00      	cmp	r3, #0
 800140c:	d001      	beq.n	8001412 <HAL_I2C_Init+0x196>
 800140e:	2301      	movs	r3, #1
 8001410:	e022      	b.n	8001458 <HAL_I2C_Init+0x1dc>
 8001412:	687b      	ldr	r3, [r7, #4]
 8001414:	689b      	ldr	r3, [r3, #8]
 8001416:	2b00      	cmp	r3, #0
 8001418:	d10e      	bne.n	8001438 <HAL_I2C_Init+0x1bc>
 800141a:	68fb      	ldr	r3, [r7, #12]
 800141c:	1e58      	subs	r0, r3, #1
 800141e:	687b      	ldr	r3, [r7, #4]
 8001420:	6859      	ldr	r1, [r3, #4]
 8001422:	460b      	mov	r3, r1
 8001424:	005b      	lsls	r3, r3, #1
 8001426:	440b      	add	r3, r1
 8001428:	fbb0 f3f3 	udiv	r3, r0, r3
 800142c:	3301      	adds	r3, #1
 800142e:	f3c3 030b 	ubfx	r3, r3, #0, #12
 8001432:	f443 4300 	orr.w	r3, r3, #32768	@ 0x8000
 8001436:	e00f      	b.n	8001458 <HAL_I2C_Init+0x1dc>
 8001438:	68fb      	ldr	r3, [r7, #12]
 800143a:	1e58      	subs	r0, r3, #1
 800143c:	687b      	ldr	r3, [r7, #4]
 800143e:	6859      	ldr	r1, [r3, #4]
 8001440:	460b      	mov	r3, r1
 8001442:	009b      	lsls	r3, r3, #2
 8001444:	440b      	add	r3, r1
 8001446:	0099      	lsls	r1, r3, #2
 8001448:	440b      	add	r3, r1
 800144a:	fbb0 f3f3 	udiv	r3, r0, r3
 800144e:	3301      	adds	r3, #1
 8001450:	f3c3 030b 	ubfx	r3, r3, #0, #12
 8001454:	f443 4340 	orr.w	r3, r3, #49152	@ 0xc000
 8001458:	6879      	ldr	r1, [r7, #4]
 800145a:	6809      	ldr	r1, [r1, #0]
 800145c:	4313      	orrs	r3, r2
 800145e:	61cb      	str	r3, [r1, #28]

  /*---------------------------- I2Cx CR1 Configuration ----------------------*/
  /* Configure I2Cx: Generalcall and NoStretch mode */
  MODIFY_REG(hi2c->Instance->CR1, (I2C_CR1_ENGC | I2C_CR1_NOSTRETCH), (hi2c->Init.GeneralCallMode | hi2c->Init.NoStretchMode));
 8001460:	687b      	ldr	r3, [r7, #4]
 8001462:	681b      	ldr	r3, [r3, #0]
 8001464:	681b      	ldr	r3, [r3, #0]
 8001466:	f023 01c0 	bic.w	r1, r3, #192	@ 0xc0
 800146a:	687b      	ldr	r3, [r7, #4]
 800146c:	69da      	ldr	r2, [r3, #28]
 800146e:	687b      	ldr	r3, [r7, #4]
 8001470:	6a1b      	ldr	r3, [r3, #32]
 8001472:	431a      	orrs	r2, r3
 8001474:	687b      	ldr	r3, [r7, #4]
 8001476:	681b      	ldr	r3, [r3, #0]
 8001478:	430a      	orrs	r2, r1
 800147a:	601a      	str	r2, [r3, #0]

  /*---------------------------- I2Cx OAR1 Configuration ---------------------*/
  /* Configure I2Cx: Own Address1 and addressing mode */
  MODIFY_REG(hi2c->Instance->OAR1, (I2C_OAR1_ADDMODE | I2C_OAR1_ADD8_9 | I2C_OAR1_ADD1_7 | I2C_OAR1_ADD0), (hi2c->Init.AddressingMode | hi2c->Init.OwnAddress1));
 800147c:	687b      	ldr	r3, [r7, #4]
 800147e:	681b      	ldr	r3, [r3, #0]
 8001480:	689b      	ldr	r3, [r3, #8]
 8001482:	f423 4303 	bic.w	r3, r3, #33536	@ 0x8300
 8001486:	f023 03ff 	bic.w	r3, r3, #255	@ 0xff
 800148a:	687a      	ldr	r2, [r7, #4]
 800148c:	6911      	ldr	r1, [r2, #16]
 800148e:	687a      	ldr	r2, [r7, #4]
 8001490:	68d2      	ldr	r2, [r2, #12]
 8001492:	4311      	orrs	r1, r2
 8001494:	687a      	ldr	r2, [r7, #4]
 8001496:	6812      	ldr	r2, [r2, #0]
 8001498:	430b      	orrs	r3, r1
 800149a:	6093      	str	r3, [r2, #8]

  /*---------------------------- I2Cx OAR2 Configuration ---------------------*/
  /* Configure I2Cx: Dual mode and Own Address2 */
  MODIFY_REG(hi2c->Instance->OAR2, (I2C_OAR2_ENDUAL | I2C_OAR2_ADD2), (hi2c->Init.DualAddressMode | hi2c->Init.OwnAddress2));
 800149c:	687b      	ldr	r3, [r7, #4]
 800149e:	681b      	ldr	r3, [r3, #0]
 80014a0:	68db      	ldr	r3, [r3, #12]
 80014a2:	f023 01ff 	bic.w	r1, r3, #255	@ 0xff
 80014a6:	687b      	ldr	r3, [r7, #4]
 80014a8:	695a      	ldr	r2, [r3, #20]
 80014aa:	687b      	ldr	r3, [r7, #4]
 80014ac:	699b      	ldr	r3, [r3, #24]
 80014ae:	431a      	orrs	r2, r3
 80014b0:	687b      	ldr	r3, [r7, #4]
 80014b2:	681b      	ldr	r3, [r3, #0]
 80014b4:	430a      	orrs	r2, r1
 80014b6:	60da      	str	r2, [r3, #12]

  /* Enable the selected I2C peripheral */
  __HAL_I2C_ENABLE(hi2c);
 80014b8:	687b      	ldr	r3, [r7, #4]
 80014ba:	681b      	ldr	r3, [r3, #0]
 80014bc:	681a      	ldr	r2, [r3, #0]
 80014be:	687b      	ldr	r3, [r7, #4]
 80014c0:	681b      	ldr	r3, [r3, #0]
 80014c2:	f042 0201 	orr.w	r2, r2, #1
 80014c6:	601a      	str	r2, [r3, #0]

  hi2c->ErrorCode = HAL_I2C_ERROR_NONE;
 80014c8:	687b      	ldr	r3, [r7, #4]
 80014ca:	2200      	movs	r2, #0
 80014cc:	641a      	str	r2, [r3, #64]	@ 0x40
  hi2c->State = HAL_I2C_STATE_READY;
 80014ce:	687b      	ldr	r3, [r7, #4]
 80014d0:	2220      	movs	r2, #32
 80014d2:	f883 203d 	strb.w	r2, [r3, #61]	@ 0x3d
  hi2c->PreviousState = I2C_STATE_NONE;
 80014d6:	687b      	ldr	r3, [r7, #4]
 80014d8:	2200      	movs	r2, #0
 80014da:	631a      	str	r2, [r3, #48]	@ 0x30
  hi2c->Mode = HAL_I2C_MODE_NONE;
 80014dc:	687b      	ldr	r3, [r7, #4]
 80014de:	2200      	movs	r2, #0
 80014e0:	f883 203e 	strb.w	r2, [r3, #62]	@ 0x3e

  return HAL_OK;
 80014e4:	2300      	movs	r3, #0
}
 80014e6:	4618      	mov	r0, r3
 80014e8:	3710      	adds	r7, #16
 80014ea:	46bd      	mov	sp, r7
 80014ec:	bd80      	pop	{r7, pc}
 80014ee:	bf00      	nop
 80014f0:	000186a0 	.word	0x000186a0
 80014f4:	001e847f 	.word	0x001e847f
 80014f8:	003d08ff 	.word	0x003d08ff
 80014fc:	431bde83 	.word	0x431bde83
 8001500:	10624dd3 	.word	0x10624dd3

08001504 <HAL_I2C_Mem_Write>:
  * @param  Size Amount of data to be sent
  * @param  Timeout Timeout duration
  * @retval HAL status
  */
HAL_StatusTypeDef HAL_I2C_Mem_Write(I2C_HandleTypeDef *hi2c, uint16_t DevAddress, uint16_t MemAddress, uint16_t MemAddSize, uint8_t *pData, uint16_t Size, uint32_t Timeout)
{
 8001504:	b580      	push	{r7, lr}
 8001506:	b088      	sub	sp, #32
 8001508:	af02      	add	r7, sp, #8
 800150a:	60f8      	str	r0, [r7, #12]
 800150c:	4608      	mov	r0, r1
 800150e:	4611      	mov	r1, r2
 8001510:	461a      	mov	r2, r3
 8001512:	4603      	mov	r3, r0
 8001514:	817b      	strh	r3, [r7, #10]
 8001516:	460b      	mov	r3, r1
 8001518:	813b      	strh	r3, [r7, #8]
 800151a:	4613      	mov	r3, r2
 800151c:	80fb      	strh	r3, [r7, #6]
  /* Init tickstart for timeout management*/
  uint32_t tickstart = HAL_GetTick();
 800151e:	f7ff fbdf 	bl	8000ce0 <HAL_GetTick>
 8001522:	6178      	str	r0, [r7, #20]

  /* Check the parameters */
  assert_param(IS_I2C_MEMADD_SIZE(MemAddSize));

  if (hi2c->State == HAL_I2C_STATE_READY)
 8001524:	68fb      	ldr	r3, [r7, #12]
 8001526:	f893 303d 	ldrb.w	r3, [r3, #61]	@ 0x3d
 800152a:	b2db      	uxtb	r3, r3
 800152c:	2b20      	cmp	r3, #32
 800152e:	f040 80d9 	bne.w	80016e4 <HAL_I2C_Mem_Write+0x1e0>
  {
    /* Wait until BUSY flag is reset */
    if (I2C_WaitOnFlagUntilTimeout(hi2c, I2C_FLAG_BUSY, SET, I2C_TIMEOUT_BUSY_FLAG, tickstart) != HAL_OK)
 8001532:	697b      	ldr	r3, [r7, #20]
 8001534:	9300      	str	r3, [sp, #0]
 8001536:	2319      	movs	r3, #25
 8001538:	2201      	movs	r2, #1
 800153a:	496d      	ldr	r1, [pc, #436]	@ (80016f0 <HAL_I2C_Mem_Write+0x1ec>)
 800153c:	68f8      	ldr	r0, [r7, #12]
 800153e:	f000 fc8b 	bl	8001e58 <I2C_WaitOnFlagUntilTimeout>
 8001542:	4603      	mov	r3, r0
 8001544:	2b00      	cmp	r3, #0
 8001546:	d001      	beq.n	800154c <HAL_I2C_Mem_Write+0x48>
    {
      return HAL_BUSY;
 8001548:	2302      	movs	r3, #2
 800154a:	e0cc      	b.n	80016e6 <HAL_I2C_Mem_Write+0x1e2>
    }

    /* Process Locked */
    __HAL_LOCK(hi2c);
 800154c:	68fb      	ldr	r3, [r7, #12]
 800154e:	f893 303c 	ldrb.w	r3, [r3, #60]	@ 0x3c
 8001552:	2b01      	cmp	r3, #1
 8001554:	d101      	bne.n	800155a <HAL_I2C_Mem_Write+0x56>
 8001556:	2302      	movs	r3, #2
 8001558:	e0c5      	b.n	80016e6 <HAL_I2C_Mem_Write+0x1e2>
 800155a:	68fb      	ldr	r3, [r7, #12]
 800155c:	2201      	movs	r2, #1
 800155e:	f883 203c 	strb.w	r2, [r3, #60]	@ 0x3c

    /* Check if the I2C is already enabled */
    if ((hi2c->Instance->CR1 & I2C_CR1_PE) != I2C_CR1_PE)
 8001562:	68fb      	ldr	r3, [r7, #12]
 8001564:	681b      	ldr	r3, [r3, #0]
 8001566:	681b      	ldr	r3, [r3, #0]
 8001568:	f003 0301 	and.w	r3, r3, #1
 800156c:	2b01      	cmp	r3, #1
 800156e:	d007      	beq.n	8001580 <HAL_I2C_Mem_Write+0x7c>
    {
      /* Enable I2C peripheral */
      __HAL_I2C_ENABLE(hi2c);
 8001570:	68fb      	ldr	r3, [r7, #12]
 8001572:	681b      	ldr	r3, [r3, #0]
 8001574:	681a      	ldr	r2, [r3, #0]
 8001576:	68fb      	ldr	r3, [r7, #12]
 8001578:	681b      	ldr	r3, [r3, #0]
 800157a:	f042 0201 	orr.w	r2, r2, #1
 800157e:	601a      	str	r2, [r3, #0]
    }

    /* Disable Pos */
    CLEAR_BIT(hi2c->Instance->CR1, I2C_CR1_POS);
 8001580:	68fb      	ldr	r3, [r7, #12]
 8001582:	681b      	ldr	r3, [r3, #0]
 8001584:	681a      	ldr	r2, [r3, #0]
 8001586:	68fb      	ldr	r3, [r7, #12]
 8001588:	681b      	ldr	r3, [r3, #0]
 800158a:	f422 6200 	bic.w	r2, r2, #2048	@ 0x800
 800158e:	601a      	str	r2, [r3, #0]

    hi2c->State     = HAL_I2C_STATE_BUSY_TX;
 8001590:	68fb      	ldr	r3, [r7, #12]
 8001592:	2221      	movs	r2, #33	@ 0x21
 8001594:	f883 203d 	strb.w	r2, [r3, #61]	@ 0x3d
    hi2c->Mode      = HAL_I2C_MODE_MEM;
 8001598:	68fb      	ldr	r3, [r7, #12]
 800159a:	2240      	movs	r2, #64	@ 0x40
 800159c:	f883 203e 	strb.w	r2, [r3, #62]	@ 0x3e
    hi2c->ErrorCode = HAL_I2C_ERROR_NONE;
 80015a0:	68fb      	ldr	r3, [r7, #12]
 80015a2:	2200      	movs	r2, #0
 80015a4:	641a      	str	r2, [r3, #64]	@ 0x40

    /* Prepare transfer parameters */
    hi2c->pBuffPtr    = pData;
 80015a6:	68fb      	ldr	r3, [r7, #12]
 80015a8:	6a3a      	ldr	r2, [r7, #32]
 80015aa:	625a      	str	r2, [r3, #36]	@ 0x24
    hi2c->XferCount   = Size;
 80015ac:	68fb      	ldr	r3, [r7, #12]
 80015ae:	8cba      	ldrh	r2, [r7, #36]	@ 0x24
 80015b0:	855a      	strh	r2, [r3, #42]	@ 0x2a
    hi2c->XferSize    = hi2c->XferCount;
 80015b2:	68fb      	ldr	r3, [r7, #12]
 80015b4:	8d5b      	ldrh	r3, [r3, #42]	@ 0x2a
 80015b6:	b29a      	uxth	r2, r3
 80015b8:	68fb      	ldr	r3, [r7, #12]
 80015ba:	851a      	strh	r2, [r3, #40]	@ 0x28
    hi2c->XferOptions = I2C_NO_OPTION_FRAME;
 80015bc:	68fb      	ldr	r3, [r7, #12]
 80015be:	4a4d      	ldr	r2, [pc, #308]	@ (80016f4 <HAL_I2C_Mem_Write+0x1f0>)
 80015c0:	62da      	str	r2, [r3, #44]	@ 0x2c

    /* Send Slave Address and Memory Address */
    if (I2C_RequestMemoryWrite(hi2c, DevAddress, MemAddress, MemAddSize, Timeout, tickstart) != HAL_OK)
 80015c2:	88f8      	ldrh	r0, [r7, #6]
 80015c4:	893a      	ldrh	r2, [r7, #8]
 80015c6:	8979      	ldrh	r1, [r7, #10]
 80015c8:	697b      	ldr	r3, [r7, #20]
 80015ca:	9301      	str	r3, [sp, #4]
 80015cc:	6abb      	ldr	r3, [r7, #40]	@ 0x28
 80015ce:	9300      	str	r3, [sp, #0]
 80015d0:	4603      	mov	r3, r0
 80015d2:	68f8      	ldr	r0, [r7, #12]
 80015d4:	f000 fac2 	bl	8001b5c <I2C_RequestMemoryWrite>
 80015d8:	4603      	mov	r3, r0
 80015da:	2b00      	cmp	r3, #0
 80015dc:	d052      	beq.n	8001684 <HAL_I2C_Mem_Write+0x180>
    {
      return HAL_ERROR;
 80015de:	2301      	movs	r3, #1
 80015e0:	e081      	b.n	80016e6 <HAL_I2C_Mem_Write+0x1e2>
    }

    while (hi2c->XferSize > 0U)
    {
      /* Wait until TXE flag is set */
      if (I2C_WaitOnTXEFlagUntilTimeout(hi2c, Timeout, tickstart) != HAL_OK)
 80015e2:	697a      	ldr	r2, [r7, #20]
 80015e4:	6ab9      	ldr	r1, [r7, #40]	@ 0x28
 80015e6:	68f8      	ldr	r0, [r7, #12]
 80015e8:	f000 fd50 	bl	800208c <I2C_WaitOnTXEFlagUntilTimeout>
 80015ec:	4603      	mov	r3, r0
 80015ee:	2b00      	cmp	r3, #0
 80015f0:	d00d      	beq.n	800160e <HAL_I2C_Mem_Write+0x10a>
      {
        if (hi2c->ErrorCode == HAL_I2C_ERROR_AF)
 80015f2:	68fb      	ldr	r3, [r7, #12]
 80015f4:	6c1b      	ldr	r3, [r3, #64]	@ 0x40
 80015f6:	2b04      	cmp	r3, #4
 80015f8:	d107      	bne.n	800160a <HAL_I2C_Mem_Write+0x106>
        {
          /* Generate Stop */
          SET_BIT(hi2c->Instance->CR1, I2C_CR1_STOP);
 80015fa:	68fb      	ldr	r3, [r7, #12]
 80015fc:	681b      	ldr	r3, [r3, #0]
 80015fe:	681a      	ldr	r2, [r3, #0]
 8001600:	68fb      	ldr	r3, [r7, #12]
 8001602:	681b      	ldr	r3, [r3, #0]
 8001604:	f442 7200 	orr.w	r2, r2, #512	@ 0x200
 8001608:	601a      	str	r2, [r3, #0]
        }
        return HAL_ERROR;
 800160a:	2301      	movs	r3, #1
 800160c:	e06b      	b.n	80016e6 <HAL_I2C_Mem_Write+0x1e2>
      }

      /* Write data to DR */
      hi2c->Instance->DR = *hi2c->pBuffPtr;
 800160e:	68fb      	ldr	r3, [r7, #12]
 8001610:	6a5b      	ldr	r3, [r3, #36]	@ 0x24
 8001612:	781a      	ldrb	r2, [r3, #0]
 8001614:	68fb      	ldr	r3, [r7, #12]
 8001616:	681b      	ldr	r3, [r3, #0]
 8001618:	611a      	str	r2, [r3, #16]

      /* Increment Buffer pointer */
      hi2c->pBuffPtr++;
 800161a:	68fb      	ldr	r3, [r7, #12]
 800161c:	6a5b      	ldr	r3, [r3, #36]	@ 0x24
 800161e:	1c5a      	adds	r2, r3, #1
 8001620:	68fb      	ldr	r3, [r7, #12]
 8001622:	625a      	str	r2, [r3, #36]	@ 0x24

      /* Update counter */
      hi2c->XferSize--;
 8001624:	68fb      	ldr	r3, [r7, #12]
 8001626:	8d1b      	ldrh	r3, [r3, #40]	@ 0x28
 8001628:	3b01      	subs	r3, #1
 800162a:	b29a      	uxth	r2, r3
 800162c:	68fb      	ldr	r3, [r7, #12]
 800162e:	851a      	strh	r2, [r3, #40]	@ 0x28
      hi2c->XferCount--;
 8001630:	68fb      	ldr	r3, [r7, #12]
 8001632:	8d5b      	ldrh	r3, [r3, #42]	@ 0x2a
 8001634:	b29b      	uxth	r3, r3
 8001636:	3b01      	subs	r3, #1
 8001638:	b29a      	uxth	r2, r3
 800163a:	68fb      	ldr	r3, [r7, #12]
 800163c:	855a      	strh	r2, [r3, #42]	@ 0x2a

      if ((__HAL_I2C_GET_FLAG(hi2c, I2C_FLAG_BTF) == SET) && (hi2c->XferSize != 0U))
 800163e:	68fb      	ldr	r3, [r7, #12]
 8001640:	681b      	ldr	r3, [r3, #0]
 8001642:	695b      	ldr	r3, [r3, #20]
 8001644:	f003 0304 	and.w	r3, r3, #4
 8001648:	2b04      	cmp	r3, #4
 800164a:	d11b      	bne.n	8001684 <HAL_I2C_Mem_Write+0x180>
 800164c:	68fb      	ldr	r3, [r7, #12]
 800164e:	8d1b      	ldrh	r3, [r3, #40]	@ 0x28
 8001650:	2b00      	cmp	r3, #0
 8001652:	d017      	beq.n	8001684 <HAL_I2C_Mem_Write+0x180>
      {
        /* Write data to DR */
        hi2c->Instance->DR = *hi2c->pBuffPtr;
 8001654:	68fb      	ldr	r3, [r7, #12]
 8001656:	6a5b      	ldr	r3, [r3, #36]	@ 0x24
 8001658:	781a      	ldrb	r2, [r3, #0]
 800165a:	68fb      	ldr	r3, [r7, #12]
 800165c:	681b      	ldr	r3, [r3, #0]
 800165e:	611a      	str	r2, [r3, #16]

        /* Increment Buffer pointer */
        hi2c->pBuffPtr++;
 8001660:	68fb      	ldr	r3, [r7, #12]
 8001662:	6a5b      	ldr	r3, [r3, #36]	@ 0x24
 8001664:	1c5a      	adds	r2, r3, #1
 8001666:	68fb      	ldr	r3, [r7, #12]
 8001668:	625a      	str	r2, [r3, #36]	@ 0x24

        /* Update counter */
        hi2c->XferSize--;
 800166a:	68fb      	ldr	r3, [r7, #12]
 800166c:	8d1b      	ldrh	r3, [r3, #40]	@ 0x28
 800166e:	3b01      	subs	r3, #1
 8001670:	b29a      	uxth	r2, r3
 8001672:	68fb      	ldr	r3, [r7, #12]
 8001674:	851a      	strh	r2, [r3, #40]	@ 0x28
        hi2c->XferCount--;
 8001676:	68fb      	ldr	r3, [r7, #12]
 8001678:	8d5b      	ldrh	r3, [r3, #42]	@ 0x2a
 800167a:	b29b      	uxth	r3, r3
 800167c:	3b01      	subs	r3, #1
 800167e:	b29a      	uxth	r2, r3
 8001680:	68fb      	ldr	r3, [r7, #12]
 8001682:	855a      	strh	r2, [r3, #42]	@ 0x2a
    while (hi2c->XferSize > 0U)
 8001684:	68fb      	ldr	r3, [r7, #12]
 8001686:	8d1b      	ldrh	r3, [r3, #40]	@ 0x28
 8001688:	2b00      	cmp	r3, #0
 800168a:	d1aa      	bne.n	80015e2 <HAL_I2C_Mem_Write+0xde>
      }
    }

    /* Wait until BTF flag is set */
    if (I2C_WaitOnBTFFlagUntilTimeout(hi2c, Timeout, tickstart) != HAL_OK)
 800168c:	697a      	ldr	r2, [r7, #20]
 800168e:	6ab9      	ldr	r1, [r7, #40]	@ 0x28
 8001690:	68f8      	ldr	r0, [r7, #12]
 8001692:	f000 fd43 	bl	800211c <I2C_WaitOnBTFFlagUntilTimeout>
 8001696:	4603      	mov	r3, r0
 8001698:	2b00      	cmp	r3, #0
 800169a:	d00d      	beq.n	80016b8 <HAL_I2C_Mem_Write+0x1b4>
    {
      if (hi2c->ErrorCode == HAL_I2C_ERROR_AF)
 800169c:	68fb      	ldr	r3, [r7, #12]
 800169e:	6c1b      	ldr	r3, [r3, #64]	@ 0x40
 80016a0:	2b04      	cmp	r3, #4
 80016a2:	d107      	bne.n	80016b4 <HAL_I2C_Mem_Write+0x1b0>
      {
        /* Generate Stop */
        SET_BIT(hi2c->Instance->CR1, I2C_CR1_STOP);
 80016a4:	68fb      	ldr	r3, [r7, #12]
 80016a6:	681b      	ldr	r3, [r3, #0]
 80016a8:	681a      	ldr	r2, [r3, #0]
 80016aa:	68fb      	ldr	r3, [r7, #12]
 80016ac:	681b      	ldr	r3, [r3, #0]
 80016ae:	f442 7200 	orr.w	r2, r2, #512	@ 0x200
 80016b2:	601a      	str	r2, [r3, #0]
      }
      return HAL_ERROR;
 80016b4:	2301      	movs	r3, #1
 80016b6:	e016      	b.n	80016e6 <HAL_I2C_Mem_Write+0x1e2>
    }

    /* Generate Stop */
    SET_BIT(hi2c->Instance->CR1, I2C_CR1_STOP);
 80016b8:	68fb      	ldr	r3, [r7, #12]
 80016ba:	681b      	ldr	r3, [r3, #0]
 80016bc:	681a      	ldr	r2, [r3, #0]
 80016be:	68fb      	ldr	r3, [r7, #12]
 80016c0:	681b      	ldr	r3, [r3, #0]
 80016c2:	f442 7200 	orr.w	r2, r2, #512	@ 0x200
 80016c6:	601a      	str	r2, [r3, #0]

    hi2c->State = HAL_I2C_STATE_READY;
 80016c8:	68fb      	ldr	r3, [r7, #12]
 80016ca:	2220      	movs	r2, #32
 80016cc:	f883 203d 	strb.w	r2, [r3, #61]	@ 0x3d
    hi2c->Mode = HAL_I2C_MODE_NONE;
 80016d0:	68fb      	ldr	r3, [r7, #12]
 80016d2:	2200      	movs	r2, #0
 80016d4:	f883 203e 	strb.w	r2, [r3, #62]	@ 0x3e

    /* Process Unlocked */
    __HAL_UNLOCK(hi2c);
 80016d8:	68fb      	ldr	r3, [r7, #12]
 80016da:	2200      	movs	r2, #0
 80016dc:	f883 203c 	strb.w	r2, [r3, #60]	@ 0x3c

    return HAL_OK;
 80016e0:	2300      	movs	r3, #0
 80016e2:	e000      	b.n	80016e6 <HAL_I2C_Mem_Write+0x1e2>
  }
  else
  {
    return HAL_BUSY;
 80016e4:	2302      	movs	r3, #2
  }
}
 80016e6:	4618      	mov	r0, r3
 80016e8:	3718      	adds	r7, #24
 80016ea:	46bd      	mov	sp, r7
 80016ec:	bd80      	pop	{r7, pc}
 80016ee:	bf00      	nop
 80016f0:	00100002 	.word	0x00100002
 80016f4:	ffff0000 	.word	0xffff0000

080016f8 <HAL_I2C_Mem_Read>:
  * @param  Size Amount of data to be sent
  * @param  Timeout Timeout duration
  * @retval HAL status
  */
HAL_StatusTypeDef HAL_I2C_Mem_Read(I2C_HandleTypeDef *hi2c, uint16_t DevAddress, uint16_t MemAddress, uint16_t MemAddSize, uint8_t *pData, uint16_t Size, uint32_t Timeout)
{
 80016f8:	b580      	push	{r7, lr}
 80016fa:	b08c      	sub	sp, #48	@ 0x30
 80016fc:	af02      	add	r7, sp, #8
 80016fe:	60f8      	str	r0, [r7, #12]
 8001700:	4608      	mov	r0, r1
 8001702:	4611      	mov	r1, r2
 8001704:	461a      	mov	r2, r3
 8001706:	4603      	mov	r3, r0
 8001708:	817b      	strh	r3, [r7, #10]
 800170a:	460b      	mov	r3, r1
 800170c:	813b      	strh	r3, [r7, #8]
 800170e:	4613      	mov	r3, r2
 8001710:	80fb      	strh	r3, [r7, #6]
  /* Init tickstart for timeout management*/
  uint32_t tickstart = HAL_GetTick();
 8001712:	f7ff fae5 	bl	8000ce0 <HAL_GetTick>
 8001716:	6278      	str	r0, [r7, #36]	@ 0x24

  /* Check the parameters */
  assert_param(IS_I2C_MEMADD_SIZE(MemAddSize));

  if (hi2c->State == HAL_I2C_STATE_READY)
 8001718:	68fb      	ldr	r3, [r7, #12]
 800171a:	f893 303d 	ldrb.w	r3, [r3, #61]	@ 0x3d
 800171e:	b2db      	uxtb	r3, r3
 8001720:	2b20      	cmp	r3, #32
 8001722:	f040 8214 	bne.w	8001b4e <HAL_I2C_Mem_Read+0x456>
  {
    /* Wait until BUSY flag is reset */
    if (I2C_WaitOnFlagUntilTimeout(hi2c, I2C_FLAG_BUSY, SET, I2C_TIMEOUT_BUSY_FLAG, tickstart) != HAL_OK)
 8001726:	6a7b      	ldr	r3, [r7, #36]	@ 0x24
 8001728:	9300      	str	r3, [sp, #0]
 800172a:	2319      	movs	r3, #25
 800172c:	2201      	movs	r2, #1
 800172e:	497b      	ldr	r1, [pc, #492]	@ (800191c <HAL_I2C_Mem_Read+0x224>)
 8001730:	68f8      	ldr	r0, [r7, #12]
 8001732:	f000 fb91 	bl	8001e58 <I2C_WaitOnFlagUntilTimeout>
 8001736:	4603      	mov	r3, r0
 8001738:	2b00      	cmp	r3, #0
 800173a:	d001      	beq.n	8001740 <HAL_I2C_Mem_Read+0x48>
    {
      return HAL_BUSY;
 800173c:	2302      	movs	r3, #2
 800173e:	e207      	b.n	8001b50 <HAL_I2C_Mem_Read+0x458>
    }

    /* Process Locked */
    __HAL_LOCK(hi2c);
 8001740:	68fb      	ldr	r3, [r7, #12]
 8001742:	f893 303c 	ldrb.w	r3, [r3, #60]	@ 0x3c
 8001746:	2b01      	cmp	r3, #1
 8001748:	d101      	bne.n	800174e <HAL_I2C_Mem_Read+0x56>
 800174a:	2302      	movs	r3, #2
 800174c:	e200      	b.n	8001b50 <HAL_I2C_Mem_Read+0x458>
 800174e:	68fb      	ldr	r3, [r7, #12]
 8001750:	2201      	movs	r2, #1
 8001752:	f883 203c 	strb.w	r2, [r3, #60]	@ 0x3c

    /* Check if the I2C is already enabled */
    if ((hi2c->Instance->CR1 & I2C_CR1_PE) != I2C_CR1_PE)
 8001756:	68fb      	ldr	r3, [r7, #12]
 8001758:	681b      	ldr	r3, [r3, #0]
 800175a:	681b      	ldr	r3, [r3, #0]
 800175c:	f003 0301 	and.w	r3, r3, #1
 8001760:	2b01      	cmp	r3, #1
 8001762:	d007      	beq.n	8001774 <HAL_I2C_Mem_Read+0x7c>
    {
      /* Enable I2C peripheral */
      __HAL_I2C_ENABLE(hi2c);
 8001764:	68fb      	ldr	r3, [r7, #12]
 8001766:	681b      	ldr	r3, [r3, #0]
 8001768:	681a      	ldr	r2, [r3, #0]
 800176a:	68fb      	ldr	r3, [r7, #12]
 800176c:	681b      	ldr	r3, [r3, #0]
 800176e:	f042 0201 	orr.w	r2, r2, #1
 8001772:	601a      	str	r2, [r3, #0]
    }

    /* Disable Pos */
    CLEAR_BIT(hi2c->Instance->CR1, I2C_CR1_POS);
 8001774:	68fb      	ldr	r3, [r7, #12]
 8001776:	681b      	ldr	r3, [r3, #0]
 8001778:	681a      	ldr	r2, [r3, #0]
 800177a:	68fb      	ldr	r3, [r7, #12]
 800177c:	681b      	ldr	r3, [r3, #0]
 800177e:	f422 6200 	bic.w	r2, r2, #2048	@ 0x800
 8001782:	601a      	str	r2, [r3, #0]

    hi2c->State     = HAL_I2C_STATE_BUSY_RX;
 8001784:	68fb      	ldr	r3, [r7, #12]
 8001786:	2222      	movs	r2, #34	@ 0x22
 8001788:	f883 203d 	strb.w	r2, [r3, #61]	@ 0x3d
    hi2c->Mode      = HAL_I2C_MODE_MEM;
 800178c:	68fb      	ldr	r3, [r7, #12]
 800178e:	2240      	movs	r2, #64	@ 0x40
 8001790:	f883 203e 	strb.w	r2, [r3, #62]	@ 0x3e
    hi2c->ErrorCode = HAL_I2C_ERROR_NONE;
 8001794:	68fb      	ldr	r3, [r7, #12]
 8001796:	2200      	movs	r2, #0
 8001798:	641a      	str	r2, [r3, #64]	@ 0x40

    /* Prepare transfer parameters */
    hi2c->pBuffPtr    = pData;
 800179a:	68fb      	ldr	r3, [r7, #12]
 800179c:	6b3a      	ldr	r2, [r7, #48]	@ 0x30
 800179e:	625a      	str	r2, [r3, #36]	@ 0x24
    hi2c->XferCount   = Size;
 80017a0:	68fb      	ldr	r3, [r7, #12]
 80017a2:	8eba      	ldrh	r2, [r7, #52]	@ 0x34
 80017a4:	855a      	strh	r2, [r3, #42]	@ 0x2a
    hi2c->XferSize    = hi2c->XferCount;
 80017a6:	68fb      	ldr	r3, [r7, #12]
 80017a8:	8d5b      	ldrh	r3, [r3, #42]	@ 0x2a
 80017aa:	b29a      	uxth	r2, r3
 80017ac:	68fb      	ldr	r3, [r7, #12]
 80017ae:	851a      	strh	r2, [r3, #40]	@ 0x28
    hi2c->XferOptions = I2C_NO_OPTION_FRAME;
 80017b0:	68fb      	ldr	r3, [r7, #12]
 80017b2:	4a5b      	ldr	r2, [pc, #364]	@ (8001920 <HAL_I2C_Mem_Read+0x228>)
 80017b4:	62da      	str	r2, [r3, #44]	@ 0x2c

    /* Send Slave Address and Memory Address */
    if (I2C_RequestMemoryRead(hi2c, DevAddress, MemAddress, MemAddSize, Timeout, tickstart) != HAL_OK)
 80017b6:	88f8      	ldrh	r0, [r7, #6]
 80017b8:	893a      	ldrh	r2, [r7, #8]
 80017ba:	8979      	ldrh	r1, [r7, #10]
 80017bc:	6a7b      	ldr	r3, [r7, #36]	@ 0x24
 80017be:	9301      	str	r3, [sp, #4]
 80017c0:	6bbb      	ldr	r3, [r7, #56]	@ 0x38
 80017c2:	9300      	str	r3, [sp, #0]
 80017c4:	4603      	mov	r3, r0
 80017c6:	68f8      	ldr	r0, [r7, #12]
 80017c8:	f000 fa5e 	bl	8001c88 <I2C_RequestMemoryRead>
 80017cc:	4603      	mov	r3, r0
 80017ce:	2b00      	cmp	r3, #0
 80017d0:	d001      	beq.n	80017d6 <HAL_I2C_Mem_Read+0xde>
    {
      return HAL_ERROR;
 80017d2:	2301      	movs	r3, #1
 80017d4:	e1bc      	b.n	8001b50 <HAL_I2C_Mem_Read+0x458>
    }

    if (hi2c->XferSize == 0U)
 80017d6:	68fb      	ldr	r3, [r7, #12]
 80017d8:	8d1b      	ldrh	r3, [r3, #40]	@ 0x28
 80017da:	2b00      	cmp	r3, #0
 80017dc:	d113      	bne.n	8001806 <HAL_I2C_Mem_Read+0x10e>
    {
      /* Clear ADDR flag */
      __HAL_I2C_CLEAR_ADDRFLAG(hi2c);
 80017de:	2300      	movs	r3, #0
 80017e0:	623b      	str	r3, [r7, #32]
 80017e2:	68fb      	ldr	r3, [r7, #12]
 80017e4:	681b      	ldr	r3, [r3, #0]
 80017e6:	695b      	ldr	r3, [r3, #20]
 80017e8:	623b      	str	r3, [r7, #32]
 80017ea:	68fb      	ldr	r3, [r7, #12]
 80017ec:	681b      	ldr	r3, [r3, #0]
 80017ee:	699b      	ldr	r3, [r3, #24]
 80017f0:	623b      	str	r3, [r7, #32]
 80017f2:	6a3b      	ldr	r3, [r7, #32]

      /* Generate Stop */
      SET_BIT(hi2c->Instance->CR1, I2C_CR1_STOP);
 80017f4:	68fb      	ldr	r3, [r7, #12]
 80017f6:	681b      	ldr	r3, [r3, #0]
 80017f8:	681a      	ldr	r2, [r3, #0]
 80017fa:	68fb      	ldr	r3, [r7, #12]
 80017fc:	681b      	ldr	r3, [r3, #0]
 80017fe:	f442 7200 	orr.w	r2, r2, #512	@ 0x200
 8001802:	601a      	str	r2, [r3, #0]
 8001804:	e190      	b.n	8001b28 <HAL_I2C_Mem_Read+0x430>
    }
    else if (hi2c->XferSize == 1U)
 8001806:	68fb      	ldr	r3, [r7, #12]
 8001808:	8d1b      	ldrh	r3, [r3, #40]	@ 0x28
 800180a:	2b01      	cmp	r3, #1
 800180c:	d11b      	bne.n	8001846 <HAL_I2C_Mem_Read+0x14e>
    {
      /* Disable Acknowledge */
      CLEAR_BIT(hi2c->Instance->CR1, I2C_CR1_ACK);
 800180e:	68fb      	ldr	r3, [r7, #12]
 8001810:	681b      	ldr	r3, [r3, #0]
 8001812:	681a      	ldr	r2, [r3, #0]
 8001814:	68fb      	ldr	r3, [r7, #12]
 8001816:	681b      	ldr	r3, [r3, #0]
 8001818:	f422 6280 	bic.w	r2, r2, #1024	@ 0x400
 800181c:	601a      	str	r2, [r3, #0]

      /* Clear ADDR flag */
      __HAL_I2C_CLEAR_ADDRFLAG(hi2c);
 800181e:	2300      	movs	r3, #0
 8001820:	61fb      	str	r3, [r7, #28]
 8001822:	68fb      	ldr	r3, [r7, #12]
 8001824:	681b      	ldr	r3, [r3, #0]
 8001826:	695b      	ldr	r3, [r3, #20]
 8001828:	61fb      	str	r3, [r7, #28]
 800182a:	68fb      	ldr	r3, [r7, #12]
 800182c:	681b      	ldr	r3, [r3, #0]
 800182e:	699b      	ldr	r3, [r3, #24]
 8001830:	61fb      	str	r3, [r7, #28]
 8001832:	69fb      	ldr	r3, [r7, #28]

      /* Generate Stop */
      SET_BIT(hi2c->Instance->CR1, I2C_CR1_STOP);
 8001834:	68fb      	ldr	r3, [r7, #12]
 8001836:	681b      	ldr	r3, [r3, #0]
 8001838:	681a      	ldr	r2, [r3, #0]
 800183a:	68fb      	ldr	r3, [r7, #12]
 800183c:	681b      	ldr	r3, [r3, #0]
 800183e:	f442 7200 	orr.w	r2, r2, #512	@ 0x200
 8001842:	601a      	str	r2, [r3, #0]
 8001844:	e170      	b.n	8001b28 <HAL_I2C_Mem_Read+0x430>
    }
    else if (hi2c->XferSize == 2U)
 8001846:	68fb      	ldr	r3, [r7, #12]
 8001848:	8d1b      	ldrh	r3, [r3, #40]	@ 0x28
 800184a:	2b02      	cmp	r3, #2
 800184c:	d11b      	bne.n	8001886 <HAL_I2C_Mem_Read+0x18e>
    {
      /* Disable Acknowledge */
      CLEAR_BIT(hi2c->Instance->CR1, I2C_CR1_ACK);
 800184e:	68fb      	ldr	r3, [r7, #12]
 8001850:	681b      	ldr	r3, [r3, #0]
 8001852:	681a      	ldr	r2, [r3, #0]
 8001854:	68fb      	ldr	r3, [r7, #12]
 8001856:	681b      	ldr	r3, [r3, #0]
 8001858:	f422 6280 	bic.w	r2, r2, #1024	@ 0x400
 800185c:	601a      	str	r2, [r3, #0]

      /* Enable Pos */
      SET_BIT(hi2c->Instance->CR1, I2C_CR1_POS);
 800185e:	68fb      	ldr	r3, [r7, #12]
 8001860:	681b      	ldr	r3, [r3, #0]
 8001862:	681a      	ldr	r2, [r3, #0]
 8001864:	68fb      	ldr	r3, [r7, #12]
 8001866:	681b      	ldr	r3, [r3, #0]
 8001868:	f442 6200 	orr.w	r2, r2, #2048	@ 0x800
 800186c:	601a      	str	r2, [r3, #0]

      /* Clear ADDR flag */
      __HAL_I2C_CLEAR_ADDRFLAG(hi2c);
 800186e:	2300      	movs	r3, #0
 8001870:	61bb      	str	r3, [r7, #24]
 8001872:	68fb      	ldr	r3, [r7, #12]
 8001874:	681b      	ldr	r3, [r3, #0]
 8001876:	695b      	ldr	r3, [r3, #20]
 8001878:	61bb      	str	r3, [r7, #24]
 800187a:	68fb      	ldr	r3, [r7, #12]
 800187c:	681b      	ldr	r3, [r3, #0]
 800187e:	699b      	ldr	r3, [r3, #24]
 8001880:	61bb      	str	r3, [r7, #24]
 8001882:	69bb      	ldr	r3, [r7, #24]
 8001884:	e150      	b.n	8001b28 <HAL_I2C_Mem_Read+0x430>
    }
    else
    {
      /* Clear ADDR flag */
      __HAL_I2C_CLEAR_ADDRFLAG(hi2c);
 8001886:	2300      	movs	r3, #0
 8001888:	617b      	str	r3, [r7, #20]
 800188a:	68fb      	ldr	r3, [r7, #12]
 800188c:	681b      	ldr	r3, [r3, #0]
 800188e:	695b      	ldr	r3, [r3, #20]
 8001890:	617b      	str	r3, [r7, #20]
 8001892:	68fb      	ldr	r3, [r7, #12]
 8001894:	681b      	ldr	r3, [r3, #0]
 8001896:	699b      	ldr	r3, [r3, #24]
 8001898:	617b      	str	r3, [r7, #20]
 800189a:	697b      	ldr	r3, [r7, #20]
    }

    while (hi2c->XferSize > 0U)
 800189c:	e144      	b.n	8001b28 <HAL_I2C_Mem_Read+0x430>
    {
      if (hi2c->XferSize <= 3U)
 800189e:	68fb      	ldr	r3, [r7, #12]
 80018a0:	8d1b      	ldrh	r3, [r3, #40]	@ 0x28
 80018a2:	2b03      	cmp	r3, #3
 80018a4:	f200 80f1 	bhi.w	8001a8a <HAL_I2C_Mem_Read+0x392>
      {
        /* One byte */
        if (hi2c->XferSize == 1U)
 80018a8:	68fb      	ldr	r3, [r7, #12]
 80018aa:	8d1b      	ldrh	r3, [r3, #40]	@ 0x28
 80018ac:	2b01      	cmp	r3, #1
 80018ae:	d123      	bne.n	80018f8 <HAL_I2C_Mem_Read+0x200>
        {
          /* Wait until RXNE flag is set */
          if (I2C_WaitOnRXNEFlagUntilTimeout(hi2c, Timeout, tickstart) != HAL_OK)
 80018b0:	6a7a      	ldr	r2, [r7, #36]	@ 0x24
 80018b2:	6bb9      	ldr	r1, [r7, #56]	@ 0x38
 80018b4:	68f8      	ldr	r0, [r7, #12]
 80018b6:	f000 fc79 	bl	80021ac <I2C_WaitOnRXNEFlagUntilTimeout>
 80018ba:	4603      	mov	r3, r0
 80018bc:	2b00      	cmp	r3, #0
 80018be:	d001      	beq.n	80018c4 <HAL_I2C_Mem_Read+0x1cc>
          {
            return HAL_ERROR;
 80018c0:	2301      	movs	r3, #1
 80018c2:	e145      	b.n	8001b50 <HAL_I2C_Mem_Read+0x458>
          }

          /* Read data from DR */
          *hi2c->pBuffPtr = (uint8_t)hi2c->Instance->DR;
 80018c4:	68fb      	ldr	r3, [r7, #12]
 80018c6:	681b      	ldr	r3, [r3, #0]
 80018c8:	691a      	ldr	r2, [r3, #16]
 80018ca:	68fb      	ldr	r3, [r7, #12]
 80018cc:	6a5b      	ldr	r3, [r3, #36]	@ 0x24
 80018ce:	b2d2      	uxtb	r2, r2
 80018d0:	701a      	strb	r2, [r3, #0]

          /* Increment Buffer pointer */
          hi2c->pBuffPtr++;
 80018d2:	68fb      	ldr	r3, [r7, #12]
 80018d4:	6a5b      	ldr	r3, [r3, #36]	@ 0x24
 80018d6:	1c5a      	adds	r2, r3, #1
 80018d8:	68fb      	ldr	r3, [r7, #12]
 80018da:	625a      	str	r2, [r3, #36]	@ 0x24

          /* Update counter */
          hi2c->XferSize--;
 80018dc:	68fb      	ldr	r3, [r7, #12]
 80018de:	8d1b      	ldrh	r3, [r3, #40]	@ 0x28
 80018e0:	3b01      	subs	r3, #1
 80018e2:	b29a      	uxth	r2, r3
 80018e4:	68fb      	ldr	r3, [r7, #12]
 80018e6:	851a      	strh	r2, [r3, #40]	@ 0x28
          hi2c->XferCount--;
 80018e8:	68fb      	ldr	r3, [r7, #12]
 80018ea:	8d5b      	ldrh	r3, [r3, #42]	@ 0x2a
 80018ec:	b29b      	uxth	r3, r3
 80018ee:	3b01      	subs	r3, #1
 80018f0:	b29a      	uxth	r2, r3
 80018f2:	68fb      	ldr	r3, [r7, #12]
 80018f4:	855a      	strh	r2, [r3, #42]	@ 0x2a
 80018f6:	e117      	b.n	8001b28 <HAL_I2C_Mem_Read+0x430>
        }
        /* Two bytes */
        else if (hi2c->XferSize == 2U)
 80018f8:	68fb      	ldr	r3, [r7, #12]
 80018fa:	8d1b      	ldrh	r3, [r3, #40]	@ 0x28
 80018fc:	2b02      	cmp	r3, #2
 80018fe:	d14e      	bne.n	800199e <HAL_I2C_Mem_Read+0x2a6>
        {
          /* Wait until BTF flag is set */
          if (I2C_WaitOnFlagUntilTimeout(hi2c, I2C_FLAG_BTF, RESET, Timeout, tickstart) != HAL_OK)
 8001900:	6a7b      	ldr	r3, [r7, #36]	@ 0x24
 8001902:	9300      	str	r3, [sp, #0]
 8001904:	6bbb      	ldr	r3, [r7, #56]	@ 0x38
 8001906:	2200      	movs	r2, #0
 8001908:	4906      	ldr	r1, [pc, #24]	@ (8001924 <HAL_I2C_Mem_Read+0x22c>)
 800190a:	68f8      	ldr	r0, [r7, #12]
 800190c:	f000 faa4 	bl	8001e58 <I2C_WaitOnFlagUntilTimeout>
 8001910:	4603      	mov	r3, r0
 8001912:	2b00      	cmp	r3, #0
 8001914:	d008      	beq.n	8001928 <HAL_I2C_Mem_Read+0x230>
          {
            return HAL_ERROR;
 8001916:	2301      	movs	r3, #1
 8001918:	e11a      	b.n	8001b50 <HAL_I2C_Mem_Read+0x458>
 800191a:	bf00      	nop
 800191c:	00100002 	.word	0x00100002
 8001920:	ffff0000 	.word	0xffff0000
 8001924:	00010004 	.word	0x00010004
          }

          /* Generate Stop */
          SET_BIT(hi2c->Instance->CR1, I2C_CR1_STOP);
 8001928:	68fb      	ldr	r3, [r7, #12]
 800192a:	681b      	ldr	r3, [r3, #0]
 800192c:	681a      	ldr	r2, [r3, #0]
 800192e:	68fb      	ldr	r3, [r7, #12]
 8001930:	681b      	ldr	r3, [r3, #0]
 8001932:	f442 7200 	orr.w	r2, r2, #512	@ 0x200
 8001936:	601a      	str	r2, [r3, #0]

          /* Read data from DR */
          *hi2c->pBuffPtr = (uint8_t)hi2c->Instance->DR;
 8001938:	68fb      	ldr	r3, [r7, #12]
 800193a:	681b      	ldr	r3, [r3, #0]
 800193c:	691a      	ldr	r2, [r3, #16]
 800193e:	68fb      	ldr	r3, [r7, #12]
 8001940:	6a5b      	ldr	r3, [r3, #36]	@ 0x24
 8001942:	b2d2      	uxtb	r2, r2
 8001944:	701a      	strb	r2, [r3, #0]

          /* Increment Buffer pointer */
          hi2c->pBuffPtr++;
 8001946:	68fb      	ldr	r3, [r7, #12]
 8001948:	6a5b      	ldr	r3, [r3, #36]	@ 0x24
 800194a:	1c5a      	adds	r2, r3, #1
 800194c:	68fb      	ldr	r3, [r7, #12]
 800194e:	625a      	str	r2, [r3, #36]	@ 0x24

          /* Update counter */
          hi2c->XferSize--;
 8001950:	68fb      	ldr	r3, [r7, #12]
 8001952:	8d1b      	ldrh	r3, [r3, #40]	@ 0x28
 8001954:	3b01      	subs	r3, #1
 8001956:	b29a      	uxth	r2, r3
 8001958:	68fb      	ldr	r3, [r7, #12]
 800195a:	851a      	strh	r2, [r3, #40]	@ 0x28
          hi2c->XferCount--;
 800195c:	68fb      	ldr	r3, [r7, #12]
 800195e:	8d5b      	ldrh	r3, [r3, #42]	@ 0x2a
 8001960:	b29b      	uxth	r3, r3
 8001962:	3b01      	subs	r3, #1
 8001964:	b29a      	uxth	r2, r3
 8001966:	68fb      	ldr	r3, [r7, #12]
 8001968:	855a      	strh	r2, [r3, #42]	@ 0x2a

          /* Read data from DR */
          *hi2c->pBuffPtr = (uint8_t)hi2c->Instance->DR;
 800196a:	68fb      	ldr	r3, [r7, #12]
 800196c:	681b      	ldr	r3, [r3, #0]
 800196e:	691a      	ldr	r2, [r3, #16]
 8001970:	68fb      	ldr	r3, [r7, #12]
 8001972:	6a5b      	ldr	r3, [r3, #36]	@ 0x24
 8001974:	b2d2      	uxtb	r2, r2
 8001976:	701a      	strb	r2, [r3, #0]

          /* Increment Buffer pointer */
          hi2c->pBuffPtr++;
 8001978:	68fb      	ldr	r3, [r7, #12]
 800197a:	6a5b      	ldr	r3, [r3, #36]	@ 0x24
 800197c:	1c5a      	adds	r2, r3, #1
 800197e:	68fb      	ldr	r3, [r7, #12]
 8001980:	625a      	str	r2, [r3, #36]	@ 0x24

          /* Update counter */
          hi2c->XferSize--;
 8001982:	68fb      	ldr	r3, [r7, #12]
 8001984:	8d1b      	ldrh	r3, [r3, #40]	@ 0x28
 8001986:	3b01      	subs	r3, #1
 8001988:	b29a      	uxth	r2, r3
 800198a:	68fb      	ldr	r3, [r7, #12]
 800198c:	851a      	strh	r2, [r3, #40]	@ 0x28
          hi2c->XferCount--;
 800198e:	68fb      	ldr	r3, [r7, #12]
 8001990:	8d5b      	ldrh	r3, [r3, #42]	@ 0x2a
 8001992:	b29b      	uxth	r3, r3
 8001994:	3b01      	subs	r3, #1
 8001996:	b29a      	uxth	r2, r3
 8001998:	68fb      	ldr	r3, [r7, #12]
 800199a:	855a      	strh	r2, [r3, #42]	@ 0x2a
 800199c:	e0c4      	b.n	8001b28 <HAL_I2C_Mem_Read+0x430>
        }
        /* 3 Last bytes */
        else
        {
          /* Wait until BTF flag is set */
          if (I2C_WaitOnFlagUntilTimeout(hi2c, I2C_FLAG_BTF, RESET, Timeout, tickstart) != HAL_OK)
 800199e:	6a7b      	ldr	r3, [r7, #36]	@ 0x24
 80019a0:	9300      	str	r3, [sp, #0]
 80019a2:	6bbb      	ldr	r3, [r7, #56]	@ 0x38
 80019a4:	2200      	movs	r2, #0
 80019a6:	496c      	ldr	r1, [pc, #432]	@ (8001b58 <HAL_I2C_Mem_Read+0x460>)
 80019a8:	68f8      	ldr	r0, [r7, #12]
 80019aa:	f000 fa55 	bl	8001e58 <I2C_WaitOnFlagUntilTimeout>
 80019ae:	4603      	mov	r3, r0
 80019b0:	2b00      	cmp	r3, #0
 80019b2:	d001      	beq.n	80019b8 <HAL_I2C_Mem_Read+0x2c0>
          {
            return HAL_ERROR;
 80019b4:	2301      	movs	r3, #1
 80019b6:	e0cb      	b.n	8001b50 <HAL_I2C_Mem_Read+0x458>
          }

          /* Disable Acknowledge */
          CLEAR_BIT(hi2c->Instance->CR1, I2C_CR1_ACK);
 80019b8:	68fb      	ldr	r3, [r7, #12]
 80019ba:	681b      	ldr	r3, [r3, #0]
 80019bc:	681a      	ldr	r2, [r3, #0]
 80019be:	68fb      	ldr	r3, [r7, #12]
 80019c0:	681b      	ldr	r3, [r3, #0]
 80019c2:	f422 6280 	bic.w	r2, r2, #1024	@ 0x400
 80019c6:	601a      	str	r2, [r3, #0]

          /* Read data from DR */
          *hi2c->pBuffPtr = (uint8_t)hi2c->Instance->DR;
 80019c8:	68fb      	ldr	r3, [r7, #12]
 80019ca:	681b      	ldr	r3, [r3, #0]
 80019cc:	691a      	ldr	r2, [r3, #16]
 80019ce:	68fb      	ldr	r3, [r7, #12]
 80019d0:	6a5b      	ldr	r3, [r3, #36]	@ 0x24
 80019d2:	b2d2      	uxtb	r2, r2
 80019d4:	701a      	strb	r2, [r3, #0]

          /* Increment Buffer pointer */
          hi2c->pBuffPtr++;
 80019d6:	68fb      	ldr	r3, [r7, #12]
 80019d8:	6a5b      	ldr	r3, [r3, #36]	@ 0x24
 80019da:	1c5a      	adds	r2, r3, #1
 80019dc:	68fb      	ldr	r3, [r7, #12]
 80019de:	625a      	str	r2, [r3, #36]	@ 0x24

          /* Update counter */
          hi2c->XferSize--;
 80019e0:	68fb      	ldr	r3, [r7, #12]
 80019e2:	8d1b      	ldrh	r3, [r3, #40]	@ 0x28
 80019e4:	3b01      	subs	r3, #1
 80019e6:	b29a      	uxth	r2, r3
 80019e8:	68fb      	ldr	r3, [r7, #12]
 80019ea:	851a      	strh	r2, [r3, #40]	@ 0x28
          hi2c->XferCount--;
 80019ec:	68fb      	ldr	r3, [r7, #12]
 80019ee:	8d5b      	ldrh	r3, [r3, #42]	@ 0x2a
 80019f0:	b29b      	uxth	r3, r3
 80019f2:	3b01      	subs	r3, #1
 80019f4:	b29a      	uxth	r2, r3
 80019f6:	68fb      	ldr	r3, [r7, #12]
 80019f8:	855a      	strh	r2, [r3, #42]	@ 0x2a

          /* Wait until BTF flag is set */
          if (I2C_WaitOnFlagUntilTimeout(hi2c, I2C_FLAG_BTF, RESET, Timeout, tickstart) != HAL_OK)
 80019fa:	6a7b      	ldr	r3, [r7, #36]	@ 0x24
 80019fc:	9300      	str	r3, [sp, #0]
 80019fe:	6bbb      	ldr	r3, [r7, #56]	@ 0x38
 8001a00:	2200      	movs	r2, #0
 8001a02:	4955      	ldr	r1, [pc, #340]	@ (8001b58 <HAL_I2C_Mem_Read+0x460>)
 8001a04:	68f8      	ldr	r0, [r7, #12]
 8001a06:	f000 fa27 	bl	8001e58 <I2C_WaitOnFlagUntilTimeout>
 8001a0a:	4603      	mov	r3, r0
 8001a0c:	2b00      	cmp	r3, #0
 8001a0e:	d001      	beq.n	8001a14 <HAL_I2C_Mem_Read+0x31c>
          {
            return HAL_ERROR;
 8001a10:	2301      	movs	r3, #1
 8001a12:	e09d      	b.n	8001b50 <HAL_I2C_Mem_Read+0x458>
          }

          /* Generate Stop */
          SET_BIT(hi2c->Instance->CR1, I2C_CR1_STOP);
 8001a14:	68fb      	ldr	r3, [r7, #12]
 8001a16:	681b      	ldr	r3, [r3, #0]
 8001a18:	681a      	ldr	r2, [r3, #0]
 8001a1a:	68fb      	ldr	r3, [r7, #12]
 8001a1c:	681b      	ldr	r3, [r3, #0]
 8001a1e:	f442 7200 	orr.w	r2, r2, #512	@ 0x200
 8001a22:	601a      	str	r2, [r3, #0]

          /* Read data from DR */
          *hi2c->pBuffPtr = (uint8_t)hi2c->Instance->DR;
 8001a24:	68fb      	ldr	r3, [r7, #12]
 8001a26:	681b      	ldr	r3, [r3, #0]
 8001a28:	691a      	ldr	r2, [r3, #16]
 8001a2a:	68fb      	ldr	r3, [r7, #12]
 8001a2c:	6a5b      	ldr	r3, [r3, #36]	@ 0x24
 8001a2e:	b2d2      	uxtb	r2, r2
 8001a30:	701a      	strb	r2, [r3, #0]

          /* Increment Buffer pointer */
          hi2c->pBuffPtr++;
 8001a32:	68fb      	ldr	r3, [r7, #12]
 8001a34:	6a5b      	ldr	r3, [r3, #36]	@ 0x24
 8001a36:	1c5a      	adds	r2, r3, #1
 8001a38:	68fb      	ldr	r3, [r7, #12]
 8001a3a:	625a      	str	r2, [r3, #36]	@ 0x24

          /* Update counter */
          hi2c->XferSize--;
 8001a3c:	68fb      	ldr	r3, [r7, #12]
 8001a3e:	8d1b      	ldrh	r3, [r3, #40]	@ 0x28
 8001a40:	3b01      	subs	r3, #1
 8001a42:	b29a      	uxth	r2, r3
 8001a44:	68fb      	ldr	r3, [r7, #12]
 8001a46:	851a      	strh	r2, [r3, #40]	@ 0x28
          hi2c->XferCount--;
 8001a48:	68fb      	ldr	r3, [r7, #12]
 8001a4a:	8d5b      	ldrh	r3, [r3, #42]	@ 0x2a
 8001a4c:	b29b      	uxth	r3, r3
 8001a4e:	3b01      	subs	r3, #1
 8001a50:	b29a      	uxth	r2, r3
 8001a52:	68fb      	ldr	r3, [r7, #12]
 8001a54:	855a      	strh	r2, [r3, #42]	@ 0x2a

          /* Read data from DR */
          *hi2c->pBuffPtr = (uint8_t)hi2c->Instance->DR;
 8001a56:	68fb      	ldr	r3, [r7, #12]
 8001a58:	681b      	ldr	r3, [r3, #0]
 8001a5a:	691a      	ldr	r2, [r3, #16]
 8001a5c:	68fb      	ldr	r3, [r7, #12]
 8001a5e:	6a5b      	ldr	r3, [r3, #36]	@ 0x24
 8001a60:	b2d2      	uxtb	r2, r2
 8001a62:	701a      	strb	r2, [r3, #0]

          /* Increment Buffer pointer */
          hi2c->pBuffPtr++;
 8001a64:	68fb      	ldr	r3, [r7, #12]
 8001a66:	6a5b      	ldr	r3, [r3, #36]	@ 0x24
 8001a68:	1c5a      	adds	r2, r3, #1
 8001a6a:	68fb      	ldr	r3, [r7, #12]
 8001a6c:	625a      	str	r2, [r3, #36]	@ 0x24

          /* Update counter */
          hi2c->XferSize--;
 8001a6e:	68fb      	ldr	r3, [r7, #12]
 8001a70:	8d1b      	ldrh	r3, [r3, #40]	@ 0x28
 8001a72:	3b01      	subs	r3, #1
 8001a74:	b29a      	uxth	r2, r3
 8001a76:	68fb      	ldr	r3, [r7, #12]
 8001a78:	851a      	strh	r2, [r3, #40]	@ 0x28
          hi2c->XferCount--;
 8001a7a:	68fb      	ldr	r3, [r7, #12]
 8001a7c:	8d5b      	ldrh	r3, [r3, #42]	@ 0x2a
 8001a7e:	b29b      	uxth	r3, r3
 8001a80:	3b01      	subs	r3, #1
 8001a82:	b29a      	uxth	r2, r3
 8001a84:	68fb      	ldr	r3, [r7, #12]
 8001a86:	855a      	strh	r2, [r3, #42]	@ 0x2a
 8001a88:	e04e      	b.n	8001b28 <HAL_I2C_Mem_Read+0x430>
        }
      }
      else
      {
        /* Wait until RXNE flag is set */
        if (I2C_WaitOnRXNEFlagUntilTimeout(hi2c, Timeout, tickstart) != HAL_OK)
 8001a8a:	6a7a      	ldr	r2, [r7, #36]	@ 0x24
 8001a8c:	6bb9      	ldr	r1, [r7, #56]	@ 0x38
 8001a8e:	68f8      	ldr	r0, [r7, #12]
 8001a90:	f000 fb8c 	bl	80021ac <I2C_WaitOnRXNEFlagUntilTimeout>
 8001a94:	4603      	mov	r3, r0
 8001a96:	2b00      	cmp	r3, #0
 8001a98:	d001      	beq.n	8001a9e <HAL_I2C_Mem_Read+0x3a6>
        {
          return HAL_ERROR;
 8001a9a:	2301      	movs	r3, #1
 8001a9c:	e058      	b.n	8001b50 <HAL_I2C_Mem_Read+0x458>
        }

        /* Read data from DR */
        *hi2c->pBuffPtr = (uint8_t)hi2c->Instance->DR;
 8001a9e:	68fb      	ldr	r3, [r7, #12]
 8001aa0:	681b      	ldr	r3, [r3, #0]
 8001aa2:	691a      	ldr	r2, [r3, #16]
 8001aa4:	68fb      	ldr	r3, [r7, #12]
 8001aa6:	6a5b      	ldr	r3, [r3, #36]	@ 0x24
 8001aa8:	b2d2      	uxtb	r2, r2
 8001aaa:	701a      	strb	r2, [r3, #0]

        /* Increment Buffer pointer */
        hi2c->pBuffPtr++;
 8001aac:	68fb      	ldr	r3, [r7, #12]
 8001aae:	6a5b      	ldr	r3, [r3, #36]	@ 0x24
 8001ab0:	1c5a      	adds	r2, r3, #1
 8001ab2:	68fb      	ldr	r3, [r7, #12]
 8001ab4:	625a      	str	r2, [r3, #36]	@ 0x24

        /* Update counter */
        hi2c->XferSize--;
 8001ab6:	68fb      	ldr	r3, [r7, #12]
 8001ab8:	8d1b      	ldrh	r3, [r3, #40]	@ 0x28
 8001aba:	3b01      	subs	r3, #1
 8001abc:	b29a      	uxth	r2, r3
 8001abe:	68fb      	ldr	r3, [r7, #12]
 8001ac0:	851a      	strh	r2, [r3, #40]	@ 0x28
        hi2c->XferCount--;
 8001ac2:	68fb      	ldr	r3, [r7, #12]
 8001ac4:	8d5b      	ldrh	r3, [r3, #42]	@ 0x2a
 8001ac6:	b29b      	uxth	r3, r3
 8001ac8:	3b01      	subs	r3, #1
 8001aca:	b29a      	uxth	r2, r3
 8001acc:	68fb      	ldr	r3, [r7, #12]
 8001ace:	855a      	strh	r2, [r3, #42]	@ 0x2a

        if (__HAL_I2C_GET_FLAG(hi2c, I2C_FLAG_BTF) == SET)
 8001ad0:	68fb      	ldr	r3, [r7, #12]
 8001ad2:	681b      	ldr	r3, [r3, #0]
 8001ad4:	695b      	ldr	r3, [r3, #20]
 8001ad6:	f003 0304 	and.w	r3, r3, #4
 8001ada:	2b04      	cmp	r3, #4
 8001adc:	d124      	bne.n	8001b28 <HAL_I2C_Mem_Read+0x430>
        {
          if (hi2c->XferSize == 3U)
 8001ade:	68fb      	ldr	r3, [r7, #12]
 8001ae0:	8d1b      	ldrh	r3, [r3, #40]	@ 0x28
 8001ae2:	2b03      	cmp	r3, #3
 8001ae4:	d107      	bne.n	8001af6 <HAL_I2C_Mem_Read+0x3fe>
          {
            /* Disable Acknowledge */
            CLEAR_BIT(hi2c->Instance->CR1, I2C_CR1_ACK);
 8001ae6:	68fb      	ldr	r3, [r7, #12]
 8001ae8:	681b      	ldr	r3, [r3, #0]
 8001aea:	681a      	ldr	r2, [r3, #0]
 8001aec:	68fb      	ldr	r3, [r7, #12]
 8001aee:	681b      	ldr	r3, [r3, #0]
 8001af0:	f422 6280 	bic.w	r2, r2, #1024	@ 0x400
 8001af4:	601a      	str	r2, [r3, #0]
          }
          /* Read data from DR */
          *hi2c->pBuffPtr = (uint8_t)hi2c->Instance->DR;
 8001af6:	68fb      	ldr	r3, [r7, #12]
 8001af8:	681b      	ldr	r3, [r3, #0]
 8001afa:	691a      	ldr	r2, [r3, #16]
 8001afc:	68fb      	ldr	r3, [r7, #12]
 8001afe:	6a5b      	ldr	r3, [r3, #36]	@ 0x24
 8001b00:	b2d2      	uxtb	r2, r2
 8001b02:	701a      	strb	r2, [r3, #0]

          /* Increment Buffer pointer */
          hi2c->pBuffPtr++;
 8001b04:	68fb      	ldr	r3, [r7, #12]
 8001b06:	6a5b      	ldr	r3, [r3, #36]	@ 0x24
 8001b08:	1c5a      	adds	r2, r3, #1
 8001b0a:	68fb      	ldr	r3, [r7, #12]
 8001b0c:	625a      	str	r2, [r3, #36]	@ 0x24

          /* Update counter */
          hi2c->XferSize--;
 8001b0e:	68fb      	ldr	r3, [r7, #12]
 8001b10:	8d1b      	ldrh	r3, [r3, #40]	@ 0x28
 8001b12:	3b01      	subs	r3, #1
 8001b14:	b29a      	uxth	r2, r3
 8001b16:	68fb      	ldr	r3, [r7, #12]
 8001b18:	851a      	strh	r2, [r3, #40]	@ 0x28
          hi2c->XferCount--;
 8001b1a:	68fb      	ldr	r3, [r7, #12]
 8001b1c:	8d5b      	ldrh	r3, [r3, #42]	@ 0x2a
 8001b1e:	b29b      	uxth	r3, r3
 8001b20:	3b01      	subs	r3, #1
 8001b22:	b29a      	uxth	r2, r3
 8001b24:	68fb      	ldr	r3, [r7, #12]
 8001b26:	855a      	strh	r2, [r3, #42]	@ 0x2a
    while (hi2c->XferSize > 0U)
 8001b28:	68fb      	ldr	r3, [r7, #12]
 8001b2a:	8d1b      	ldrh	r3, [r3, #40]	@ 0x28
 8001b2c:	2b00      	cmp	r3, #0
 8001b2e:	f47f aeb6 	bne.w	800189e <HAL_I2C_Mem_Read+0x1a6>
        }
      }
    }

    hi2c->State = HAL_I2C_STATE_READY;
 8001b32:	68fb      	ldr	r3, [r7, #12]
 8001b34:	2220      	movs	r2, #32
 8001b36:	f883 203d 	strb.w	r2, [r3, #61]	@ 0x3d
    hi2c->Mode = HAL_I2C_MODE_NONE;
 8001b3a:	68fb      	ldr	r3, [r7, #12]
 8001b3c:	2200      	movs	r2, #0
 8001b3e:	f883 203e 	strb.w	r2, [r3, #62]	@ 0x3e

    /* Process Unlocked */
    __HAL_UNLOCK(hi2c);
 8001b42:	68fb      	ldr	r3, [r7, #12]
 8001b44:	2200      	movs	r2, #0
 8001b46:	f883 203c 	strb.w	r2, [r3, #60]	@ 0x3c

    return HAL_OK;
 8001b4a:	2300      	movs	r3, #0
 8001b4c:	e000      	b.n	8001b50 <HAL_I2C_Mem_Read+0x458>
  }
  else
  {
    return HAL_BUSY;
 8001b4e:	2302      	movs	r3, #2
  }
}
 8001b50:	4618      	mov	r0, r3
 8001b52:	3728      	adds	r7, #40	@ 0x28
 8001b54:	46bd      	mov	sp, r7
 8001b56:	bd80      	pop	{r7, pc}
 8001b58:	00010004 	.word	0x00010004

08001b5c <I2C_RequestMemoryWrite>:
  * @param  Timeout Timeout duration
  * @param  Tickstart Tick start value
  * @retval HAL status
  */
static HAL_StatusTypeDef I2C_RequestMemoryWrite(I2C_HandleTypeDef *hi2c, uint16_t DevAddress, uint16_t MemAddress, uint16_t MemAddSize, uint32_t Timeout, uint32_t Tickstart)
{
 8001b5c:	b580      	push	{r7, lr}
 8001b5e:	b088      	sub	sp, #32
 8001b60:	af02      	add	r7, sp, #8
 8001b62:	60f8      	str	r0, [r7, #12]
 8001b64:	4608      	mov	r0, r1
 8001b66:	4611      	mov	r1, r2
 8001b68:	461a      	mov	r2, r3
 8001b6a:	4603      	mov	r3, r0
 8001b6c:	817b      	strh	r3, [r7, #10]
 8001b6e:	460b      	mov	r3, r1
 8001b70:	813b      	strh	r3, [r7, #8]
 8001b72:	4613      	mov	r3, r2
 8001b74:	80fb      	strh	r3, [r7, #6]
  /* Generate Start */
  SET_BIT(hi2c->Instance->CR1, I2C_CR1_START);
 8001b76:	68fb      	ldr	r3, [r7, #12]
 8001b78:	681b      	ldr	r3, [r3, #0]
 8001b7a:	681a      	ldr	r2, [r3, #0]
 8001b7c:	68fb      	ldr	r3, [r7, #12]
 8001b7e:	681b      	ldr	r3, [r3, #0]
 8001b80:	f442 7280 	orr.w	r2, r2, #256	@ 0x100
 8001b84:	601a      	str	r2, [r3, #0]

  /* Wait until SB flag is set */
  if (I2C_WaitOnFlagUntilTimeout(hi2c, I2C_FLAG_SB, RESET, Timeout, Tickstart) != HAL_OK)
 8001b86:	6a7b      	ldr	r3, [r7, #36]	@ 0x24
 8001b88:	9300      	str	r3, [sp, #0]
 8001b8a:	6a3b      	ldr	r3, [r7, #32]
 8001b8c:	2200      	movs	r2, #0
 8001b8e:	f04f 1101 	mov.w	r1, #65537	@ 0x10001
 8001b92:	68f8      	ldr	r0, [r7, #12]
 8001b94:	f000 f960 	bl	8001e58 <I2C_WaitOnFlagUntilTimeout>
 8001b98:	4603      	mov	r3, r0
 8001b9a:	2b00      	cmp	r3, #0
 8001b9c:	d00d      	beq.n	8001bba <I2C_RequestMemoryWrite+0x5e>
  {
    if (READ_BIT(hi2c->Instance->CR1, I2C_CR1_START) == I2C_CR1_START)
 8001b9e:	68fb      	ldr	r3, [r7, #12]
 8001ba0:	681b      	ldr	r3, [r3, #0]
 8001ba2:	681b      	ldr	r3, [r3, #0]
 8001ba4:	f403 7380 	and.w	r3, r3, #256	@ 0x100
 8001ba8:	f5b3 7f80 	cmp.w	r3, #256	@ 0x100
 8001bac:	d103      	bne.n	8001bb6 <I2C_RequestMemoryWrite+0x5a>
    {
      hi2c->ErrorCode = HAL_I2C_WRONG_START;
 8001bae:	68fb      	ldr	r3, [r7, #12]
 8001bb0:	f44f 7200 	mov.w	r2, #512	@ 0x200
 8001bb4:	641a      	str	r2, [r3, #64]	@ 0x40
    }
    return HAL_TIMEOUT;
 8001bb6:	2303      	movs	r3, #3
 8001bb8:	e05f      	b.n	8001c7a <I2C_RequestMemoryWrite+0x11e>
  }

  /* Send slave address */
  hi2c->Instance->DR = I2C_7BIT_ADD_WRITE(DevAddress);
 8001bba:	897b      	ldrh	r3, [r7, #10]
 8001bbc:	b2db      	uxtb	r3, r3
 8001bbe:	461a      	mov	r2, r3
 8001bc0:	68fb      	ldr	r3, [r7, #12]
 8001bc2:	681b      	ldr	r3, [r3, #0]
 8001bc4:	f002 02fe 	and.w	r2, r2, #254	@ 0xfe
 8001bc8:	611a      	str	r2, [r3, #16]

  /* Wait until ADDR flag is set */
  if (I2C_WaitOnMasterAddressFlagUntilTimeout(hi2c, I2C_FLAG_ADDR, Timeout, Tickstart) != HAL_OK)
 8001bca:	6a7b      	ldr	r3, [r7, #36]	@ 0x24
 8001bcc:	6a3a      	ldr	r2, [r7, #32]
 8001bce:	492d      	ldr	r1, [pc, #180]	@ (8001c84 <I2C_RequestMemoryWrite+0x128>)
 8001bd0:	68f8      	ldr	r0, [r7, #12]
 8001bd2:	f000 f9bb 	bl	8001f4c <I2C_WaitOnMasterAddressFlagUntilTimeout>
 8001bd6:	4603      	mov	r3, r0
 8001bd8:	2b00      	cmp	r3, #0
 8001bda:	d001      	beq.n	8001be0 <I2C_RequestMemoryWrite+0x84>
  {
    return HAL_ERROR;
 8001bdc:	2301      	movs	r3, #1
 8001bde:	e04c      	b.n	8001c7a <I2C_RequestMemoryWrite+0x11e>
  }

  /* Clear ADDR flag */
  __HAL_I2C_CLEAR_ADDRFLAG(hi2c);
 8001be0:	2300      	movs	r3, #0
 8001be2:	617b      	str	r3, [r7, #20]
 8001be4:	68fb      	ldr	r3, [r7, #12]
 8001be6:	681b      	ldr	r3, [r3, #0]
 8001be8:	695b      	ldr	r3, [r3, #20]
 8001bea:	617b      	str	r3, [r7, #20]
 8001bec:	68fb      	ldr	r3, [r7, #12]
 8001bee:	681b      	ldr	r3, [r3, #0]
 8001bf0:	699b      	ldr	r3, [r3, #24]
 8001bf2:	617b      	str	r3, [r7, #20]
 8001bf4:	697b      	ldr	r3, [r7, #20]

  /* Wait until TXE flag is set */
  if (I2C_WaitOnTXEFlagUntilTimeout(hi2c, Timeout, Tickstart) != HAL_OK)
 8001bf6:	6a7a      	ldr	r2, [r7, #36]	@ 0x24
 8001bf8:	6a39      	ldr	r1, [r7, #32]
 8001bfa:	68f8      	ldr	r0, [r7, #12]
 8001bfc:	f000 fa46 	bl	800208c <I2C_WaitOnTXEFlagUntilTimeout>
 8001c00:	4603      	mov	r3, r0
 8001c02:	2b00      	cmp	r3, #0
 8001c04:	d00d      	beq.n	8001c22 <I2C_RequestMemoryWrite+0xc6>
  {
    if (hi2c->ErrorCode == HAL_I2C_ERROR_AF)
 8001c06:	68fb      	ldr	r3, [r7, #12]
 8001c08:	6c1b      	ldr	r3, [r3, #64]	@ 0x40
 8001c0a:	2b04      	cmp	r3, #4
 8001c0c:	d107      	bne.n	8001c1e <I2C_RequestMemoryWrite+0xc2>
    {
      /* Generate Stop */
      SET_BIT(hi2c->Instance->CR1, I2C_CR1_STOP);
 8001c0e:	68fb      	ldr	r3, [r7, #12]
 8001c10:	681b      	ldr	r3, [r3, #0]
 8001c12:	681a      	ldr	r2, [r3, #0]
 8001c14:	68fb      	ldr	r3, [r7, #12]
 8001c16:	681b      	ldr	r3, [r3, #0]
 8001c18:	f442 7200 	orr.w	r2, r2, #512	@ 0x200
 8001c1c:	601a      	str	r2, [r3, #0]
    }
    return HAL_ERROR;
 8001c1e:	2301      	movs	r3, #1
 8001c20:	e02b      	b.n	8001c7a <I2C_RequestMemoryWrite+0x11e>
  }

  /* If Memory address size is 8Bit */
  if (MemAddSize == I2C_MEMADD_SIZE_8BIT)
 8001c22:	88fb      	ldrh	r3, [r7, #6]
 8001c24:	2b01      	cmp	r3, #1
 8001c26:	d105      	bne.n	8001c34 <I2C_RequestMemoryWrite+0xd8>
  {
    /* Send Memory Address */
    hi2c->Instance->DR = I2C_MEM_ADD_LSB(MemAddress);
 8001c28:	893b      	ldrh	r3, [r7, #8]
 8001c2a:	b2da      	uxtb	r2, r3
 8001c2c:	68fb      	ldr	r3, [r7, #12]
 8001c2e:	681b      	ldr	r3, [r3, #0]
 8001c30:	611a      	str	r2, [r3, #16]
 8001c32:	e021      	b.n	8001c78 <I2C_RequestMemoryWrite+0x11c>
  }
  /* If Memory address size is 16Bit */
  else
  {
    /* Send MSB of Memory Address */
    hi2c->Instance->DR = I2C_MEM_ADD_MSB(MemAddress);
 8001c34:	893b      	ldrh	r3, [r7, #8]
 8001c36:	0a1b      	lsrs	r3, r3, #8
 8001c38:	b29b      	uxth	r3, r3
 8001c3a:	b2da      	uxtb	r2, r3
 8001c3c:	68fb      	ldr	r3, [r7, #12]
 8001c3e:	681b      	ldr	r3, [r3, #0]
 8001c40:	611a      	str	r2, [r3, #16]

    /* Wait until TXE flag is set */
    if (I2C_WaitOnTXEFlagUntilTimeout(hi2c, Timeout, Tickstart) != HAL_OK)
 8001c42:	6a7a      	ldr	r2, [r7, #36]	@ 0x24
 8001c44:	6a39      	ldr	r1, [r7, #32]
 8001c46:	68f8      	ldr	r0, [r7, #12]
 8001c48:	f000 fa20 	bl	800208c <I2C_WaitOnTXEFlagUntilTimeout>
 8001c4c:	4603      	mov	r3, r0
 8001c4e:	2b00      	cmp	r3, #0
 8001c50:	d00d      	beq.n	8001c6e <I2C_RequestMemoryWrite+0x112>
    {
      if (hi2c->ErrorCode == HAL_I2C_ERROR_AF)
 8001c52:	68fb      	ldr	r3, [r7, #12]
 8001c54:	6c1b      	ldr	r3, [r3, #64]	@ 0x40
 8001c56:	2b04      	cmp	r3, #4
 8001c58:	d107      	bne.n	8001c6a <I2C_RequestMemoryWrite+0x10e>
      {
        /* Generate Stop */
        SET_BIT(hi2c->Instance->CR1, I2C_CR1_STOP);
 8001c5a:	68fb      	ldr	r3, [r7, #12]
 8001c5c:	681b      	ldr	r3, [r3, #0]
 8001c5e:	681a      	ldr	r2, [r3, #0]
 8001c60:	68fb      	ldr	r3, [r7, #12]
 8001c62:	681b      	ldr	r3, [r3, #0]
 8001c64:	f442 7200 	orr.w	r2, r2, #512	@ 0x200
 8001c68:	601a      	str	r2, [r3, #0]
      }
      return HAL_ERROR;
 8001c6a:	2301      	movs	r3, #1
 8001c6c:	e005      	b.n	8001c7a <I2C_RequestMemoryWrite+0x11e>
    }

    /* Send LSB of Memory Address */
    hi2c->Instance->DR = I2C_MEM_ADD_LSB(MemAddress);
 8001c6e:	893b      	ldrh	r3, [r7, #8]
 8001c70:	b2da      	uxtb	r2, r3
 8001c72:	68fb      	ldr	r3, [r7, #12]
 8001c74:	681b      	ldr	r3, [r3, #0]
 8001c76:	611a      	str	r2, [r3, #16]
  }

  return HAL_OK;
 8001c78:	2300      	movs	r3, #0
}
 8001c7a:	4618      	mov	r0, r3
 8001c7c:	3718      	adds	r7, #24
 8001c7e:	46bd      	mov	sp, r7
 8001c80:	bd80      	pop	{r7, pc}
 8001c82:	bf00      	nop
 8001c84:	00010002 	.word	0x00010002

08001c88 <I2C_RequestMemoryRead>:
  * @param  Timeout Timeout duration
  * @param  Tickstart Tick start value
  * @retval HAL status
  */
static HAL_StatusTypeDef I2C_RequestMemoryRead(I2C_HandleTypeDef *hi2c, uint16_t DevAddress, uint16_t MemAddress, uint16_t MemAddSize, uint32_t Timeout, uint32_t Tickstart)
{
 8001c88:	b580      	push	{r7, lr}
 8001c8a:	b088      	sub	sp, #32
 8001c8c:	af02      	add	r7, sp, #8
 8001c8e:	60f8      	str	r0, [r7, #12]
 8001c90:	4608      	mov	r0, r1
 8001c92:	4611      	mov	r1, r2
 8001c94:	461a      	mov	r2, r3
 8001c96:	4603      	mov	r3, r0
 8001c98:	817b      	strh	r3, [r7, #10]
 8001c9a:	460b      	mov	r3, r1
 8001c9c:	813b      	strh	r3, [r7, #8]
 8001c9e:	4613      	mov	r3, r2
 8001ca0:	80fb      	strh	r3, [r7, #6]
  /* Enable Acknowledge */
  SET_BIT(hi2c->Instance->CR1, I2C_CR1_ACK);
 8001ca2:	68fb      	ldr	r3, [r7, #12]
 8001ca4:	681b      	ldr	r3, [r3, #0]
 8001ca6:	681a      	ldr	r2, [r3, #0]
 8001ca8:	68fb      	ldr	r3, [r7, #12]
 8001caa:	681b      	ldr	r3, [r3, #0]
 8001cac:	f442 6280 	orr.w	r2, r2, #1024	@ 0x400
 8001cb0:	601a      	str	r2, [r3, #0]

  /* Generate Start */
  SET_BIT(hi2c->Instance->CR1, I2C_CR1_START);
 8001cb2:	68fb      	ldr	r3, [r7, #12]
 8001cb4:	681b      	ldr	r3, [r3, #0]
 8001cb6:	681a      	ldr	r2, [r3, #0]
 8001cb8:	68fb      	ldr	r3, [r7, #12]
 8001cba:	681b      	ldr	r3, [r3, #0]
 8001cbc:	f442 7280 	orr.w	r2, r2, #256	@ 0x100
 8001cc0:	601a      	str	r2, [r3, #0]

  /* Wait until SB flag is set */
  if (I2C_WaitOnFlagUntilTimeout(hi2c, I2C_FLAG_SB, RESET, Timeout, Tickstart) != HAL_OK)
 8001cc2:	6a7b      	ldr	r3, [r7, #36]	@ 0x24
 8001cc4:	9300      	str	r3, [sp, #0]
 8001cc6:	6a3b      	ldr	r3, [r7, #32]
 8001cc8:	2200      	movs	r2, #0
 8001cca:	f04f 1101 	mov.w	r1, #65537	@ 0x10001
 8001cce:	68f8      	ldr	r0, [r7, #12]
 8001cd0:	f000 f8c2 	bl	8001e58 <I2C_WaitOnFlagUntilTimeout>
 8001cd4:	4603      	mov	r3, r0
 8001cd6:	2b00      	cmp	r3, #0
 8001cd8:	d00d      	beq.n	8001cf6 <I2C_RequestMemoryRead+0x6e>
  {
    if (READ_BIT(hi2c->Instance->CR1, I2C_CR1_START) == I2C_CR1_START)
 8001cda:	68fb      	ldr	r3, [r7, #12]
 8001cdc:	681b      	ldr	r3, [r3, #0]
 8001cde:	681b      	ldr	r3, [r3, #0]
 8001ce0:	f403 7380 	and.w	r3, r3, #256	@ 0x100
 8001ce4:	f5b3 7f80 	cmp.w	r3, #256	@ 0x100
 8001ce8:	d103      	bne.n	8001cf2 <I2C_RequestMemoryRead+0x6a>
    {
      hi2c->ErrorCode = HAL_I2C_WRONG_START;
 8001cea:	68fb      	ldr	r3, [r7, #12]
 8001cec:	f44f 7200 	mov.w	r2, #512	@ 0x200
 8001cf0:	641a      	str	r2, [r3, #64]	@ 0x40
    }
    return HAL_TIMEOUT;
 8001cf2:	2303      	movs	r3, #3
 8001cf4:	e0aa      	b.n	8001e4c <I2C_RequestMemoryRead+0x1c4>
  }

  /* Send slave address */
  hi2c->Instance->DR = I2C_7BIT_ADD_WRITE(DevAddress);
 8001cf6:	897b      	ldrh	r3, [r7, #10]
 8001cf8:	b2db      	uxtb	r3, r3
 8001cfa:	461a      	mov	r2, r3
 8001cfc:	68fb      	ldr	r3, [r7, #12]
 8001cfe:	681b      	ldr	r3, [r3, #0]
 8001d00:	f002 02fe 	and.w	r2, r2, #254	@ 0xfe
 8001d04:	611a      	str	r2, [r3, #16]

  /* Wait until ADDR flag is set */
  if (I2C_WaitOnMasterAddressFlagUntilTimeout(hi2c, I2C_FLAG_ADDR, Timeout, Tickstart) != HAL_OK)
 8001d06:	6a7b      	ldr	r3, [r7, #36]	@ 0x24
 8001d08:	6a3a      	ldr	r2, [r7, #32]
 8001d0a:	4952      	ldr	r1, [pc, #328]	@ (8001e54 <I2C_RequestMemoryRead+0x1cc>)
 8001d0c:	68f8      	ldr	r0, [r7, #12]
 8001d0e:	f000 f91d 	bl	8001f4c <I2C_WaitOnMasterAddressFlagUntilTimeout>
 8001d12:	4603      	mov	r3, r0
 8001d14:	2b00      	cmp	r3, #0
 8001d16:	d001      	beq.n	8001d1c <I2C_RequestMemoryRead+0x94>
  {
    return HAL_ERROR;
 8001d18:	2301      	movs	r3, #1
 8001d1a:	e097      	b.n	8001e4c <I2C_RequestMemoryRead+0x1c4>
  }

  /* Clear ADDR flag */
  __HAL_I2C_CLEAR_ADDRFLAG(hi2c);
 8001d1c:	2300      	movs	r3, #0
 8001d1e:	617b      	str	r3, [r7, #20]
 8001d20:	68fb      	ldr	r3, [r7, #12]
 8001d22:	681b      	ldr	r3, [r3, #0]
 8001d24:	695b      	ldr	r3, [r3, #20]
 8001d26:	617b      	str	r3, [r7, #20]
 8001d28:	68fb      	ldr	r3, [r7, #12]
 8001d2a:	681b      	ldr	r3, [r3, #0]
 8001d2c:	699b      	ldr	r3, [r3, #24]
 8001d2e:	617b      	str	r3, [r7, #20]
 8001d30:	697b      	ldr	r3, [r7, #20]

  /* Wait until TXE flag is set */
  if (I2C_WaitOnTXEFlagUntilTimeout(hi2c, Timeout, Tickstart) != HAL_OK)
 8001d32:	6a7a      	ldr	r2, [r7, #36]	@ 0x24
 8001d34:	6a39      	ldr	r1, [r7, #32]
 8001d36:	68f8      	ldr	r0, [r7, #12]
 8001d38:	f000 f9a8 	bl	800208c <I2C_WaitOnTXEFlagUntilTimeout>
 8001d3c:	4603      	mov	r3, r0
 8001d3e:	2b00      	cmp	r3, #0
 8001d40:	d00d      	beq.n	8001d5e <I2C_RequestMemoryRead+0xd6>
  {
    if (hi2c->ErrorCode == HAL_I2C_ERROR_AF)
 8001d42:	68fb      	ldr	r3, [r7, #12]
 8001d44:	6c1b      	ldr	r3, [r3, #64]	@ 0x40
 8001d46:	2b04      	cmp	r3, #4
 8001d48:	d107      	bne.n	8001d5a <I2C_RequestMemoryRead+0xd2>
    {
      /* Generate Stop */
      SET_BIT(hi2c->Instance->CR1, I2C_CR1_STOP);
 8001d4a:	68fb      	ldr	r3, [r7, #12]
 8001d4c:	681b      	ldr	r3, [r3, #0]
 8001d4e:	681a      	ldr	r2, [r3, #0]
 8001d50:	68fb      	ldr	r3, [r7, #12]
 8001d52:	681b      	ldr	r3, [r3, #0]
 8001d54:	f442 7200 	orr.w	r2, r2, #512	@ 0x200
 8001d58:	601a      	str	r2, [r3, #0]
    }
    return HAL_ERROR;
 8001d5a:	2301      	movs	r3, #1
 8001d5c:	e076      	b.n	8001e4c <I2C_RequestMemoryRead+0x1c4>
  }

  /* If Memory address size is 8Bit */
  if (MemAddSize == I2C_MEMADD_SIZE_8BIT)
 8001d5e:	88fb      	ldrh	r3, [r7, #6]
 8001d60:	2b01      	cmp	r3, #1
 8001d62:	d105      	bne.n	8001d70 <I2C_RequestMemoryRead+0xe8>
  {
    /* Send Memory Address */
    hi2c->Instance->DR = I2C_MEM_ADD_LSB(MemAddress);
 8001d64:	893b      	ldrh	r3, [r7, #8]
 8001d66:	b2da      	uxtb	r2, r3
 8001d68:	68fb      	ldr	r3, [r7, #12]
 8001d6a:	681b      	ldr	r3, [r3, #0]
 8001d6c:	611a      	str	r2, [r3, #16]
 8001d6e:	e021      	b.n	8001db4 <I2C_RequestMemoryRead+0x12c>
  }
  /* If Memory address size is 16Bit */
  else
  {
    /* Send MSB of Memory Address */
    hi2c->Instance->DR = I2C_MEM_ADD_MSB(MemAddress);
 8001d70:	893b      	ldrh	r3, [r7, #8]
 8001d72:	0a1b      	lsrs	r3, r3, #8
 8001d74:	b29b      	uxth	r3, r3
 8001d76:	b2da      	uxtb	r2, r3
 8001d78:	68fb      	ldr	r3, [r7, #12]
 8001d7a:	681b      	ldr	r3, [r3, #0]
 8001d7c:	611a      	str	r2, [r3, #16]

    /* Wait until TXE flag is set */
    if (I2C_WaitOnTXEFlagUntilTimeout(hi2c, Timeout, Tickstart) != HAL_OK)
 8001d7e:	6a7a      	ldr	r2, [r7, #36]	@ 0x24
 8001d80:	6a39      	ldr	r1, [r7, #32]
 8001d82:	68f8      	ldr	r0, [r7, #12]
 8001d84:	f000 f982 	bl	800208c <I2C_WaitOnTXEFlagUntilTimeout>
 8001d88:	4603      	mov	r3, r0
 8001d8a:	2b00      	cmp	r3, #0
 8001d8c:	d00d      	beq.n	8001daa <I2C_RequestMemoryRead+0x122>
    {
      if (hi2c->ErrorCode == HAL_I2C_ERROR_AF)
 8001d8e:	68fb      	ldr	r3, [r7, #12]
 8001d90:	6c1b      	ldr	r3, [r3, #64]	@ 0x40
 8001d92:	2b04      	cmp	r3, #4
 8001d94:	d107      	bne.n	8001da6 <I2C_RequestMemoryRead+0x11e>
      {
        /* Generate Stop */
        SET_BIT(hi2c->Instance->CR1, I2C_CR1_STOP);
 8001d96:	68fb      	ldr	r3, [r7, #12]
 8001d98:	681b      	ldr	r3, [r3, #0]
 8001d9a:	681a      	ldr	r2, [r3, #0]
 8001d9c:	68fb      	ldr	r3, [r7, #12]
 8001d9e:	681b      	ldr	r3, [r3, #0]
 8001da0:	f442 7200 	orr.w	r2, r2, #512	@ 0x200
 8001da4:	601a      	str	r2, [r3, #0]
      }
      return HAL_ERROR;
 8001da6:	2301      	movs	r3, #1
 8001da8:	e050      	b.n	8001e4c <I2C_RequestMemoryRead+0x1c4>
    }

    /* Send LSB of Memory Address */
    hi2c->Instance->DR = I2C_MEM_ADD_LSB(MemAddress);
 8001daa:	893b      	ldrh	r3, [r7, #8]
 8001dac:	b2da      	uxtb	r2, r3
 8001dae:	68fb      	ldr	r3, [r7, #12]
 8001db0:	681b      	ldr	r3, [r3, #0]
 8001db2:	611a      	str	r2, [r3, #16]
  }

  /* Wait until TXE flag is set */
  if (I2C_WaitOnTXEFlagUntilTimeout(hi2c, Timeout, Tickstart) != HAL_OK)
 8001db4:	6a7a      	ldr	r2, [r7, #36]	@ 0x24
 8001db6:	6a39      	ldr	r1, [r7, #32]
 8001db8:	68f8      	ldr	r0, [r7, #12]
 8001dba:	f000 f967 	bl	800208c <I2C_WaitOnTXEFlagUntilTimeout>
 8001dbe:	4603      	mov	r3, r0
 8001dc0:	2b00      	cmp	r3, #0
 8001dc2:	d00d      	beq.n	8001de0 <I2C_RequestMemoryRead+0x158>
  {
    if (hi2c->ErrorCode == HAL_I2C_ERROR_AF)
 8001dc4:	68fb      	ldr	r3, [r7, #12]
 8001dc6:	6c1b      	ldr	r3, [r3, #64]	@ 0x40
 8001dc8:	2b04      	cmp	r3, #4
 8001dca:	d107      	bne.n	8001ddc <I2C_RequestMemoryRead+0x154>
    {
      /* Generate Stop */
      SET_BIT(hi2c->Instance->CR1, I2C_CR1_STOP);
 8001dcc:	68fb      	ldr	r3, [r7, #12]
 8001dce:	681b      	ldr	r3, [r3, #0]
 8001dd0:	681a      	ldr	r2, [r3, #0]
 8001dd2:	68fb      	ldr	r3, [r7, #12]
 8001dd4:	681b      	ldr	r3, [r3, #0]
 8001dd6:	f442 7200 	orr.w	r2, r2, #512	@ 0x200
 8001dda:	601a      	str	r2, [r3, #0]
    }
    return HAL_ERROR;
 8001ddc:	2301      	movs	r3, #1
 8001dde:	e035      	b.n	8001e4c <I2C_RequestMemoryRead+0x1c4>
  }

  /* Generate Restart */
  SET_BIT(hi2c->Instance->CR1, I2C_CR1_START);
 8001de0:	68fb      	ldr	r3, [r7, #12]
 8001de2:	681b      	ldr	r3, [r3, #0]
 8001de4:	681a      	ldr	r2, [r3, #0]
 8001de6:	68fb      	ldr	r3, [r7, #12]
 8001de8:	681b      	ldr	r3, [r3, #0]
 8001dea:	f442 7280 	orr.w	r2, r2, #256	@ 0x100
 8001dee:	601a      	str	r2, [r3, #0]

  /* Wait until SB flag is set */
  if (I2C_WaitOnFlagUntilTimeout(hi2c, I2C_FLAG_SB, RESET, Timeout, Tickstart) != HAL_OK)
 8001df0:	6a7b      	ldr	r3, [r7, #36]	@ 0x24
 8001df2:	9300      	str	r3, [sp, #0]
 8001df4:	6a3b      	ldr	r3, [r7, #32]
 8001df6:	2200      	movs	r2, #0
 8001df8:	f04f 1101 	mov.w	r1, #65537	@ 0x10001
 8001dfc:	68f8      	ldr	r0, [r7, #12]
 8001dfe:	f000 f82b 	bl	8001e58 <I2C_WaitOnFlagUntilTimeout>
 8001e02:	4603      	mov	r3, r0
 8001e04:	2b00      	cmp	r3, #0
 8001e06:	d00d      	beq.n	8001e24 <I2C_RequestMemoryRead+0x19c>
  {
    if (READ_BIT(hi2c->Instance->CR1, I2C_CR1_START) == I2C_CR1_START)
 8001e08:	68fb      	ldr	r3, [r7, #12]
 8001e0a:	681b      	ldr	r3, [r3, #0]
 8001e0c:	681b      	ldr	r3, [r3, #0]
 8001e0e:	f403 7380 	and.w	r3, r3, #256	@ 0x100
 8001e12:	f5b3 7f80 	cmp.w	r3, #256	@ 0x100
 8001e16:	d103      	bne.n	8001e20 <I2C_RequestMemoryRead+0x198>
    {
      hi2c->ErrorCode = HAL_I2C_WRONG_START;
 8001e18:	68fb      	ldr	r3, [r7, #12]
 8001e1a:	f44f 7200 	mov.w	r2, #512	@ 0x200
 8001e1e:	641a      	str	r2, [r3, #64]	@ 0x40
    }
    return HAL_TIMEOUT;
 8001e20:	2303      	movs	r3, #3
 8001e22:	e013      	b.n	8001e4c <I2C_RequestMemoryRead+0x1c4>
  }

  /* Send slave address */
  hi2c->Instance->DR = I2C_7BIT_ADD_READ(DevAddress);
 8001e24:	897b      	ldrh	r3, [r7, #10]
 8001e26:	b2db      	uxtb	r3, r3
 8001e28:	f043 0301 	orr.w	r3, r3, #1
 8001e2c:	b2da      	uxtb	r2, r3
 8001e2e:	68fb      	ldr	r3, [r7, #12]
 8001e30:	681b      	ldr	r3, [r3, #0]
 8001e32:	611a      	str	r2, [r3, #16]

  /* Wait until ADDR flag is set */
  if (I2C_WaitOnMasterAddressFlagUntilTimeout(hi2c, I2C_FLAG_ADDR, Timeout, Tickstart) != HAL_OK)
 8001e34:	6a7b      	ldr	r3, [r7, #36]	@ 0x24
 8001e36:	6a3a      	ldr	r2, [r7, #32]
 8001e38:	4906      	ldr	r1, [pc, #24]	@ (8001e54 <I2C_RequestMemoryRead+0x1cc>)
 8001e3a:	68f8      	ldr	r0, [r7, #12]
 8001e3c:	f000 f886 	bl	8001f4c <I2C_WaitOnMasterAddressFlagUntilTimeout>
 8001e40:	4603      	mov	r3, r0
 8001e42:	2b00      	cmp	r3, #0
 8001e44:	d001      	beq.n	8001e4a <I2C_RequestMemoryRead+0x1c2>
  {
    return HAL_ERROR;
 8001e46:	2301      	movs	r3, #1
 8001e48:	e000      	b.n	8001e4c <I2C_RequestMemoryRead+0x1c4>
  }

  return HAL_OK;
 8001e4a:	2300      	movs	r3, #0
}
 8001e4c:	4618      	mov	r0, r3
 8001e4e:	3718      	adds	r7, #24
 8001e50:	46bd      	mov	sp, r7
 8001e52:	bd80      	pop	{r7, pc}
 8001e54:	00010002 	.word	0x00010002

08001e58 <I2C_WaitOnFlagUntilTimeout>:
  * @param  Timeout Timeout duration
  * @param  Tickstart Tick start value
  * @retval HAL status
  */
static HAL_StatusTypeDef I2C_WaitOnFlagUntilTimeout(I2C_HandleTypeDef *hi2c, uint32_t Flag, FlagStatus Status, uint32_t Timeout, uint32_t Tickstart)
{
 8001e58:	b580      	push	{r7, lr}
 8001e5a:	b084      	sub	sp, #16
 8001e5c:	af00      	add	r7, sp, #0
 8001e5e:	60f8      	str	r0, [r7, #12]
 8001e60:	60b9      	str	r1, [r7, #8]
 8001e62:	603b      	str	r3, [r7, #0]
 8001e64:	4613      	mov	r3, r2
 8001e66:	71fb      	strb	r3, [r7, #7]
  /* Wait until flag is set */
  while (__HAL_I2C_GET_FLAG(hi2c, Flag) == Status)
 8001e68:	e048      	b.n	8001efc <I2C_WaitOnFlagUntilTimeout+0xa4>
  {
    /* Check for the Timeout */
    if (Timeout != HAL_MAX_DELAY)
 8001e6a:	683b      	ldr	r3, [r7, #0]
 8001e6c:	f1b3 3fff 	cmp.w	r3, #4294967295
 8001e70:	d044      	beq.n	8001efc <I2C_WaitOnFlagUntilTimeout+0xa4>
    {
      if (((HAL_GetTick() - Tickstart) > Timeout) || (Timeout == 0U))
 8001e72:	f7fe ff35 	bl	8000ce0 <HAL_GetTick>
 8001e76:	4602      	mov	r2, r0
 8001e78:	69bb      	ldr	r3, [r7, #24]
 8001e7a:	1ad3      	subs	r3, r2, r3
 8001e7c:	683a      	ldr	r2, [r7, #0]
 8001e7e:	429a      	cmp	r2, r3
 8001e80:	d302      	bcc.n	8001e88 <I2C_WaitOnFlagUntilTimeout+0x30>
 8001e82:	683b      	ldr	r3, [r7, #0]
 8001e84:	2b00      	cmp	r3, #0
 8001e86:	d139      	bne.n	8001efc <I2C_WaitOnFlagUntilTimeout+0xa4>
      {
        if ((__HAL_I2C_GET_FLAG(hi2c, Flag) == Status))
 8001e88:	68bb      	ldr	r3, [r7, #8]
 8001e8a:	0c1b      	lsrs	r3, r3, #16
 8001e8c:	b2db      	uxtb	r3, r3
 8001e8e:	2b01      	cmp	r3, #1
 8001e90:	d10d      	bne.n	8001eae <I2C_WaitOnFlagUntilTimeout+0x56>
 8001e92:	68fb      	ldr	r3, [r7, #12]
 8001e94:	681b      	ldr	r3, [r3, #0]
 8001e96:	695b      	ldr	r3, [r3, #20]
 8001e98:	43da      	mvns	r2, r3
 8001e9a:	68bb      	ldr	r3, [r7, #8]
 8001e9c:	4013      	ands	r3, r2
 8001e9e:	b29b      	uxth	r3, r3
 8001ea0:	2b00      	cmp	r3, #0
 8001ea2:	bf0c      	ite	eq
 8001ea4:	2301      	moveq	r3, #1
 8001ea6:	2300      	movne	r3, #0
 8001ea8:	b2db      	uxtb	r3, r3
 8001eaa:	461a      	mov	r2, r3
 8001eac:	e00c      	b.n	8001ec8 <I2C_WaitOnFlagUntilTimeout+0x70>
 8001eae:	68fb      	ldr	r3, [r7, #12]
 8001eb0:	681b      	ldr	r3, [r3, #0]
 8001eb2:	699b      	ldr	r3, [r3, #24]
 8001eb4:	43da      	mvns	r2, r3
 8001eb6:	68bb      	ldr	r3, [r7, #8]
 8001eb8:	4013      	ands	r3, r2
 8001eba:	b29b      	uxth	r3, r3
 8001ebc:	2b00      	cmp	r3, #0
 8001ebe:	bf0c      	ite	eq
 8001ec0:	2301      	moveq	r3, #1
 8001ec2:	2300      	movne	r3, #0
 8001ec4:	b2db      	uxtb	r3, r3
 8001ec6:	461a      	mov	r2, r3
 8001ec8:	79fb      	ldrb	r3, [r7, #7]
 8001eca:	429a      	cmp	r2, r3
 8001ecc:	d116      	bne.n	8001efc <I2C_WaitOnFlagUntilTimeout+0xa4>
        {
          hi2c->PreviousState     = I2C_STATE_NONE;
 8001ece:	68fb      	ldr	r3, [r7, #12]
 8001ed0:	2200      	movs	r2, #0
 8001ed2:	631a      	str	r2, [r3, #48]	@ 0x30
          hi2c->State             = HAL_I2C_STATE_READY;
 8001ed4:	68fb      	ldr	r3, [r7, #12]
 8001ed6:	2220      	movs	r2, #32
 8001ed8:	f883 203d 	strb.w	r2, [r3, #61]	@ 0x3d
          hi2c->Mode              = HAL_I2C_MODE_NONE;
 8001edc:	68fb      	ldr	r3, [r7, #12]
 8001ede:	2200      	movs	r2, #0
 8001ee0:	f883 203e 	strb.w	r2, [r3, #62]	@ 0x3e
          hi2c->ErrorCode         |= HAL_I2C_ERROR_TIMEOUT;
 8001ee4:	68fb      	ldr	r3, [r7, #12]
 8001ee6:	6c1b      	ldr	r3, [r3, #64]	@ 0x40
 8001ee8:	f043 0220 	orr.w	r2, r3, #32
 8001eec:	68fb      	ldr	r3, [r7, #12]
 8001eee:	641a      	str	r2, [r3, #64]	@ 0x40

          /* Process Unlocked */
          __HAL_UNLOCK(hi2c);
 8001ef0:	68fb      	ldr	r3, [r7, #12]
 8001ef2:	2200      	movs	r2, #0
 8001ef4:	f883 203c 	strb.w	r2, [r3, #60]	@ 0x3c

          return HAL_ERROR;
 8001ef8:	2301      	movs	r3, #1
 8001efa:	e023      	b.n	8001f44 <I2C_WaitOnFlagUntilTimeout+0xec>
  while (__HAL_I2C_GET_FLAG(hi2c, Flag) == Status)
 8001efc:	68bb      	ldr	r3, [r7, #8]
 8001efe:	0c1b      	lsrs	r3, r3, #16
 8001f00:	b2db      	uxtb	r3, r3
 8001f02:	2b01      	cmp	r3, #1
 8001f04:	d10d      	bne.n	8001f22 <I2C_WaitOnFlagUntilTimeout+0xca>
 8001f06:	68fb      	ldr	r3, [r7, #12]
 8001f08:	681b      	ldr	r3, [r3, #0]
 8001f0a:	695b      	ldr	r3, [r3, #20]
 8001f0c:	43da      	mvns	r2, r3
 8001f0e:	68bb      	ldr	r3, [r7, #8]
 8001f10:	4013      	ands	r3, r2
 8001f12:	b29b      	uxth	r3, r3
 8001f14:	2b00      	cmp	r3, #0
 8001f16:	bf0c      	ite	eq
 8001f18:	2301      	moveq	r3, #1
 8001f1a:	2300      	movne	r3, #0
 8001f1c:	b2db      	uxtb	r3, r3
 8001f1e:	461a      	mov	r2, r3
 8001f20:	e00c      	b.n	8001f3c <I2C_WaitOnFlagUntilTimeout+0xe4>
 8001f22:	68fb      	ldr	r3, [r7, #12]
 8001f24:	681b      	ldr	r3, [r3, #0]
 8001f26:	699b      	ldr	r3, [r3, #24]
 8001f28:	43da      	mvns	r2, r3
 8001f2a:	68bb      	ldr	r3, [r7, #8]
 8001f2c:	4013      	ands	r3, r2
 8001f2e:	b29b      	uxth	r3, r3
 8001f30:	2b00      	cmp	r3, #0
 8001f32:	bf0c      	ite	eq
 8001f34:	2301      	moveq	r3, #1
 8001f36:	2300      	movne	r3, #0
 8001f38:	b2db      	uxtb	r3, r3
 8001f3a:	461a      	mov	r2, r3
 8001f3c:	79fb      	ldrb	r3, [r7, #7]
 8001f3e:	429a      	cmp	r2, r3
 8001f40:	d093      	beq.n	8001e6a <I2C_WaitOnFlagUntilTimeout+0x12>
        }
      }
    }
  }
  return HAL_OK;
 8001f42:	2300      	movs	r3, #0
}
 8001f44:	4618      	mov	r0, r3
 8001f46:	3710      	adds	r7, #16
 8001f48:	46bd      	mov	sp, r7
 8001f4a:	bd80      	pop	{r7, pc}

08001f4c <I2C_WaitOnMasterAddressFlagUntilTimeout>:
  * @param  Timeout Timeout duration
  * @param  Tickstart Tick start value
  * @retval HAL status
  */
static HAL_StatusTypeDef I2C_WaitOnMasterAddressFlagUntilTimeout(I2C_HandleTypeDef *hi2c, uint32_t Flag, uint32_t Timeout, uint32_t Tickstart)
{
 8001f4c:	b580      	push	{r7, lr}
 8001f4e:	b084      	sub	sp, #16
 8001f50:	af00      	add	r7, sp, #0
 8001f52:	60f8      	str	r0, [r7, #12]
 8001f54:	60b9      	str	r1, [r7, #8]
 8001f56:	607a      	str	r2, [r7, #4]
 8001f58:	603b      	str	r3, [r7, #0]
  while (__HAL_I2C_GET_FLAG(hi2c, Flag) == RESET)
 8001f5a:	e071      	b.n	8002040 <I2C_WaitOnMasterAddressFlagUntilTimeout+0xf4>
  {
    if (__HAL_I2C_GET_FLAG(hi2c, I2C_FLAG_AF) == SET)
 8001f5c:	68fb      	ldr	r3, [r7, #12]
 8001f5e:	681b      	ldr	r3, [r3, #0]
 8001f60:	695b      	ldr	r3, [r3, #20]
 8001f62:	f403 6380 	and.w	r3, r3, #1024	@ 0x400
 8001f66:	f5b3 6f80 	cmp.w	r3, #1024	@ 0x400
 8001f6a:	d123      	bne.n	8001fb4 <I2C_WaitOnMasterAddressFlagUntilTimeout+0x68>
    {
      /* Generate Stop */
      SET_BIT(hi2c->Instance->CR1, I2C_CR1_STOP);
 8001f6c:	68fb      	ldr	r3, [r7, #12]
 8001f6e:	681b      	ldr	r3, [r3, #0]
 8001f70:	681a      	ldr	r2, [r3, #0]
 8001f72:	68fb      	ldr	r3, [r7, #12]
 8001f74:	681b      	ldr	r3, [r3, #0]
 8001f76:	f442 7200 	orr.w	r2, r2, #512	@ 0x200
 8001f7a:	601a      	str	r2, [r3, #0]

      /* Clear AF Flag */
      __HAL_I2C_CLEAR_FLAG(hi2c, I2C_FLAG_AF);
 8001f7c:	68fb      	ldr	r3, [r7, #12]
 8001f7e:	681b      	ldr	r3, [r3, #0]
 8001f80:	f46f 6280 	mvn.w	r2, #1024	@ 0x400
 8001f84:	615a      	str	r2, [r3, #20]

      hi2c->PreviousState       = I2C_STATE_NONE;
 8001f86:	68fb      	ldr	r3, [r7, #12]
 8001f88:	2200      	movs	r2, #0
 8001f8a:	631a      	str	r2, [r3, #48]	@ 0x30
      hi2c->State               = HAL_I2C_STATE_READY;
 8001f8c:	68fb      	ldr	r3, [r7, #12]
 8001f8e:	2220      	movs	r2, #32
 8001f90:	f883 203d 	strb.w	r2, [r3, #61]	@ 0x3d
      hi2c->Mode                = HAL_I2C_MODE_NONE;
 8001f94:	68fb      	ldr	r3, [r7, #12]
 8001f96:	2200      	movs	r2, #0
 8001f98:	f883 203e 	strb.w	r2, [r3, #62]	@ 0x3e
      hi2c->ErrorCode           |= HAL_I2C_ERROR_AF;
 8001f9c:	68fb      	ldr	r3, [r7, #12]
 8001f9e:	6c1b      	ldr	r3, [r3, #64]	@ 0x40
 8001fa0:	f043 0204 	orr.w	r2, r3, #4
 8001fa4:	68fb      	ldr	r3, [r7, #12]
 8001fa6:	641a      	str	r2, [r3, #64]	@ 0x40

      /* Process Unlocked */
      __HAL_UNLOCK(hi2c);
 8001fa8:	68fb      	ldr	r3, [r7, #12]
 8001faa:	2200      	movs	r2, #0
 8001fac:	f883 203c 	strb.w	r2, [r3, #60]	@ 0x3c

      return HAL_ERROR;
 8001fb0:	2301      	movs	r3, #1
 8001fb2:	e067      	b.n	8002084 <I2C_WaitOnMasterAddressFlagUntilTimeout+0x138>
    }

    /* Check for the Timeout */
    if (Timeout != HAL_MAX_DELAY)
 8001fb4:	687b      	ldr	r3, [r7, #4]
 8001fb6:	f1b3 3fff 	cmp.w	r3, #4294967295
 8001fba:	d041      	beq.n	8002040 <I2C_WaitOnMasterAddressFlagUntilTimeout+0xf4>
    {
      if (((HAL_GetTick() - Tickstart) > Timeout) || (Timeout == 0U))
 8001fbc:	f7fe fe90 	bl	8000ce0 <HAL_GetTick>
 8001fc0:	4602      	mov	r2, r0
 8001fc2:	683b      	ldr	r3, [r7, #0]
 8001fc4:	1ad3      	subs	r3, r2, r3
 8001fc6:	687a      	ldr	r2, [r7, #4]
 8001fc8:	429a      	cmp	r2, r3
 8001fca:	d302      	bcc.n	8001fd2 <I2C_WaitOnMasterAddressFlagUntilTimeout+0x86>
 8001fcc:	687b      	ldr	r3, [r7, #4]
 8001fce:	2b00      	cmp	r3, #0
 8001fd0:	d136      	bne.n	8002040 <I2C_WaitOnMasterAddressFlagUntilTimeout+0xf4>
      {
        if ((__HAL_I2C_GET_FLAG(hi2c, Flag) == RESET))
 8001fd2:	68bb      	ldr	r3, [r7, #8]
 8001fd4:	0c1b      	lsrs	r3, r3, #16
 8001fd6:	b2db      	uxtb	r3, r3
 8001fd8:	2b01      	cmp	r3, #1
 8001fda:	d10c      	bne.n	8001ff6 <I2C_WaitOnMasterAddressFlagUntilTimeout+0xaa>
 8001fdc:	68fb      	ldr	r3, [r7, #12]
 8001fde:	681b      	ldr	r3, [r3, #0]
 8001fe0:	695b      	ldr	r3, [r3, #20]
 8001fe2:	43da      	mvns	r2, r3
 8001fe4:	68bb      	ldr	r3, [r7, #8]
 8001fe6:	4013      	ands	r3, r2
 8001fe8:	b29b      	uxth	r3, r3
 8001fea:	2b00      	cmp	r3, #0
 8001fec:	bf14      	ite	ne
 8001fee:	2301      	movne	r3, #1
 8001ff0:	2300      	moveq	r3, #0
 8001ff2:	b2db      	uxtb	r3, r3
 8001ff4:	e00b      	b.n	800200e <I2C_WaitOnMasterAddressFlagUntilTimeout+0xc2>
 8001ff6:	68fb      	ldr	r3, [r7, #12]
 8001ff8:	681b      	ldr	r3, [r3, #0]
 8001ffa:	699b      	ldr	r3, [r3, #24]
 8001ffc:	43da      	mvns	r2, r3
 8001ffe:	68bb      	ldr	r3, [r7, #8]
 8002000:	4013      	ands	r3, r2
 8002002:	b29b      	uxth	r3, r3
 8002004:	2b00      	cmp	r3, #0
 8002006:	bf14      	ite	ne
 8002008:	2301      	movne	r3, #1
 800200a:	2300      	moveq	r3, #0
 800200c:	b2db      	uxtb	r3, r3
 800200e:	2b00      	cmp	r3, #0
 8002010:	d016      	beq.n	8002040 <I2C_WaitOnMasterAddressFlagUntilTimeout+0xf4>
        {
          hi2c->PreviousState       = I2C_STATE_NONE;
 8002012:	68fb      	ldr	r3, [r7, #12]
 8002014:	2200      	movs	r2, #0
 8002016:	631a      	str	r2, [r3, #48]	@ 0x30
          hi2c->State               = HAL_I2C_STATE_READY;
 8002018:	68fb      	ldr	r3, [r7, #12]
 800201a:	2220      	movs	r2, #32
 800201c:	f883 203d 	strb.w	r2, [r3, #61]	@ 0x3d
          hi2c->Mode                = HAL_I2C_MODE_NONE;
 8002020:	68fb      	ldr	r3, [r7, #12]
 8002022:	2200      	movs	r2, #0
 8002024:	f883 203e 	strb.w	r2, [r3, #62]	@ 0x3e
          hi2c->ErrorCode           |= HAL_I2C_ERROR_TIMEOUT;
 8002028:	68fb      	ldr	r3, [r7, #12]
 800202a:	6c1b      	ldr	r3, [r3, #64]	@ 0x40
 800202c:	f043 0220 	orr.w	r2, r3, #32
 8002030:	68fb      	ldr	r3, [r7, #12]
 8002032:	641a      	str	r2, [r3, #64]	@ 0x40

          /* Process Unlocked */
          __HAL_UNLOCK(hi2c);
 8002034:	68fb      	ldr	r3, [r7, #12]
 8002036:	2200      	movs	r2, #0
 8002038:	f883 203c 	strb.w	r2, [r3, #60]	@ 0x3c

          return HAL_ERROR;
 800203c:	2301      	movs	r3, #1
 800203e:	e021      	b.n	8002084 <I2C_WaitOnMasterAddressFlagUntilTimeout+0x138>
  while (__HAL_I2C_GET_FLAG(hi2c, Flag) == RESET)
 8002040:	68bb      	ldr	r3, [r7, #8]
 8002042:	0c1b      	lsrs	r3, r3, #16
 8002044:	b2db      	uxtb	r3, r3
 8002046:	2b01      	cmp	r3, #1
 8002048:	d10c      	bne.n	8002064 <I2C_WaitOnMasterAddressFlagUntilTimeout+0x118>
 800204a:	68fb      	ldr	r3, [r7, #12]
 800204c:	681b      	ldr	r3, [r3, #0]
 800204e:	695b      	ldr	r3, [r3, #20]
 8002050:	43da      	mvns	r2, r3
 8002052:	68bb      	ldr	r3, [r7, #8]
 8002054:	4013      	ands	r3, r2
 8002056:	b29b      	uxth	r3, r3
 8002058:	2b00      	cmp	r3, #0
 800205a:	bf14      	ite	ne
 800205c:	2301      	movne	r3, #1
 800205e:	2300      	moveq	r3, #0
 8002060:	b2db      	uxtb	r3, r3
 8002062:	e00b      	b.n	800207c <I2C_WaitOnMasterAddressFlagUntilTimeout+0x130>
 8002064:	68fb      	ldr	r3, [r7, #12]
 8002066:	681b      	ldr	r3, [r3, #0]
 8002068:	699b      	ldr	r3, [r3, #24]
 800206a:	43da      	mvns	r2, r3
 800206c:	68bb      	ldr	r3, [r7, #8]
 800206e:	4013      	ands	r3, r2
 8002070:	b29b      	uxth	r3, r3
 8002072:	2b00      	cmp	r3, #0
 8002074:	bf14      	ite	ne
 8002076:	2301      	movne	r3, #1
 8002078:	2300      	moveq	r3, #0
 800207a:	b2db      	uxtb	r3, r3
 800207c:	2b00      	cmp	r3, #0
 800207e:	f47f af6d 	bne.w	8001f5c <I2C_WaitOnMasterAddressFlagUntilTimeout+0x10>
        }
      }
    }
  }
  return HAL_OK;
 8002082:	2300      	movs	r3, #0
}
 8002084:	4618      	mov	r0, r3
 8002086:	3710      	adds	r7, #16
 8002088:	46bd      	mov	sp, r7
 800208a:	bd80      	pop	{r7, pc}

0800208c <I2C_WaitOnTXEFlagUntilTimeout>:
  * @param  Timeout Timeout duration
  * @param  Tickstart Tick start value
  * @retval HAL status
  */
static HAL_StatusTypeDef I2C_WaitOnTXEFlagUntilTimeout(I2C_HandleTypeDef *hi2c, uint32_t Timeout, uint32_t Tickstart)
{
 800208c:	b580      	push	{r7, lr}
 800208e:	b084      	sub	sp, #16
 8002090:	af00      	add	r7, sp, #0
 8002092:	60f8      	str	r0, [r7, #12]
 8002094:	60b9      	str	r1, [r7, #8]
 8002096:	607a      	str	r2, [r7, #4]
  while (__HAL_I2C_GET_FLAG(hi2c, I2C_FLAG_TXE) == RESET)
 8002098:	e034      	b.n	8002104 <I2C_WaitOnTXEFlagUntilTimeout+0x78>
  {
    /* Check if a NACK is detected */
    if (I2C_IsAcknowledgeFailed(hi2c) != HAL_OK)
 800209a:	68f8      	ldr	r0, [r7, #12]
 800209c:	f000 f8e3 	bl	8002266 <I2C_IsAcknowledgeFailed>
 80020a0:	4603      	mov	r3, r0
 80020a2:	2b00      	cmp	r3, #0
 80020a4:	d001      	beq.n	80020aa <I2C_WaitOnTXEFlagUntilTimeout+0x1e>
    {
      return HAL_ERROR;
 80020a6:	2301      	movs	r3, #1
 80020a8:	e034      	b.n	8002114 <I2C_WaitOnTXEFlagUntilTimeout+0x88>
    }

    /* Check for the Timeout */
    if (Timeout != HAL_MAX_DELAY)
 80020aa:	68bb      	ldr	r3, [r7, #8]
 80020ac:	f1b3 3fff 	cmp.w	r3, #4294967295
 80020b0:	d028      	beq.n	8002104 <I2C_WaitOnTXEFlagUntilTimeout+0x78>
    {
      if (((HAL_GetTick() - Tickstart) > Timeout) || (Timeout == 0U))
 80020b2:	f7fe fe15 	bl	8000ce0 <HAL_GetTick>
 80020b6:	4602      	mov	r2, r0
 80020b8:	687b      	ldr	r3, [r7, #4]
 80020ba:	1ad3      	subs	r3, r2, r3
 80020bc:	68ba      	ldr	r2, [r7, #8]
 80020be:	429a      	cmp	r2, r3
 80020c0:	d302      	bcc.n	80020c8 <I2C_WaitOnTXEFlagUntilTimeout+0x3c>
 80020c2:	68bb      	ldr	r3, [r7, #8]
 80020c4:	2b00      	cmp	r3, #0
 80020c6:	d11d      	bne.n	8002104 <I2C_WaitOnTXEFlagUntilTimeout+0x78>
      {
        if ((__HAL_I2C_GET_FLAG(hi2c, I2C_FLAG_TXE) == RESET))
 80020c8:	68fb      	ldr	r3, [r7, #12]
 80020ca:	681b      	ldr	r3, [r3, #0]
 80020cc:	695b      	ldr	r3, [r3, #20]
 80020ce:	f003 0380 	and.w	r3, r3, #128	@ 0x80
 80020d2:	2b80      	cmp	r3, #128	@ 0x80
 80020d4:	d016      	beq.n	8002104 <I2C_WaitOnTXEFlagUntilTimeout+0x78>
        {
          hi2c->PreviousState       = I2C_STATE_NONE;
 80020d6:	68fb      	ldr	r3, [r7, #12]
 80020d8:	2200      	movs	r2, #0
 80020da:	631a      	str	r2, [r3, #48]	@ 0x30
          hi2c->State               = HAL_I2C_STATE_READY;
 80020dc:	68fb      	ldr	r3, [r7, #12]
 80020de:	2220      	movs	r2, #32
 80020e0:	f883 203d 	strb.w	r2, [r3, #61]	@ 0x3d
          hi2c->Mode                = HAL_I2C_MODE_NONE;
 80020e4:	68fb      	ldr	r3, [r7, #12]
 80020e6:	2200      	movs	r2, #0
 80020e8:	f883 203e 	strb.w	r2, [r3, #62]	@ 0x3e
          hi2c->ErrorCode           |= HAL_I2C_ERROR_TIMEOUT;
 80020ec:	68fb      	ldr	r3, [r7, #12]
 80020ee:	6c1b      	ldr	r3, [r3, #64]	@ 0x40
 80020f0:	f043 0220 	orr.w	r2, r3, #32
 80020f4:	68fb      	ldr	r3, [r7, #12]
 80020f6:	641a      	str	r2, [r3, #64]	@ 0x40

          /* Process Unlocked */
          __HAL_UNLOCK(hi2c);
 80020f8:	68fb      	ldr	r3, [r7, #12]
 80020fa:	2200      	movs	r2, #0
 80020fc:	f883 203c 	strb.w	r2, [r3, #60]	@ 0x3c

          return HAL_ERROR;
 8002100:	2301      	movs	r3, #1
 8002102:	e007      	b.n	8002114 <I2C_WaitOnTXEFlagUntilTimeout+0x88>
  while (__HAL_I2C_GET_FLAG(hi2c, I2C_FLAG_TXE) == RESET)
 8002104:	68fb      	ldr	r3, [r7, #12]
 8002106:	681b      	ldr	r3, [r3, #0]
 8002108:	695b      	ldr	r3, [r3, #20]
 800210a:	f003 0380 	and.w	r3, r3, #128	@ 0x80
 800210e:	2b80      	cmp	r3, #128	@ 0x80
 8002110:	d1c3      	bne.n	800209a <I2C_WaitOnTXEFlagUntilTimeout+0xe>
        }
      }
    }
  }
  return HAL_OK;
 8002112:	2300      	movs	r3, #0
}
 8002114:	4618      	mov	r0, r3
 8002116:	3710      	adds	r7, #16
 8002118:	46bd      	mov	sp, r7
 800211a:	bd80      	pop	{r7, pc}

0800211c <I2C_WaitOnBTFFlagUntilTimeout>:
  * @param  Timeout Timeout duration
  * @param  Tickstart Tick start value
  * @retval HAL status
  */
static HAL_StatusTypeDef I2C_WaitOnBTFFlagUntilTimeout(I2C_HandleTypeDef *hi2c, uint32_t Timeout, uint32_t Tickstart)
{
 800211c:	b580      	push	{r7, lr}
 800211e:	b084      	sub	sp, #16
 8002120:	af00      	add	r7, sp, #0
 8002122:	60f8      	str	r0, [r7, #12]
 8002124:	60b9      	str	r1, [r7, #8]
 8002126:	607a      	str	r2, [r7, #4]
  while (__HAL_I2C_GET_FLAG(hi2c, I2C_FLAG_BTF) == RESET)
 8002128:	e034      	b.n	8002194 <I2C_WaitOnBTFFlagUntilTimeout+0x78>
  {
    /* Check if a NACK is detected */
    if (I2C_IsAcknowledgeFailed(hi2c) != HAL_OK)
 800212a:	68f8      	ldr	r0, [r7, #12]
 800212c:	f000 f89b 	bl	8002266 <I2C_IsAcknowledgeFailed>
 8002130:	4603      	mov	r3, r0
 8002132:	2b00      	cmp	r3, #0
 8002134:	d001      	beq.n	800213a <I2C_WaitOnBTFFlagUntilTimeout+0x1e>
    {
      return HAL_ERROR;
 8002136:	2301      	movs	r3, #1
 8002138:	e034      	b.n	80021a4 <I2C_WaitOnBTFFlagUntilTimeout+0x88>
    }

    /* Check for the Timeout */
    if (Timeout != HAL_MAX_DELAY)
 800213a:	68bb      	ldr	r3, [r7, #8]
 800213c:	f1b3 3fff 	cmp.w	r3, #4294967295
 8002140:	d028      	beq.n	8002194 <I2C_WaitOnBTFFlagUntilTimeout+0x78>
    {
      if (((HAL_GetTick() - Tickstart) > Timeout) || (Timeout == 0U))
 8002142:	f7fe fdcd 	bl	8000ce0 <HAL_GetTick>
 8002146:	4602      	mov	r2, r0
 8002148:	687b      	ldr	r3, [r7, #4]
 800214a:	1ad3      	subs	r3, r2, r3
 800214c:	68ba      	ldr	r2, [r7, #8]
 800214e:	429a      	cmp	r2, r3
 8002150:	d302      	bcc.n	8002158 <I2C_WaitOnBTFFlagUntilTimeout+0x3c>
 8002152:	68bb      	ldr	r3, [r7, #8]
 8002154:	2b00      	cmp	r3, #0
 8002156:	d11d      	bne.n	8002194 <I2C_WaitOnBTFFlagUntilTimeout+0x78>
      {
        if ((__HAL_I2C_GET_FLAG(hi2c, I2C_FLAG_BTF) == RESET))
 8002158:	68fb      	ldr	r3, [r7, #12]
 800215a:	681b      	ldr	r3, [r3, #0]
 800215c:	695b      	ldr	r3, [r3, #20]
 800215e:	f003 0304 	and.w	r3, r3, #4
 8002162:	2b04      	cmp	r3, #4
 8002164:	d016      	beq.n	8002194 <I2C_WaitOnBTFFlagUntilTimeout+0x78>
        {
          hi2c->PreviousState       = I2C_STATE_NONE;
 8002166:	68fb      	ldr	r3, [r7, #12]
 8002168:	2200      	movs	r2, #0
 800216a:	631a      	str	r2, [r3, #48]	@ 0x30
          hi2c->State               = HAL_I2C_STATE_READY;
 800216c:	68fb      	ldr	r3, [r7, #12]
 800216e:	2220      	movs	r2, #32
 8002170:	f883 203d 	strb.w	r2, [r3, #61]	@ 0x3d
          hi2c->Mode                = HAL_I2C_MODE_NONE;
 8002174:	68fb      	ldr	r3, [r7, #12]
 8002176:	2200      	movs	r2, #0
 8002178:	f883 203e 	strb.w	r2, [r3, #62]	@ 0x3e
          hi2c->ErrorCode           |= HAL_I2C_ERROR_TIMEOUT;
 800217c:	68fb      	ldr	r3, [r7, #12]
 800217e:	6c1b      	ldr	r3, [r3, #64]	@ 0x40
 8002180:	f043 0220 	orr.w	r2, r3, #32
 8002184:	68fb      	ldr	r3, [r7, #12]
 8002186:	641a      	str	r2, [r3, #64]	@ 0x40

          /* Process Unlocked */
          __HAL_UNLOCK(hi2c);
 8002188:	68fb      	ldr	r3, [r7, #12]
 800218a:	2200      	movs	r2, #0
 800218c:	f883 203c 	strb.w	r2, [r3, #60]	@ 0x3c

          return HAL_ERROR;
 8002190:	2301      	movs	r3, #1
 8002192:	e007      	b.n	80021a4 <I2C_WaitOnBTFFlagUntilTimeout+0x88>
  while (__HAL_I2C_GET_FLAG(hi2c, I2C_FLAG_BTF) == RESET)
 8002194:	68fb      	ldr	r3, [r7, #12]
 8002196:	681b      	ldr	r3, [r3, #0]
 8002198:	695b      	ldr	r3, [r3, #20]
 800219a:	f003 0304 	and.w	r3, r3, #4
 800219e:	2b04      	cmp	r3, #4
 80021a0:	d1c3      	bne.n	800212a <I2C_WaitOnBTFFlagUntilTimeout+0xe>
        }
      }
    }
  }
  return HAL_OK;
 80021a2:	2300      	movs	r3, #0
}
 80021a4:	4618      	mov	r0, r3
 80021a6:	3710      	adds	r7, #16
 80021a8:	46bd      	mov	sp, r7
 80021aa:	bd80      	pop	{r7, pc}

080021ac <I2C_WaitOnRXNEFlagUntilTimeout>:
  * @param  Timeout Timeout duration
  * @param  Tickstart Tick start value
  * @retval HAL status
  */
static HAL_StatusTypeDef I2C_WaitOnRXNEFlagUntilTimeout(I2C_HandleTypeDef *hi2c, uint32_t Timeout, uint32_t Tickstart)
{
 80021ac:	b580      	push	{r7, lr}
 80021ae:	b084      	sub	sp, #16
 80021b0:	af00      	add	r7, sp, #0
 80021b2:	60f8      	str	r0, [r7, #12]
 80021b4:	60b9      	str	r1, [r7, #8]
 80021b6:	607a      	str	r2, [r7, #4]

  while (__HAL_I2C_GET_FLAG(hi2c, I2C_FLAG_RXNE) == RESET)
 80021b8:	e049      	b.n	800224e <I2C_WaitOnRXNEFlagUntilTimeout+0xa2>
  {
    /* Check if a STOPF is detected */
    if (__HAL_I2C_GET_FLAG(hi2c, I2C_FLAG_STOPF) == SET)
 80021ba:	68fb      	ldr	r3, [r7, #12]
 80021bc:	681b      	ldr	r3, [r3, #0]
 80021be:	695b      	ldr	r3, [r3, #20]
 80021c0:	f003 0310 	and.w	r3, r3, #16
 80021c4:	2b10      	cmp	r3, #16
 80021c6:	d119      	bne.n	80021fc <I2C_WaitOnRXNEFlagUntilTimeout+0x50>
    {
      /* Clear STOP Flag */
      __HAL_I2C_CLEAR_FLAG(hi2c, I2C_FLAG_STOPF);
 80021c8:	68fb      	ldr	r3, [r7, #12]
 80021ca:	681b      	ldr	r3, [r3, #0]
 80021cc:	f06f 0210 	mvn.w	r2, #16
 80021d0:	615a      	str	r2, [r3, #20]

      hi2c->PreviousState       = I2C_STATE_NONE;
 80021d2:	68fb      	ldr	r3, [r7, #12]
 80021d4:	2200      	movs	r2, #0
 80021d6:	631a      	str	r2, [r3, #48]	@ 0x30
      hi2c->State               = HAL_I2C_STATE_READY;
 80021d8:	68fb      	ldr	r3, [r7, #12]
 80021da:	2220      	movs	r2, #32
 80021dc:	f883 203d 	strb.w	r2, [r3, #61]	@ 0x3d
      hi2c->Mode                = HAL_I2C_MODE_NONE;
 80021e0:	68fb      	ldr	r3, [r7, #12]
 80021e2:	2200      	movs	r2, #0
 80021e4:	f883 203e 	strb.w	r2, [r3, #62]	@ 0x3e
      hi2c->ErrorCode           |= HAL_I2C_ERROR_NONE;
 80021e8:	68fb      	ldr	r3, [r7, #12]
 80021ea:	6c1a      	ldr	r2, [r3, #64]	@ 0x40
 80021ec:	68fb      	ldr	r3, [r7, #12]
 80021ee:	641a      	str	r2, [r3, #64]	@ 0x40

      /* Process Unlocked */
      __HAL_UNLOCK(hi2c);
 80021f0:	68fb      	ldr	r3, [r7, #12]
 80021f2:	2200      	movs	r2, #0
 80021f4:	f883 203c 	strb.w	r2, [r3, #60]	@ 0x3c

      return HAL_ERROR;
 80021f8:	2301      	movs	r3, #1
 80021fa:	e030      	b.n	800225e <I2C_WaitOnRXNEFlagUntilTimeout+0xb2>
    }

    /* Check for the Timeout */
    if (((HAL_GetTick() - Tickstart) > Timeout) || (Timeout == 0U))
 80021fc:	f7fe fd70 	bl	8000ce0 <HAL_GetTick>
 8002200:	4602      	mov	r2, r0
 8002202:	687b      	ldr	r3, [r7, #4]
 8002204:	1ad3      	subs	r3, r2, r3
 8002206:	68ba      	ldr	r2, [r7, #8]
 8002208:	429a      	cmp	r2, r3
 800220a:	d302      	bcc.n	8002212 <I2C_WaitOnRXNEFlagUntilTimeout+0x66>
 800220c:	68bb      	ldr	r3, [r7, #8]
 800220e:	2b00      	cmp	r3, #0
 8002210:	d11d      	bne.n	800224e <I2C_WaitOnRXNEFlagUntilTimeout+0xa2>
    {
      if ((__HAL_I2C_GET_FLAG(hi2c, I2C_FLAG_RXNE) == RESET))
 8002212:	68fb      	ldr	r3, [r7, #12]
 8002214:	681b      	ldr	r3, [r3, #0]
 8002216:	695b      	ldr	r3, [r3, #20]
 8002218:	f003 0340 	and.w	r3, r3, #64	@ 0x40
 800221c:	2b40      	cmp	r3, #64	@ 0x40
 800221e:	d016      	beq.n	800224e <I2C_WaitOnRXNEFlagUntilTimeout+0xa2>
      {
        hi2c->PreviousState       = I2C_STATE_NONE;
 8002220:	68fb      	ldr	r3, [r7, #12]
 8002222:	2200      	movs	r2, #0
 8002224:	631a      	str	r2, [r3, #48]	@ 0x30
        hi2c->State               = HAL_I2C_STATE_READY;
 8002226:	68fb      	ldr	r3, [r7, #12]
 8002228:	2220      	movs	r2, #32
 800222a:	f883 203d 	strb.w	r2, [r3, #61]	@ 0x3d
        hi2c->Mode                = HAL_I2C_MODE_NONE;
 800222e:	68fb      	ldr	r3, [r7, #12]
 8002230:	2200      	movs	r2, #0
 8002232:	f883 203e 	strb.w	r2, [r3, #62]	@ 0x3e
        hi2c->ErrorCode           |= HAL_I2C_ERROR_TIMEOUT;
 8002236:	68fb      	ldr	r3, [r7, #12]
 8002238:	6c1b      	ldr	r3, [r3, #64]	@ 0x40
 800223a:	f043 0220 	orr.w	r2, r3, #32
 800223e:	68fb      	ldr	r3, [r7, #12]
 8002240:	641a      	str	r2, [r3, #64]	@ 0x40

        /* Process Unlocked */
        __HAL_UNLOCK(hi2c);
 8002242:	68fb      	ldr	r3, [r7, #12]
 8002244:	2200      	movs	r2, #0
 8002246:	f883 203c 	strb.w	r2, [r3, #60]	@ 0x3c

        return HAL_ERROR;
 800224a:	2301      	movs	r3, #1
 800224c:	e007      	b.n	800225e <I2C_WaitOnRXNEFlagUntilTimeout+0xb2>
  while (__HAL_I2C_GET_FLAG(hi2c, I2C_FLAG_RXNE) == RESET)
 800224e:	68fb      	ldr	r3, [r7, #12]
 8002250:	681b      	ldr	r3, [r3, #0]
 8002252:	695b      	ldr	r3, [r3, #20]
 8002254:	f003 0340 	and.w	r3, r3, #64	@ 0x40
 8002258:	2b40      	cmp	r3, #64	@ 0x40
 800225a:	d1ae      	bne.n	80021ba <I2C_WaitOnRXNEFlagUntilTimeout+0xe>
      }
    }
  }
  return HAL_OK;
 800225c:	2300      	movs	r3, #0
}
 800225e:	4618      	mov	r0, r3
 8002260:	3710      	adds	r7, #16
 8002262:	46bd      	mov	sp, r7
 8002264:	bd80      	pop	{r7, pc}

08002266 <I2C_IsAcknowledgeFailed>:
  * @param  hi2c Pointer to a I2C_HandleTypeDef structure that contains
  *                the configuration information for the specified I2C.
  * @retval HAL status
  */
static HAL_StatusTypeDef I2C_IsAcknowledgeFailed(I2C_HandleTypeDef *hi2c)
{
 8002266:	b480      	push	{r7}
 8002268:	b083      	sub	sp, #12
 800226a:	af00      	add	r7, sp, #0
 800226c:	6078      	str	r0, [r7, #4]
  if (__HAL_I2C_GET_FLAG(hi2c, I2C_FLAG_AF) == SET)
 800226e:	687b      	ldr	r3, [r7, #4]
 8002270:	681b      	ldr	r3, [r3, #0]
 8002272:	695b      	ldr	r3, [r3, #20]
 8002274:	f403 6380 	and.w	r3, r3, #1024	@ 0x400
 8002278:	f5b3 6f80 	cmp.w	r3, #1024	@ 0x400
 800227c:	d11b      	bne.n	80022b6 <I2C_IsAcknowledgeFailed+0x50>
  {
    /* Clear NACKF Flag */
    __HAL_I2C_CLEAR_FLAG(hi2c, I2C_FLAG_AF);
 800227e:	687b      	ldr	r3, [r7, #4]
 8002280:	681b      	ldr	r3, [r3, #0]
 8002282:	f46f 6280 	mvn.w	r2, #1024	@ 0x400
 8002286:	615a      	str	r2, [r3, #20]

    hi2c->PreviousState       = I2C_STATE_NONE;
 8002288:	687b      	ldr	r3, [r7, #4]
 800228a:	2200      	movs	r2, #0
 800228c:	631a      	str	r2, [r3, #48]	@ 0x30
    hi2c->State               = HAL_I2C_STATE_READY;
 800228e:	687b      	ldr	r3, [r7, #4]
 8002290:	2220      	movs	r2, #32
 8002292:	f883 203d 	strb.w	r2, [r3, #61]	@ 0x3d
    hi2c->Mode                = HAL_I2C_MODE_NONE;
 8002296:	687b      	ldr	r3, [r7, #4]
 8002298:	2200      	movs	r2, #0
 800229a:	f883 203e 	strb.w	r2, [r3, #62]	@ 0x3e
    hi2c->ErrorCode           |= HAL_I2C_ERROR_AF;
 800229e:	687b      	ldr	r3, [r7, #4]
 80022a0:	6c1b      	ldr	r3, [r3, #64]	@ 0x40
 80022a2:	f043 0204 	orr.w	r2, r3, #4
 80022a6:	687b      	ldr	r3, [r7, #4]
 80022a8:	641a      	str	r2, [r3, #64]	@ 0x40

    /* Process Unlocked */
    __HAL_UNLOCK(hi2c);
 80022aa:	687b      	ldr	r3, [r7, #4]
 80022ac:	2200      	movs	r2, #0
 80022ae:	f883 203c 	strb.w	r2, [r3, #60]	@ 0x3c

    return HAL_ERROR;
 80022b2:	2301      	movs	r3, #1
 80022b4:	e000      	b.n	80022b8 <I2C_IsAcknowledgeFailed+0x52>
  }
  return HAL_OK;
 80022b6:	2300      	movs	r3, #0
}
 80022b8:	4618      	mov	r0, r3
 80022ba:	370c      	adds	r7, #12
 80022bc:	46bd      	mov	sp, r7
 80022be:	f85d 7b04 	ldr.w	r7, [sp], #4
 80022c2:	4770      	bx	lr

080022c4 <HAL_RCC_OscConfig>:
  *         supported by this API. User should request a transition to HSE Off
  *         first and then HSE On or HSE Bypass.
  * @retval HAL status
  */
__weak HAL_StatusTypeDef HAL_RCC_OscConfig(RCC_OscInitTypeDef  *RCC_OscInitStruct)
{
 80022c4:	b580      	push	{r7, lr}
 80022c6:	b086      	sub	sp, #24
 80022c8:	af00      	add	r7, sp, #0
 80022ca:	6078      	str	r0, [r7, #4]
  uint32_t tickstart;
  uint32_t pll_config;
  /* Check Null pointer */
  if (RCC_OscInitStruct == NULL)
 80022cc:	687b      	ldr	r3, [r7, #4]
 80022ce:	2b00      	cmp	r3, #0
 80022d0:	d101      	bne.n	80022d6 <HAL_RCC_OscConfig+0x12>
  {
    return HAL_ERROR;
 80022d2:	2301      	movs	r3, #1
 80022d4:	e267      	b.n	80027a6 <HAL_RCC_OscConfig+0x4e2>
  }

  /* Check the parameters */
  assert_param(IS_RCC_OSCILLATORTYPE(RCC_OscInitStruct->OscillatorType));
  /*------------------------------- HSE Configuration ------------------------*/
  if (((RCC_OscInitStruct->OscillatorType) & RCC_OSCILLATORTYPE_HSE) == RCC_OSCILLATORTYPE_HSE)
 80022d6:	687b      	ldr	r3, [r7, #4]
 80022d8:	681b      	ldr	r3, [r3, #0]
 80022da:	f003 0301 	and.w	r3, r3, #1
 80022de:	2b00      	cmp	r3, #0
 80022e0:	d075      	beq.n	80023ce <HAL_RCC_OscConfig+0x10a>
  {
    /* Check the parameters */
    assert_param(IS_RCC_HSE(RCC_OscInitStruct->HSEState));
    /* When the HSE is used as system clock or clock source for PLL in these cases HSE will not disabled */
    if ((__HAL_RCC_GET_SYSCLK_SOURCE() == RCC_CFGR_SWS_HSE) || \
 80022e2:	4b88      	ldr	r3, [pc, #544]	@ (8002504 <HAL_RCC_OscConfig+0x240>)
 80022e4:	689b      	ldr	r3, [r3, #8]
 80022e6:	f003 030c 	and.w	r3, r3, #12
 80022ea:	2b04      	cmp	r3, #4
 80022ec:	d00c      	beq.n	8002308 <HAL_RCC_OscConfig+0x44>
        ((__HAL_RCC_GET_SYSCLK_SOURCE() == RCC_CFGR_SWS_PLL) && ((RCC->PLLCFGR & RCC_PLLCFGR_PLLSRC) == RCC_PLLCFGR_PLLSRC_HSE)))
 80022ee:	4b85      	ldr	r3, [pc, #532]	@ (8002504 <HAL_RCC_OscConfig+0x240>)
 80022f0:	689b      	ldr	r3, [r3, #8]
 80022f2:	f003 030c 	and.w	r3, r3, #12
    if ((__HAL_RCC_GET_SYSCLK_SOURCE() == RCC_CFGR_SWS_HSE) || \
 80022f6:	2b08      	cmp	r3, #8
 80022f8:	d112      	bne.n	8002320 <HAL_RCC_OscConfig+0x5c>
        ((__HAL_RCC_GET_SYSCLK_SOURCE() == RCC_CFGR_SWS_PLL) && ((RCC->PLLCFGR & RCC_PLLCFGR_PLLSRC) == RCC_PLLCFGR_PLLSRC_HSE)))
 80022fa:	4b82      	ldr	r3, [pc, #520]	@ (8002504 <HAL_RCC_OscConfig+0x240>)
 80022fc:	685b      	ldr	r3, [r3, #4]
 80022fe:	f403 0380 	and.w	r3, r3, #4194304	@ 0x400000
 8002302:	f5b3 0f80 	cmp.w	r3, #4194304	@ 0x400000
 8002306:	d10b      	bne.n	8002320 <HAL_RCC_OscConfig+0x5c>
    {
      if ((__HAL_RCC_GET_FLAG(RCC_FLAG_HSERDY) != RESET) && (RCC_OscInitStruct->HSEState == RCC_HSE_OFF))
 8002308:	4b7e      	ldr	r3, [pc, #504]	@ (8002504 <HAL_RCC_OscConfig+0x240>)
 800230a:	681b      	ldr	r3, [r3, #0]
 800230c:	f403 3300 	and.w	r3, r3, #131072	@ 0x20000
 8002310:	2b00      	cmp	r3, #0
 8002312:	d05b      	beq.n	80023cc <HAL_RCC_OscConfig+0x108>
 8002314:	687b      	ldr	r3, [r7, #4]
 8002316:	685b      	ldr	r3, [r3, #4]
 8002318:	2b00      	cmp	r3, #0
 800231a:	d157      	bne.n	80023cc <HAL_RCC_OscConfig+0x108>
      {
        return HAL_ERROR;
 800231c:	2301      	movs	r3, #1
 800231e:	e242      	b.n	80027a6 <HAL_RCC_OscConfig+0x4e2>
      }
    }
    else
    {
      /* Set the new HSE configuration ---------------------------------------*/
      __HAL_RCC_HSE_CONFIG(RCC_OscInitStruct->HSEState);
 8002320:	687b      	ldr	r3, [r7, #4]
 8002322:	685b      	ldr	r3, [r3, #4]
 8002324:	f5b3 3f80 	cmp.w	r3, #65536	@ 0x10000
 8002328:	d106      	bne.n	8002338 <HAL_RCC_OscConfig+0x74>
 800232a:	4b76      	ldr	r3, [pc, #472]	@ (8002504 <HAL_RCC_OscConfig+0x240>)
 800232c:	681b      	ldr	r3, [r3, #0]
 800232e:	4a75      	ldr	r2, [pc, #468]	@ (8002504 <HAL_RCC_OscConfig+0x240>)
 8002330:	f443 3380 	orr.w	r3, r3, #65536	@ 0x10000
 8002334:	6013      	str	r3, [r2, #0]
 8002336:	e01d      	b.n	8002374 <HAL_RCC_OscConfig+0xb0>
 8002338:	687b      	ldr	r3, [r7, #4]
 800233a:	685b      	ldr	r3, [r3, #4]
 800233c:	f5b3 2fa0 	cmp.w	r3, #327680	@ 0x50000
 8002340:	d10c      	bne.n	800235c <HAL_RCC_OscConfig+0x98>
 8002342:	4b70      	ldr	r3, [pc, #448]	@ (8002504 <HAL_RCC_OscConfig+0x240>)
 8002344:	681b      	ldr	r3, [r3, #0]
 8002346:	4a6f      	ldr	r2, [pc, #444]	@ (8002504 <HAL_RCC_OscConfig+0x240>)
 8002348:	f443 2380 	orr.w	r3, r3, #262144	@ 0x40000
 800234c:	6013      	str	r3, [r2, #0]
 800234e:	4b6d      	ldr	r3, [pc, #436]	@ (8002504 <HAL_RCC_OscConfig+0x240>)
 8002350:	681b      	ldr	r3, [r3, #0]
 8002352:	4a6c      	ldr	r2, [pc, #432]	@ (8002504 <HAL_RCC_OscConfig+0x240>)
 8002354:	f443 3380 	orr.w	r3, r3, #65536	@ 0x10000
 8002358:	6013      	str	r3, [r2, #0]
 800235a:	e00b      	b.n	8002374 <HAL_RCC_OscConfig+0xb0>
 800235c:	4b69      	ldr	r3, [pc, #420]	@ (8002504 <HAL_RCC_OscConfig+0x240>)
 800235e:	681b      	ldr	r3, [r3, #0]
 8002360:	4a68      	ldr	r2, [pc, #416]	@ (8002504 <HAL_RCC_OscConfig+0x240>)
 8002362:	f423 3380 	bic.w	r3, r3, #65536	@ 0x10000
 8002366:	6013      	str	r3, [r2, #0]
 8002368:	4b66      	ldr	r3, [pc, #408]	@ (8002504 <HAL_RCC_OscConfig+0x240>)
 800236a:	681b      	ldr	r3, [r3, #0]
 800236c:	4a65      	ldr	r2, [pc, #404]	@ (8002504 <HAL_RCC_OscConfig+0x240>)
 800236e:	f423 2380 	bic.w	r3, r3, #262144	@ 0x40000
 8002372:	6013      	str	r3, [r2, #0]

      /* Check the HSE State */
      if ((RCC_OscInitStruct->HSEState) != RCC_HSE_OFF)
 8002374:	687b      	ldr	r3, [r7, #4]
 8002376:	685b      	ldr	r3, [r3, #4]
 8002378:	2b00      	cmp	r3, #0
 800237a:	d013      	beq.n	80023a4 <HAL_RCC_OscConfig+0xe0>
      {
        /* Get Start Tick */
        tickstart = HAL_GetTick();
 800237c:	f7fe fcb0 	bl	8000ce0 <HAL_GetTick>
 8002380:	6138      	str	r0, [r7, #16]

        /* Wait till HSE is ready */
        while (__HAL_RCC_GET_FLAG(RCC_FLAG_HSERDY) == RESET)
 8002382:	e008      	b.n	8002396 <HAL_RCC_OscConfig+0xd2>
        {
          if ((HAL_GetTick() - tickstart) > HSE_TIMEOUT_VALUE)
 8002384:	f7fe fcac 	bl	8000ce0 <HAL_GetTick>
 8002388:	4602      	mov	r2, r0
 800238a:	693b      	ldr	r3, [r7, #16]
 800238c:	1ad3      	subs	r3, r2, r3
 800238e:	2b64      	cmp	r3, #100	@ 0x64
 8002390:	d901      	bls.n	8002396 <HAL_RCC_OscConfig+0xd2>
          {
            return HAL_TIMEOUT;
 8002392:	2303      	movs	r3, #3
 8002394:	e207      	b.n	80027a6 <HAL_RCC_OscConfig+0x4e2>
        while (__HAL_RCC_GET_FLAG(RCC_FLAG_HSERDY) == RESET)
 8002396:	4b5b      	ldr	r3, [pc, #364]	@ (8002504 <HAL_RCC_OscConfig+0x240>)
 8002398:	681b      	ldr	r3, [r3, #0]
 800239a:	f403 3300 	and.w	r3, r3, #131072	@ 0x20000
 800239e:	2b00      	cmp	r3, #0
 80023a0:	d0f0      	beq.n	8002384 <HAL_RCC_OscConfig+0xc0>
 80023a2:	e014      	b.n	80023ce <HAL_RCC_OscConfig+0x10a>
        }
      }
      else
      {
        /* Get Start Tick */
        tickstart = HAL_GetTick();
 80023a4:	f7fe fc9c 	bl	8000ce0 <HAL_GetTick>
 80023a8:	6138      	str	r0, [r7, #16]

        /* Wait till HSE is bypassed or disabled */
        while (__HAL_RCC_GET_FLAG(RCC_FLAG_HSERDY) != RESET)
 80023aa:	e008      	b.n	80023be <HAL_RCC_OscConfig+0xfa>
        {
          if ((HAL_GetTick() - tickstart) > HSE_TIMEOUT_VALUE)
 80023ac:	f7fe fc98 	bl	8000ce0 <HAL_GetTick>
 80023b0:	4602      	mov	r2, r0
 80023b2:	693b      	ldr	r3, [r7, #16]
 80023b4:	1ad3      	subs	r3, r2, r3
 80023b6:	2b64      	cmp	r3, #100	@ 0x64
 80023b8:	d901      	bls.n	80023be <HAL_RCC_OscConfig+0xfa>
          {
            return HAL_TIMEOUT;
 80023ba:	2303      	movs	r3, #3
 80023bc:	e1f3      	b.n	80027a6 <HAL_RCC_OscConfig+0x4e2>
        while (__HAL_RCC_GET_FLAG(RCC_FLAG_HSERDY) != RESET)
 80023be:	4b51      	ldr	r3, [pc, #324]	@ (8002504 <HAL_RCC_OscConfig+0x240>)
 80023c0:	681b      	ldr	r3, [r3, #0]
 80023c2:	f403 3300 	and.w	r3, r3, #131072	@ 0x20000
 80023c6:	2b00      	cmp	r3, #0
 80023c8:	d1f0      	bne.n	80023ac <HAL_RCC_OscConfig+0xe8>
 80023ca:	e000      	b.n	80023ce <HAL_RCC_OscConfig+0x10a>
      if ((__HAL_RCC_GET_FLAG(RCC_FLAG_HSERDY) != RESET) && (RCC_OscInitStruct->HSEState == RCC_HSE_OFF))
 80023cc:	bf00      	nop
        }
      }
    }
  }
  /*----------------------------- HSI Configuration --------------------------*/
  if (((RCC_OscInitStruct->OscillatorType) & RCC_OSCILLATORTYPE_HSI) == RCC_OSCILLATORTYPE_HSI)
 80023ce:	687b      	ldr	r3, [r7, #4]
 80023d0:	681b      	ldr	r3, [r3, #0]
 80023d2:	f003 0302 	and.w	r3, r3, #2
 80023d6:	2b00      	cmp	r3, #0
 80023d8:	d063      	beq.n	80024a2 <HAL_RCC_OscConfig+0x1de>
    /* Check the parameters */
    assert_param(IS_RCC_HSI(RCC_OscInitStruct->HSIState));
    assert_param(IS_RCC_CALIBRATION_VALUE(RCC_OscInitStruct->HSICalibrationValue));

    /* Check if HSI is used as system clock or as PLL source when PLL is selected as system clock */
    if ((__HAL_RCC_GET_SYSCLK_SOURCE() == RCC_CFGR_SWS_HSI) || \
 80023da:	4b4a      	ldr	r3, [pc, #296]	@ (8002504 <HAL_RCC_OscConfig+0x240>)
 80023dc:	689b      	ldr	r3, [r3, #8]
 80023de:	f003 030c 	and.w	r3, r3, #12
 80023e2:	2b00      	cmp	r3, #0
 80023e4:	d00b      	beq.n	80023fe <HAL_RCC_OscConfig+0x13a>
        ((__HAL_RCC_GET_SYSCLK_SOURCE() == RCC_CFGR_SWS_PLL) && ((RCC->PLLCFGR & RCC_PLLCFGR_PLLSRC) == RCC_PLLCFGR_PLLSRC_HSI)))
 80023e6:	4b47      	ldr	r3, [pc, #284]	@ (8002504 <HAL_RCC_OscConfig+0x240>)
 80023e8:	689b      	ldr	r3, [r3, #8]
 80023ea:	f003 030c 	and.w	r3, r3, #12
    if ((__HAL_RCC_GET_SYSCLK_SOURCE() == RCC_CFGR_SWS_HSI) || \
 80023ee:	2b08      	cmp	r3, #8
 80023f0:	d11c      	bne.n	800242c <HAL_RCC_OscConfig+0x168>
        ((__HAL_RCC_GET_SYSCLK_SOURCE() == RCC_CFGR_SWS_PLL) && ((RCC->PLLCFGR & RCC_PLLCFGR_PLLSRC) == RCC_PLLCFGR_PLLSRC_HSI)))
 80023f2:	4b44      	ldr	r3, [pc, #272]	@ (8002504 <HAL_RCC_OscConfig+0x240>)
 80023f4:	685b      	ldr	r3, [r3, #4]
 80023f6:	f403 0380 	and.w	r3, r3, #4194304	@ 0x400000
 80023fa:	2b00      	cmp	r3, #0
 80023fc:	d116      	bne.n	800242c <HAL_RCC_OscConfig+0x168>
    {
      /* When HSI is used as system clock it will not disabled */
      if ((__HAL_RCC_GET_FLAG(RCC_FLAG_HSIRDY) != RESET) && (RCC_OscInitStruct->HSIState != RCC_HSI_ON))
 80023fe:	4b41      	ldr	r3, [pc, #260]	@ (8002504 <HAL_RCC_OscConfig+0x240>)
 8002400:	681b      	ldr	r3, [r3, #0]
 8002402:	f003 0302 	and.w	r3, r3, #2
 8002406:	2b00      	cmp	r3, #0
 8002408:	d005      	beq.n	8002416 <HAL_RCC_OscConfig+0x152>
 800240a:	687b      	ldr	r3, [r7, #4]
 800240c:	68db      	ldr	r3, [r3, #12]
 800240e:	2b01      	cmp	r3, #1
 8002410:	d001      	beq.n	8002416 <HAL_RCC_OscConfig+0x152>
      {
        return HAL_ERROR;
 8002412:	2301      	movs	r3, #1
 8002414:	e1c7      	b.n	80027a6 <HAL_RCC_OscConfig+0x4e2>
      }
      /* Otherwise, just the calibration is allowed */
      else
      {
        /* Adjusts the Internal High Speed oscillator (HSI) calibration value.*/
        __HAL_RCC_HSI_CALIBRATIONVALUE_ADJUST(RCC_OscInitStruct->HSICalibrationValue);
 8002416:	4b3b      	ldr	r3, [pc, #236]	@ (8002504 <HAL_RCC_OscConfig+0x240>)
 8002418:	681b      	ldr	r3, [r3, #0]
 800241a:	f023 02f8 	bic.w	r2, r3, #248	@ 0xf8
 800241e:	687b      	ldr	r3, [r7, #4]
 8002420:	691b      	ldr	r3, [r3, #16]
 8002422:	00db      	lsls	r3, r3, #3
 8002424:	4937      	ldr	r1, [pc, #220]	@ (8002504 <HAL_RCC_OscConfig+0x240>)
 8002426:	4313      	orrs	r3, r2
 8002428:	600b      	str	r3, [r1, #0]
      if ((__HAL_RCC_GET_FLAG(RCC_FLAG_HSIRDY) != RESET) && (RCC_OscInitStruct->HSIState != RCC_HSI_ON))
 800242a:	e03a      	b.n	80024a2 <HAL_RCC_OscConfig+0x1de>
      }
    }
    else
    {
      /* Check the HSI State */
      if ((RCC_OscInitStruct->HSIState) != RCC_HSI_OFF)
 800242c:	687b      	ldr	r3, [r7, #4]
 800242e:	68db      	ldr	r3, [r3, #12]
 8002430:	2b00      	cmp	r3, #0
 8002432:	d020      	beq.n	8002476 <HAL_RCC_OscConfig+0x1b2>
      {
        /* Enable the Internal High Speed oscillator (HSI). */
        __HAL_RCC_HSI_ENABLE();
 8002434:	4b34      	ldr	r3, [pc, #208]	@ (8002508 <HAL_RCC_OscConfig+0x244>)
 8002436:	2201      	movs	r2, #1
 8002438:	601a      	str	r2, [r3, #0]

        /* Get Start Tick*/
        tickstart = HAL_GetTick();
 800243a:	f7fe fc51 	bl	8000ce0 <HAL_GetTick>
 800243e:	6138      	str	r0, [r7, #16]

        /* Wait till HSI is ready */
        while (__HAL_RCC_GET_FLAG(RCC_FLAG_HSIRDY) == RESET)
 8002440:	e008      	b.n	8002454 <HAL_RCC_OscConfig+0x190>
        {
          if ((HAL_GetTick() - tickstart) > HSI_TIMEOUT_VALUE)
 8002442:	f7fe fc4d 	bl	8000ce0 <HAL_GetTick>
 8002446:	4602      	mov	r2, r0
 8002448:	693b      	ldr	r3, [r7, #16]
 800244a:	1ad3      	subs	r3, r2, r3
 800244c:	2b02      	cmp	r3, #2
 800244e:	d901      	bls.n	8002454 <HAL_RCC_OscConfig+0x190>
          {
            return HAL_TIMEOUT;
 8002450:	2303      	movs	r3, #3
 8002452:	e1a8      	b.n	80027a6 <HAL_RCC_OscConfig+0x4e2>
        while (__HAL_RCC_GET_FLAG(RCC_FLAG_HSIRDY) == RESET)
 8002454:	4b2b      	ldr	r3, [pc, #172]	@ (8002504 <HAL_RCC_OscConfig+0x240>)
 8002456:	681b      	ldr	r3, [r3, #0]
 8002458:	f003 0302 	and.w	r3, r3, #2
 800245c:	2b00      	cmp	r3, #0
 800245e:	d0f0      	beq.n	8002442 <HAL_RCC_OscConfig+0x17e>
          }
        }

        /* Adjusts the Internal High Speed oscillator (HSI) calibration value. */
        __HAL_RCC_HSI_CALIBRATIONVALUE_ADJUST(RCC_OscInitStruct->HSICalibrationValue);
 8002460:	4b28      	ldr	r3, [pc, #160]	@ (8002504 <HAL_RCC_OscConfig+0x240>)
 8002462:	681b      	ldr	r3, [r3, #0]
 8002464:	f023 02f8 	bic.w	r2, r3, #248	@ 0xf8
 8002468:	687b      	ldr	r3, [r7, #4]
 800246a:	691b      	ldr	r3, [r3, #16]
 800246c:	00db      	lsls	r3, r3, #3
 800246e:	4925      	ldr	r1, [pc, #148]	@ (8002504 <HAL_RCC_OscConfig+0x240>)
 8002470:	4313      	orrs	r3, r2
 8002472:	600b      	str	r3, [r1, #0]
 8002474:	e015      	b.n	80024a2 <HAL_RCC_OscConfig+0x1de>
      }
      else
      {
        /* Disable the Internal High Speed oscillator (HSI). */
        __HAL_RCC_HSI_DISABLE();
 8002476:	4b24      	ldr	r3, [pc, #144]	@ (8002508 <HAL_RCC_OscConfig+0x244>)
 8002478:	2200      	movs	r2, #0
 800247a:	601a      	str	r2, [r3, #0]

        /* Get Start Tick*/
        tickstart = HAL_GetTick();
 800247c:	f7fe fc30 	bl	8000ce0 <HAL_GetTick>
 8002480:	6138      	str	r0, [r7, #16]

        /* Wait till HSI is ready */
        while (__HAL_RCC_GET_FLAG(RCC_FLAG_HSIRDY) != RESET)
 8002482:	e008      	b.n	8002496 <HAL_RCC_OscConfig+0x1d2>
        {
          if ((HAL_GetTick() - tickstart) > HSI_TIMEOUT_VALUE)
 8002484:	f7fe fc2c 	bl	8000ce0 <HAL_GetTick>
 8002488:	4602      	mov	r2, r0
 800248a:	693b      	ldr	r3, [r7, #16]
 800248c:	1ad3      	subs	r3, r2, r3
 800248e:	2b02      	cmp	r3, #2
 8002490:	d901      	bls.n	8002496 <HAL_RCC_OscConfig+0x1d2>
          {
            return HAL_TIMEOUT;
 8002492:	2303      	movs	r3, #3
 8002494:	e187      	b.n	80027a6 <HAL_RCC_OscConfig+0x4e2>
        while (__HAL_RCC_GET_FLAG(RCC_FLAG_HSIRDY) != RESET)
 8002496:	4b1b      	ldr	r3, [pc, #108]	@ (8002504 <HAL_RCC_OscConfig+0x240>)
 8002498:	681b      	ldr	r3, [r3, #0]
 800249a:	f003 0302 	and.w	r3, r3, #2
 800249e:	2b00      	cmp	r3, #0
 80024a0:	d1f0      	bne.n	8002484 <HAL_RCC_OscConfig+0x1c0>
        }
      }
    }
  }
  /*------------------------------ LSI Configuration -------------------------*/
  if (((RCC_OscInitStruct->OscillatorType) & RCC_OSCILLATORTYPE_LSI) == RCC_OSCILLATORTYPE_LSI)
 80024a2:	687b      	ldr	r3, [r7, #4]
 80024a4:	681b      	ldr	r3, [r3, #0]
 80024a6:	f003 0308 	and.w	r3, r3, #8
 80024aa:	2b00      	cmp	r3, #0
 80024ac:	d036      	beq.n	800251c <HAL_RCC_OscConfig+0x258>
  {
    /* Check the parameters */
    assert_param(IS_RCC_LSI(RCC_OscInitStruct->LSIState));

    /* Check the LSI State */
    if ((RCC_OscInitStruct->LSIState) != RCC_LSI_OFF)
 80024ae:	687b      	ldr	r3, [r7, #4]
 80024b0:	695b      	ldr	r3, [r3, #20]
 80024b2:	2b00      	cmp	r3, #0
 80024b4:	d016      	beq.n	80024e4 <HAL_RCC_OscConfig+0x220>
    {
      /* Enable the Internal Low Speed oscillator (LSI). */
      __HAL_RCC_LSI_ENABLE();
 80024b6:	4b15      	ldr	r3, [pc, #84]	@ (800250c <HAL_RCC_OscConfig+0x248>)
 80024b8:	2201      	movs	r2, #1
 80024ba:	601a      	str	r2, [r3, #0]

      /* Get Start Tick*/
      tickstart = HAL_GetTick();
 80024bc:	f7fe fc10 	bl	8000ce0 <HAL_GetTick>
 80024c0:	6138      	str	r0, [r7, #16]

      /* Wait till LSI is ready */
      while (__HAL_RCC_GET_FLAG(RCC_FLAG_LSIRDY) == RESET)
 80024c2:	e008      	b.n	80024d6 <HAL_RCC_OscConfig+0x212>
      {
        if ((HAL_GetTick() - tickstart) > LSI_TIMEOUT_VALUE)
 80024c4:	f7fe fc0c 	bl	8000ce0 <HAL_GetTick>
 80024c8:	4602      	mov	r2, r0
 80024ca:	693b      	ldr	r3, [r7, #16]
 80024cc:	1ad3      	subs	r3, r2, r3
 80024ce:	2b02      	cmp	r3, #2
 80024d0:	d901      	bls.n	80024d6 <HAL_RCC_OscConfig+0x212>
        {
          return HAL_TIMEOUT;
 80024d2:	2303      	movs	r3, #3
 80024d4:	e167      	b.n	80027a6 <HAL_RCC_OscConfig+0x4e2>
      while (__HAL_RCC_GET_FLAG(RCC_FLAG_LSIRDY) == RESET)
 80024d6:	4b0b      	ldr	r3, [pc, #44]	@ (8002504 <HAL_RCC_OscConfig+0x240>)
 80024d8:	6f5b      	ldr	r3, [r3, #116]	@ 0x74
 80024da:	f003 0302 	and.w	r3, r3, #2
 80024de:	2b00      	cmp	r3, #0
 80024e0:	d0f0      	beq.n	80024c4 <HAL_RCC_OscConfig+0x200>
 80024e2:	e01b      	b.n	800251c <HAL_RCC_OscConfig+0x258>
      }
    }
    else
    {
      /* Disable the Internal Low Speed oscillator (LSI). */
      __HAL_RCC_LSI_DISABLE();
 80024e4:	4b09      	ldr	r3, [pc, #36]	@ (800250c <HAL_RCC_OscConfig+0x248>)
 80024e6:	2200      	movs	r2, #0
 80024e8:	601a      	str	r2, [r3, #0]

      /* Get Start Tick */
      tickstart = HAL_GetTick();
 80024ea:	f7fe fbf9 	bl	8000ce0 <HAL_GetTick>
 80024ee:	6138      	str	r0, [r7, #16]

      /* Wait till LSI is ready */
      while (__HAL_RCC_GET_FLAG(RCC_FLAG_LSIRDY) != RESET)
 80024f0:	e00e      	b.n	8002510 <HAL_RCC_OscConfig+0x24c>
      {
        if ((HAL_GetTick() - tickstart) > LSI_TIMEOUT_VALUE)
 80024f2:	f7fe fbf5 	bl	8000ce0 <HAL_GetTick>
 80024f6:	4602      	mov	r2, r0
 80024f8:	693b      	ldr	r3, [r7, #16]
 80024fa:	1ad3      	subs	r3, r2, r3
 80024fc:	2b02      	cmp	r3, #2
 80024fe:	d907      	bls.n	8002510 <HAL_RCC_OscConfig+0x24c>
        {
          return HAL_TIMEOUT;
 8002500:	2303      	movs	r3, #3
 8002502:	e150      	b.n	80027a6 <HAL_RCC_OscConfig+0x4e2>
 8002504:	40023800 	.word	0x40023800
 8002508:	42470000 	.word	0x42470000
 800250c:	42470e80 	.word	0x42470e80
      while (__HAL_RCC_GET_FLAG(RCC_FLAG_LSIRDY) != RESET)
 8002510:	4b88      	ldr	r3, [pc, #544]	@ (8002734 <HAL_RCC_OscConfig+0x470>)
 8002512:	6f5b      	ldr	r3, [r3, #116]	@ 0x74
 8002514:	f003 0302 	and.w	r3, r3, #2
 8002518:	2b00      	cmp	r3, #0
 800251a:	d1ea      	bne.n	80024f2 <HAL_RCC_OscConfig+0x22e>
        }
      }
    }
  }
  /*------------------------------ LSE Configuration -------------------------*/
  if (((RCC_OscInitStruct->OscillatorType) & RCC_OSCILLATORTYPE_LSE) == RCC_OSCILLATORTYPE_LSE)
 800251c:	687b      	ldr	r3, [r7, #4]
 800251e:	681b      	ldr	r3, [r3, #0]
 8002520:	f003 0304 	and.w	r3, r3, #4
 8002524:	2b00      	cmp	r3, #0
 8002526:	f000 8097 	beq.w	8002658 <HAL_RCC_OscConfig+0x394>
  {
    FlagStatus       pwrclkchanged = RESET;
 800252a:	2300      	movs	r3, #0
 800252c:	75fb      	strb	r3, [r7, #23]
    /* Check the parameters */
    assert_param(IS_RCC_LSE(RCC_OscInitStruct->LSEState));

    /* Update LSE configuration in Backup Domain control register    */
    /* Requires to enable write access to Backup Domain of necessary */
    if (__HAL_RCC_PWR_IS_CLK_DISABLED())
 800252e:	4b81      	ldr	r3, [pc, #516]	@ (8002734 <HAL_RCC_OscConfig+0x470>)
 8002530:	6c1b      	ldr	r3, [r3, #64]	@ 0x40
 8002532:	f003 5380 	and.w	r3, r3, #268435456	@ 0x10000000
 8002536:	2b00      	cmp	r3, #0
 8002538:	d10f      	bne.n	800255a <HAL_RCC_OscConfig+0x296>
    {
      __HAL_RCC_PWR_CLK_ENABLE();
 800253a:	2300      	movs	r3, #0
 800253c:	60bb      	str	r3, [r7, #8]
 800253e:	4b7d      	ldr	r3, [pc, #500]	@ (8002734 <HAL_RCC_OscConfig+0x470>)
 8002540:	6c1b      	ldr	r3, [r3, #64]	@ 0x40
 8002542:	4a7c      	ldr	r2, [pc, #496]	@ (8002734 <HAL_RCC_OscConfig+0x470>)
 8002544:	f043 5380 	orr.w	r3, r3, #268435456	@ 0x10000000
 8002548:	6413      	str	r3, [r2, #64]	@ 0x40
 800254a:	4b7a      	ldr	r3, [pc, #488]	@ (8002734 <HAL_RCC_OscConfig+0x470>)
 800254c:	6c1b      	ldr	r3, [r3, #64]	@ 0x40
 800254e:	f003 5380 	and.w	r3, r3, #268435456	@ 0x10000000
 8002552:	60bb      	str	r3, [r7, #8]
 8002554:	68bb      	ldr	r3, [r7, #8]
      pwrclkchanged = SET;
 8002556:	2301      	movs	r3, #1
 8002558:	75fb      	strb	r3, [r7, #23]
    }

    if (HAL_IS_BIT_CLR(PWR->CR, PWR_CR_DBP))
 800255a:	4b77      	ldr	r3, [pc, #476]	@ (8002738 <HAL_RCC_OscConfig+0x474>)
 800255c:	681b      	ldr	r3, [r3, #0]
 800255e:	f403 7380 	and.w	r3, r3, #256	@ 0x100
 8002562:	2b00      	cmp	r3, #0
 8002564:	d118      	bne.n	8002598 <HAL_RCC_OscConfig+0x2d4>
    {
      /* Enable write access to Backup domain */
      SET_BIT(PWR->CR, PWR_CR_DBP);
 8002566:	4b74      	ldr	r3, [pc, #464]	@ (8002738 <HAL_RCC_OscConfig+0x474>)
 8002568:	681b      	ldr	r3, [r3, #0]
 800256a:	4a73      	ldr	r2, [pc, #460]	@ (8002738 <HAL_RCC_OscConfig+0x474>)
 800256c:	f443 7380 	orr.w	r3, r3, #256	@ 0x100
 8002570:	6013      	str	r3, [r2, #0]

      /* Wait for Backup domain Write protection disable */
      tickstart = HAL_GetTick();
 8002572:	f7fe fbb5 	bl	8000ce0 <HAL_GetTick>
 8002576:	6138      	str	r0, [r7, #16]

      while (HAL_IS_BIT_CLR(PWR->CR, PWR_CR_DBP))
 8002578:	e008      	b.n	800258c <HAL_RCC_OscConfig+0x2c8>
      {
        if ((HAL_GetTick() - tickstart) > RCC_DBP_TIMEOUT_VALUE)
 800257a:	f7fe fbb1 	bl	8000ce0 <HAL_GetTick>
 800257e:	4602      	mov	r2, r0
 8002580:	693b      	ldr	r3, [r7, #16]
 8002582:	1ad3      	subs	r3, r2, r3
 8002584:	2b02      	cmp	r3, #2
 8002586:	d901      	bls.n	800258c <HAL_RCC_OscConfig+0x2c8>
        {
          return HAL_TIMEOUT;
 8002588:	2303      	movs	r3, #3
 800258a:	e10c      	b.n	80027a6 <HAL_RCC_OscConfig+0x4e2>
      while (HAL_IS_BIT_CLR(PWR->CR, PWR_CR_DBP))
 800258c:	4b6a      	ldr	r3, [pc, #424]	@ (8002738 <HAL_RCC_OscConfig+0x474>)
 800258e:	681b      	ldr	r3, [r3, #0]
 8002590:	f403 7380 	and.w	r3, r3, #256	@ 0x100
 8002594:	2b00      	cmp	r3, #0
 8002596:	d0f0      	beq.n	800257a <HAL_RCC_OscConfig+0x2b6>
        }
      }
    }

    /* Set the new LSE configuration -----------------------------------------*/
    __HAL_RCC_LSE_CONFIG(RCC_OscInitStruct->LSEState);
 8002598:	687b      	ldr	r3, [r7, #4]
 800259a:	689b      	ldr	r3, [r3, #8]
 800259c:	2b01      	cmp	r3, #1
 800259e:	d106      	bne.n	80025ae <HAL_RCC_OscConfig+0x2ea>
 80025a0:	4b64      	ldr	r3, [pc, #400]	@ (8002734 <HAL_RCC_OscConfig+0x470>)
 80025a2:	6f1b      	ldr	r3, [r3, #112]	@ 0x70
 80025a4:	4a63      	ldr	r2, [pc, #396]	@ (8002734 <HAL_RCC_OscConfig+0x470>)
 80025a6:	f043 0301 	orr.w	r3, r3, #1
 80025aa:	6713      	str	r3, [r2, #112]	@ 0x70
 80025ac:	e01c      	b.n	80025e8 <HAL_RCC_OscConfig+0x324>
 80025ae:	687b      	ldr	r3, [r7, #4]
 80025b0:	689b      	ldr	r3, [r3, #8]
 80025b2:	2b05      	cmp	r3, #5
 80025b4:	d10c      	bne.n	80025d0 <HAL_RCC_OscConfig+0x30c>
 80025b6:	4b5f      	ldr	r3, [pc, #380]	@ (8002734 <HAL_RCC_OscConfig+0x470>)
 80025b8:	6f1b      	ldr	r3, [r3, #112]	@ 0x70
 80025ba:	4a5e      	ldr	r2, [pc, #376]	@ (8002734 <HAL_RCC_OscConfig+0x470>)
 80025bc:	f043 0304 	orr.w	r3, r3, #4
 80025c0:	6713      	str	r3, [r2, #112]	@ 0x70
 80025c2:	4b5c      	ldr	r3, [pc, #368]	@ (8002734 <HAL_RCC_OscConfig+0x470>)
 80025c4:	6f1b      	ldr	r3, [r3, #112]	@ 0x70
 80025c6:	4a5b      	ldr	r2, [pc, #364]	@ (8002734 <HAL_RCC_OscConfig+0x470>)
 80025c8:	f043 0301 	orr.w	r3, r3, #1
 80025cc:	6713      	str	r3, [r2, #112]	@ 0x70
 80025ce:	e00b      	b.n	80025e8 <HAL_RCC_OscConfig+0x324>
 80025d0:	4b58      	ldr	r3, [pc, #352]	@ (8002734 <HAL_RCC_OscConfig+0x470>)
 80025d2:	6f1b      	ldr	r3, [r3, #112]	@ 0x70
 80025d4:	4a57      	ldr	r2, [pc, #348]	@ (8002734 <HAL_RCC_OscConfig+0x470>)
 80025d6:	f023 0301 	bic.w	r3, r3, #1
 80025da:	6713      	str	r3, [r2, #112]	@ 0x70
 80025dc:	4b55      	ldr	r3, [pc, #340]	@ (8002734 <HAL_RCC_OscConfig+0x470>)
 80025de:	6f1b      	ldr	r3, [r3, #112]	@ 0x70
 80025e0:	4a54      	ldr	r2, [pc, #336]	@ (8002734 <HAL_RCC_OscConfig+0x470>)
 80025e2:	f023 0304 	bic.w	r3, r3, #4
 80025e6:	6713      	str	r3, [r2, #112]	@ 0x70
    /* Check the LSE State */
    if ((RCC_OscInitStruct->LSEState) != RCC_LSE_OFF)
 80025e8:	687b      	ldr	r3, [r7, #4]
 80025ea:	689b      	ldr	r3, [r3, #8]
 80025ec:	2b00      	cmp	r3, #0
 80025ee:	d015      	beq.n	800261c <HAL_RCC_OscConfig+0x358>
    {
      /* Get Start Tick*/
      tickstart = HAL_GetTick();
 80025f0:	f7fe fb76 	bl	8000ce0 <HAL_GetTick>
 80025f4:	6138      	str	r0, [r7, #16]

      /* Wait till LSE is ready */
      while (__HAL_RCC_GET_FLAG(RCC_FLAG_LSERDY) == RESET)
 80025f6:	e00a      	b.n	800260e <HAL_RCC_OscConfig+0x34a>
      {
        if ((HAL_GetTick() - tickstart) > RCC_LSE_TIMEOUT_VALUE)
 80025f8:	f7fe fb72 	bl	8000ce0 <HAL_GetTick>
 80025fc:	4602      	mov	r2, r0
 80025fe:	693b      	ldr	r3, [r7, #16]
 8002600:	1ad3      	subs	r3, r2, r3
 8002602:	f241 3288 	movw	r2, #5000	@ 0x1388
 8002606:	4293      	cmp	r3, r2
 8002608:	d901      	bls.n	800260e <HAL_RCC_OscConfig+0x34a>
        {
          return HAL_TIMEOUT;
 800260a:	2303      	movs	r3, #3
 800260c:	e0cb      	b.n	80027a6 <HAL_RCC_OscConfig+0x4e2>
      while (__HAL_RCC_GET_FLAG(RCC_FLAG_LSERDY) == RESET)
 800260e:	4b49      	ldr	r3, [pc, #292]	@ (8002734 <HAL_RCC_OscConfig+0x470>)
 8002610:	6f1b      	ldr	r3, [r3, #112]	@ 0x70
 8002612:	f003 0302 	and.w	r3, r3, #2
 8002616:	2b00      	cmp	r3, #0
 8002618:	d0ee      	beq.n	80025f8 <HAL_RCC_OscConfig+0x334>
 800261a:	e014      	b.n	8002646 <HAL_RCC_OscConfig+0x382>
      }
    }
    else
    {
      /* Get Start Tick */
      tickstart = HAL_GetTick();
 800261c:	f7fe fb60 	bl	8000ce0 <HAL_GetTick>
 8002620:	6138      	str	r0, [r7, #16]

      /* Wait till LSE is ready */
      while (__HAL_RCC_GET_FLAG(RCC_FLAG_LSERDY) != RESET)
 8002622:	e00a      	b.n	800263a <HAL_RCC_OscConfig+0x376>
      {
        if ((HAL_GetTick() - tickstart) > RCC_LSE_TIMEOUT_VALUE)
 8002624:	f7fe fb5c 	bl	8000ce0 <HAL_GetTick>
 8002628:	4602      	mov	r2, r0
 800262a:	693b      	ldr	r3, [r7, #16]
 800262c:	1ad3      	subs	r3, r2, r3
 800262e:	f241 3288 	movw	r2, #5000	@ 0x1388
 8002632:	4293      	cmp	r3, r2
 8002634:	d901      	bls.n	800263a <HAL_RCC_OscConfig+0x376>
        {
          return HAL_TIMEOUT;
 8002636:	2303      	movs	r3, #3
 8002638:	e0b5      	b.n	80027a6 <HAL_RCC_OscConfig+0x4e2>
      while (__HAL_RCC_GET_FLAG(RCC_FLAG_LSERDY) != RESET)
 800263a:	4b3e      	ldr	r3, [pc, #248]	@ (8002734 <HAL_RCC_OscConfig+0x470>)
 800263c:	6f1b      	ldr	r3, [r3, #112]	@ 0x70
 800263e:	f003 0302 	and.w	r3, r3, #2
 8002642:	2b00      	cmp	r3, #0
 8002644:	d1ee      	bne.n	8002624 <HAL_RCC_OscConfig+0x360>
        }
      }
    }

    /* Restore clock configuration if changed */
    if (pwrclkchanged == SET)
 8002646:	7dfb      	ldrb	r3, [r7, #23]
 8002648:	2b01      	cmp	r3, #1
 800264a:	d105      	bne.n	8002658 <HAL_RCC_OscConfig+0x394>
    {
      __HAL_RCC_PWR_CLK_DISABLE();
 800264c:	4b39      	ldr	r3, [pc, #228]	@ (8002734 <HAL_RCC_OscConfig+0x470>)
 800264e:	6c1b      	ldr	r3, [r3, #64]	@ 0x40
 8002650:	4a38      	ldr	r2, [pc, #224]	@ (8002734 <HAL_RCC_OscConfig+0x470>)
 8002652:	f023 5380 	bic.w	r3, r3, #268435456	@ 0x10000000
 8002656:	6413      	str	r3, [r2, #64]	@ 0x40
    }
  }
  /*-------------------------------- PLL Configuration -----------------------*/
  /* Check the parameters */
  assert_param(IS_RCC_PLL(RCC_OscInitStruct->PLL.PLLState));
  if ((RCC_OscInitStruct->PLL.PLLState) != RCC_PLL_NONE)
 8002658:	687b      	ldr	r3, [r7, #4]
 800265a:	699b      	ldr	r3, [r3, #24]
 800265c:	2b00      	cmp	r3, #0
 800265e:	f000 80a1 	beq.w	80027a4 <HAL_RCC_OscConfig+0x4e0>
  {
    /* Check if the PLL is used as system clock or not */
    if (__HAL_RCC_GET_SYSCLK_SOURCE() != RCC_CFGR_SWS_PLL)
 8002662:	4b34      	ldr	r3, [pc, #208]	@ (8002734 <HAL_RCC_OscConfig+0x470>)
 8002664:	689b      	ldr	r3, [r3, #8]
 8002666:	f003 030c 	and.w	r3, r3, #12
 800266a:	2b08      	cmp	r3, #8
 800266c:	d05c      	beq.n	8002728 <HAL_RCC_OscConfig+0x464>
    {
      if ((RCC_OscInitStruct->PLL.PLLState) == RCC_PLL_ON)
 800266e:	687b      	ldr	r3, [r7, #4]
 8002670:	699b      	ldr	r3, [r3, #24]
 8002672:	2b02      	cmp	r3, #2
 8002674:	d141      	bne.n	80026fa <HAL_RCC_OscConfig+0x436>
        assert_param(IS_RCC_PLLN_VALUE(RCC_OscInitStruct->PLL.PLLN));
        assert_param(IS_RCC_PLLP_VALUE(RCC_OscInitStruct->PLL.PLLP));
        assert_param(IS_RCC_PLLQ_VALUE(RCC_OscInitStruct->PLL.PLLQ));

        /* Disable the main PLL. */
        __HAL_RCC_PLL_DISABLE();
 8002676:	4b31      	ldr	r3, [pc, #196]	@ (800273c <HAL_RCC_OscConfig+0x478>)
 8002678:	2200      	movs	r2, #0
 800267a:	601a      	str	r2, [r3, #0]

        /* Get Start Tick */
        tickstart = HAL_GetTick();
 800267c:	f7fe fb30 	bl	8000ce0 <HAL_GetTick>
 8002680:	6138      	str	r0, [r7, #16]

        /* Wait till PLL is disabled */
        while (__HAL_RCC_GET_FLAG(RCC_FLAG_PLLRDY) != RESET)
 8002682:	e008      	b.n	8002696 <HAL_RCC_OscConfig+0x3d2>
        {
          if ((HAL_GetTick() - tickstart) > PLL_TIMEOUT_VALUE)
 8002684:	f7fe fb2c 	bl	8000ce0 <HAL_GetTick>
 8002688:	4602      	mov	r2, r0
 800268a:	693b      	ldr	r3, [r7, #16]
 800268c:	1ad3      	subs	r3, r2, r3
 800268e:	2b02      	cmp	r3, #2
 8002690:	d901      	bls.n	8002696 <HAL_RCC_OscConfig+0x3d2>
          {
            return HAL_TIMEOUT;
 8002692:	2303      	movs	r3, #3
 8002694:	e087      	b.n	80027a6 <HAL_RCC_OscConfig+0x4e2>
        while (__HAL_RCC_GET_FLAG(RCC_FLAG_PLLRDY) != RESET)
 8002696:	4b27      	ldr	r3, [pc, #156]	@ (8002734 <HAL_RCC_OscConfig+0x470>)
 8002698:	681b      	ldr	r3, [r3, #0]
 800269a:	f003 7300 	and.w	r3, r3, #33554432	@ 0x2000000
 800269e:	2b00      	cmp	r3, #0
 80026a0:	d1f0      	bne.n	8002684 <HAL_RCC_OscConfig+0x3c0>
          }
        }

        /* Configure the main PLL clock source, multiplication and division factors. */
        WRITE_REG(RCC->PLLCFGR, (RCC_OscInitStruct->PLL.PLLSource                                            | \
 80026a2:	687b      	ldr	r3, [r7, #4]
 80026a4:	69da      	ldr	r2, [r3, #28]
 80026a6:	687b      	ldr	r3, [r7, #4]
 80026a8:	6a1b      	ldr	r3, [r3, #32]
 80026aa:	431a      	orrs	r2, r3
 80026ac:	687b      	ldr	r3, [r7, #4]
 80026ae:	6a5b      	ldr	r3, [r3, #36]	@ 0x24
 80026b0:	019b      	lsls	r3, r3, #6
 80026b2:	431a      	orrs	r2, r3
 80026b4:	687b      	ldr	r3, [r7, #4]
 80026b6:	6a9b      	ldr	r3, [r3, #40]	@ 0x28
 80026b8:	085b      	lsrs	r3, r3, #1
 80026ba:	3b01      	subs	r3, #1
 80026bc:	041b      	lsls	r3, r3, #16
 80026be:	431a      	orrs	r2, r3
 80026c0:	687b      	ldr	r3, [r7, #4]
 80026c2:	6adb      	ldr	r3, [r3, #44]	@ 0x2c
 80026c4:	061b      	lsls	r3, r3, #24
 80026c6:	491b      	ldr	r1, [pc, #108]	@ (8002734 <HAL_RCC_OscConfig+0x470>)
 80026c8:	4313      	orrs	r3, r2
 80026ca:	604b      	str	r3, [r1, #4]
                                 RCC_OscInitStruct->PLL.PLLM                                                 | \
                                 (RCC_OscInitStruct->PLL.PLLN << RCC_PLLCFGR_PLLN_Pos)             | \
                                 (((RCC_OscInitStruct->PLL.PLLP >> 1U) - 1U) << RCC_PLLCFGR_PLLP_Pos) | \
                                 (RCC_OscInitStruct->PLL.PLLQ << RCC_PLLCFGR_PLLQ_Pos)));
        /* Enable the main PLL. */
        __HAL_RCC_PLL_ENABLE();
 80026cc:	4b1b      	ldr	r3, [pc, #108]	@ (800273c <HAL_RCC_OscConfig+0x478>)
 80026ce:	2201      	movs	r2, #1
 80026d0:	601a      	str	r2, [r3, #0]

        /* Get Start Tick */
        tickstart = HAL_GetTick();
 80026d2:	f7fe fb05 	bl	8000ce0 <HAL_GetTick>
 80026d6:	6138      	str	r0, [r7, #16]

        /* Wait till PLL is ready */
        while (__HAL_RCC_GET_FLAG(RCC_FLAG_PLLRDY) == RESET)
 80026d8:	e008      	b.n	80026ec <HAL_RCC_OscConfig+0x428>
        {
          if ((HAL_GetTick() - tickstart) > PLL_TIMEOUT_VALUE)
 80026da:	f7fe fb01 	bl	8000ce0 <HAL_GetTick>
 80026de:	4602      	mov	r2, r0
 80026e0:	693b      	ldr	r3, [r7, #16]
 80026e2:	1ad3      	subs	r3, r2, r3
 80026e4:	2b02      	cmp	r3, #2
 80026e6:	d901      	bls.n	80026ec <HAL_RCC_OscConfig+0x428>
          {
            return HAL_TIMEOUT;
 80026e8:	2303      	movs	r3, #3
 80026ea:	e05c      	b.n	80027a6 <HAL_RCC_OscConfig+0x4e2>
        while (__HAL_RCC_GET_FLAG(RCC_FLAG_PLLRDY) == RESET)
 80026ec:	4b11      	ldr	r3, [pc, #68]	@ (8002734 <HAL_RCC_OscConfig+0x470>)
 80026ee:	681b      	ldr	r3, [r3, #0]
 80026f0:	f003 7300 	and.w	r3, r3, #33554432	@ 0x2000000
 80026f4:	2b00      	cmp	r3, #0
 80026f6:	d0f0      	beq.n	80026da <HAL_RCC_OscConfig+0x416>
 80026f8:	e054      	b.n	80027a4 <HAL_RCC_OscConfig+0x4e0>
        }
      }
      else
      {
        /* Disable the main PLL. */
        __HAL_RCC_PLL_DISABLE();
 80026fa:	4b10      	ldr	r3, [pc, #64]	@ (800273c <HAL_RCC_OscConfig+0x478>)
 80026fc:	2200      	movs	r2, #0
 80026fe:	601a      	str	r2, [r3, #0]

        /* Get Start Tick */
        tickstart = HAL_GetTick();
 8002700:	f7fe faee 	bl	8000ce0 <HAL_GetTick>
 8002704:	6138      	str	r0, [r7, #16]

        /* Wait till PLL is disabled */
        while (__HAL_RCC_GET_FLAG(RCC_FLAG_PLLRDY) != RESET)
 8002706:	e008      	b.n	800271a <HAL_RCC_OscConfig+0x456>
        {
          if ((HAL_GetTick() - tickstart) > PLL_TIMEOUT_VALUE)
 8002708:	f7fe faea 	bl	8000ce0 <HAL_GetTick>
 800270c:	4602      	mov	r2, r0
 800270e:	693b      	ldr	r3, [r7, #16]
 8002710:	1ad3      	subs	r3, r2, r3
 8002712:	2b02      	cmp	r3, #2
 8002714:	d901      	bls.n	800271a <HAL_RCC_OscConfig+0x456>
          {
            return HAL_TIMEOUT;
 8002716:	2303      	movs	r3, #3
 8002718:	e045      	b.n	80027a6 <HAL_RCC_OscConfig+0x4e2>
        while (__HAL_RCC_GET_FLAG(RCC_FLAG_PLLRDY) != RESET)
 800271a:	4b06      	ldr	r3, [pc, #24]	@ (8002734 <HAL_RCC_OscConfig+0x470>)
 800271c:	681b      	ldr	r3, [r3, #0]
 800271e:	f003 7300 	and.w	r3, r3, #33554432	@ 0x2000000
 8002722:	2b00      	cmp	r3, #0
 8002724:	d1f0      	bne.n	8002708 <HAL_RCC_OscConfig+0x444>
 8002726:	e03d      	b.n	80027a4 <HAL_RCC_OscConfig+0x4e0>
      }
    }
    else
    {
      /* Check if there is a request to disable the PLL used as System clock source */
      if ((RCC_OscInitStruct->PLL.PLLState) == RCC_PLL_OFF)
 8002728:	687b      	ldr	r3, [r7, #4]
 800272a:	699b      	ldr	r3, [r3, #24]
 800272c:	2b01      	cmp	r3, #1
 800272e:	d107      	bne.n	8002740 <HAL_RCC_OscConfig+0x47c>
      {
        return HAL_ERROR;
 8002730:	2301      	movs	r3, #1
 8002732:	e038      	b.n	80027a6 <HAL_RCC_OscConfig+0x4e2>
 8002734:	40023800 	.word	0x40023800
 8002738:	40007000 	.word	0x40007000
 800273c:	42470060 	.word	0x42470060
      }
      else
      {
        /* Do not return HAL_ERROR if request repeats the current configuration */
        pll_config = RCC->PLLCFGR;
 8002740:	4b1b      	ldr	r3, [pc, #108]	@ (80027b0 <HAL_RCC_OscConfig+0x4ec>)
 8002742:	685b      	ldr	r3, [r3, #4]
 8002744:	60fb      	str	r3, [r7, #12]
            (READ_BIT(pll_config, RCC_PLLCFGR_PLLN) != (RCC_OscInitStruct->PLL.PLLN) << RCC_PLLCFGR_PLLN_Pos) ||
            (READ_BIT(pll_config, RCC_PLLCFGR_PLLP) != (((RCC_OscInitStruct->PLL.PLLP >> 1U) - 1U)) << RCC_PLLCFGR_PLLP_Pos) ||
            (READ_BIT(pll_config, RCC_PLLCFGR_PLLQ) != (RCC_OscInitStruct->PLL.PLLQ << RCC_PLLCFGR_PLLQ_Pos)) ||
            (READ_BIT(pll_config, RCC_PLLCFGR_PLLR) != (RCC_OscInitStruct->PLL.PLLR << RCC_PLLCFGR_PLLR_Pos)))
#else
        if (((RCC_OscInitStruct->PLL.PLLState) == RCC_PLL_OFF) ||
 8002746:	687b      	ldr	r3, [r7, #4]
 8002748:	699b      	ldr	r3, [r3, #24]
 800274a:	2b01      	cmp	r3, #1
 800274c:	d028      	beq.n	80027a0 <HAL_RCC_OscConfig+0x4dc>
            (READ_BIT(pll_config, RCC_PLLCFGR_PLLSRC) != RCC_OscInitStruct->PLL.PLLSource) ||
 800274e:	68fb      	ldr	r3, [r7, #12]
 8002750:	f403 0280 	and.w	r2, r3, #4194304	@ 0x400000
 8002754:	687b      	ldr	r3, [r7, #4]
 8002756:	69db      	ldr	r3, [r3, #28]
        if (((RCC_OscInitStruct->PLL.PLLState) == RCC_PLL_OFF) ||
 8002758:	429a      	cmp	r2, r3
 800275a:	d121      	bne.n	80027a0 <HAL_RCC_OscConfig+0x4dc>
            (READ_BIT(pll_config, RCC_PLLCFGR_PLLM) != (RCC_OscInitStruct->PLL.PLLM) << RCC_PLLCFGR_PLLM_Pos) ||
 800275c:	68fb      	ldr	r3, [r7, #12]
 800275e:	f003 023f 	and.w	r2, r3, #63	@ 0x3f
 8002762:	687b      	ldr	r3, [r7, #4]
 8002764:	6a1b      	ldr	r3, [r3, #32]
            (READ_BIT(pll_config, RCC_PLLCFGR_PLLSRC) != RCC_OscInitStruct->PLL.PLLSource) ||
 8002766:	429a      	cmp	r2, r3
 8002768:	d11a      	bne.n	80027a0 <HAL_RCC_OscConfig+0x4dc>
            (READ_BIT(pll_config, RCC_PLLCFGR_PLLN) != (RCC_OscInitStruct->PLL.PLLN) << RCC_PLLCFGR_PLLN_Pos) ||
 800276a:	68fa      	ldr	r2, [r7, #12]
 800276c:	f647 73c0 	movw	r3, #32704	@ 0x7fc0
 8002770:	4013      	ands	r3, r2
 8002772:	687a      	ldr	r2, [r7, #4]
 8002774:	6a52      	ldr	r2, [r2, #36]	@ 0x24
 8002776:	0192      	lsls	r2, r2, #6
            (READ_BIT(pll_config, RCC_PLLCFGR_PLLM) != (RCC_OscInitStruct->PLL.PLLM) << RCC_PLLCFGR_PLLM_Pos) ||
 8002778:	4293      	cmp	r3, r2
 800277a:	d111      	bne.n	80027a0 <HAL_RCC_OscConfig+0x4dc>
            (READ_BIT(pll_config, RCC_PLLCFGR_PLLP) != (((RCC_OscInitStruct->PLL.PLLP >> 1U) - 1U)) << RCC_PLLCFGR_PLLP_Pos) ||
 800277c:	68fb      	ldr	r3, [r7, #12]
 800277e:	f403 3240 	and.w	r2, r3, #196608	@ 0x30000
 8002782:	687b      	ldr	r3, [r7, #4]
 8002784:	6a9b      	ldr	r3, [r3, #40]	@ 0x28
 8002786:	085b      	lsrs	r3, r3, #1
 8002788:	3b01      	subs	r3, #1
 800278a:	041b      	lsls	r3, r3, #16
            (READ_BIT(pll_config, RCC_PLLCFGR_PLLN) != (RCC_OscInitStruct->PLL.PLLN) << RCC_PLLCFGR_PLLN_Pos) ||
 800278c:	429a      	cmp	r2, r3
 800278e:	d107      	bne.n	80027a0 <HAL_RCC_OscConfig+0x4dc>
            (READ_BIT(pll_config, RCC_PLLCFGR_PLLQ) != (RCC_OscInitStruct->PLL.PLLQ << RCC_PLLCFGR_PLLQ_Pos)))
 8002790:	68fb      	ldr	r3, [r7, #12]
 8002792:	f003 6270 	and.w	r2, r3, #251658240	@ 0xf000000
 8002796:	687b      	ldr	r3, [r7, #4]
 8002798:	6adb      	ldr	r3, [r3, #44]	@ 0x2c
 800279a:	061b      	lsls	r3, r3, #24
            (READ_BIT(pll_config, RCC_PLLCFGR_PLLP) != (((RCC_OscInitStruct->PLL.PLLP >> 1U) - 1U)) << RCC_PLLCFGR_PLLP_Pos) ||
 800279c:	429a      	cmp	r2, r3
 800279e:	d001      	beq.n	80027a4 <HAL_RCC_OscConfig+0x4e0>
#endif /* RCC_PLLCFGR_PLLR */
        {
          return HAL_ERROR;
 80027a0:	2301      	movs	r3, #1
 80027a2:	e000      	b.n	80027a6 <HAL_RCC_OscConfig+0x4e2>
        }
      }
    }
  }
  return HAL_OK;
 80027a4:	2300      	movs	r3, #0
}
 80027a6:	4618      	mov	r0, r3
 80027a8:	3718      	adds	r7, #24
 80027aa:	46bd      	mov	sp, r7
 80027ac:	bd80      	pop	{r7, pc}
 80027ae:	bf00      	nop
 80027b0:	40023800 	.word	0x40023800

080027b4 <HAL_RCC_ClockConfig>:
  *         HPRE[3:0] bits to ensure that HCLK not exceed the maximum allowed frequency
  *         (for more details refer to section above "Initialization/de-initialization functions")
  * @retval None
  */
HAL_StatusTypeDef HAL_RCC_ClockConfig(RCC_ClkInitTypeDef  *RCC_ClkInitStruct, uint32_t FLatency)
{
 80027b4:	b580      	push	{r7, lr}
 80027b6:	b084      	sub	sp, #16
 80027b8:	af00      	add	r7, sp, #0
 80027ba:	6078      	str	r0, [r7, #4]
 80027bc:	6039      	str	r1, [r7, #0]
  uint32_t tickstart;

  /* Check Null pointer */
  if (RCC_ClkInitStruct == NULL)
 80027be:	687b      	ldr	r3, [r7, #4]
 80027c0:	2b00      	cmp	r3, #0
 80027c2:	d101      	bne.n	80027c8 <HAL_RCC_ClockConfig+0x14>
  {
    return HAL_ERROR;
 80027c4:	2301      	movs	r3, #1
 80027c6:	e0cc      	b.n	8002962 <HAL_RCC_ClockConfig+0x1ae>
  /* To correctly read data from FLASH memory, the number of wait states (LATENCY)
    must be correctly programmed according to the frequency of the CPU clock
    (HCLK) and the supply voltage of the device. */

  /* Increasing the number of wait states because of higher CPU frequency */
  if (FLatency > __HAL_FLASH_GET_LATENCY())
 80027c8:	4b68      	ldr	r3, [pc, #416]	@ (800296c <HAL_RCC_ClockConfig+0x1b8>)
 80027ca:	681b      	ldr	r3, [r3, #0]
 80027cc:	f003 0307 	and.w	r3, r3, #7
 80027d0:	683a      	ldr	r2, [r7, #0]
 80027d2:	429a      	cmp	r2, r3
 80027d4:	d90c      	bls.n	80027f0 <HAL_RCC_ClockConfig+0x3c>
  {
    /* Program the new number of wait states to the LATENCY bits in the FLASH_ACR register */
    __HAL_FLASH_SET_LATENCY(FLatency);
 80027d6:	4b65      	ldr	r3, [pc, #404]	@ (800296c <HAL_RCC_ClockConfig+0x1b8>)
 80027d8:	683a      	ldr	r2, [r7, #0]
 80027da:	b2d2      	uxtb	r2, r2
 80027dc:	701a      	strb	r2, [r3, #0]

    /* Check that the new number of wait states is taken into account to access the Flash
    memory by reading the FLASH_ACR register */
    if (__HAL_FLASH_GET_LATENCY() != FLatency)
 80027de:	4b63      	ldr	r3, [pc, #396]	@ (800296c <HAL_RCC_ClockConfig+0x1b8>)
 80027e0:	681b      	ldr	r3, [r3, #0]
 80027e2:	f003 0307 	and.w	r3, r3, #7
 80027e6:	683a      	ldr	r2, [r7, #0]
 80027e8:	429a      	cmp	r2, r3
 80027ea:	d001      	beq.n	80027f0 <HAL_RCC_ClockConfig+0x3c>
    {
      return HAL_ERROR;
 80027ec:	2301      	movs	r3, #1
 80027ee:	e0b8      	b.n	8002962 <HAL_RCC_ClockConfig+0x1ae>
    }
  }

  /*-------------------------- HCLK Configuration --------------------------*/
  if (((RCC_ClkInitStruct->ClockType) & RCC_CLOCKTYPE_HCLK) == RCC_CLOCKTYPE_HCLK)
 80027f0:	687b      	ldr	r3, [r7, #4]
 80027f2:	681b      	ldr	r3, [r3, #0]
 80027f4:	f003 0302 	and.w	r3, r3, #2
 80027f8:	2b00      	cmp	r3, #0
 80027fa:	d020      	beq.n	800283e <HAL_RCC_ClockConfig+0x8a>
  {
    /* Set the highest APBx dividers in order to ensure that we do not go through
       a non-spec phase whatever we decrease or increase HCLK. */
    if (((RCC_ClkInitStruct->ClockType) & RCC_CLOCKTYPE_PCLK1) == RCC_CLOCKTYPE_PCLK1)
 80027fc:	687b      	ldr	r3, [r7, #4]
 80027fe:	681b      	ldr	r3, [r3, #0]
 8002800:	f003 0304 	and.w	r3, r3, #4
 8002804:	2b00      	cmp	r3, #0
 8002806:	d005      	beq.n	8002814 <HAL_RCC_ClockConfig+0x60>
    {
      MODIFY_REG(RCC->CFGR, RCC_CFGR_PPRE1, RCC_HCLK_DIV16);
 8002808:	4b59      	ldr	r3, [pc, #356]	@ (8002970 <HAL_RCC_ClockConfig+0x1bc>)
 800280a:	689b      	ldr	r3, [r3, #8]
 800280c:	4a58      	ldr	r2, [pc, #352]	@ (8002970 <HAL_RCC_ClockConfig+0x1bc>)
 800280e:	f443 53e0 	orr.w	r3, r3, #7168	@ 0x1c00
 8002812:	6093      	str	r3, [r2, #8]
    }

    if (((RCC_ClkInitStruct->ClockType) & RCC_CLOCKTYPE_PCLK2) == RCC_CLOCKTYPE_PCLK2)
 8002814:	687b      	ldr	r3, [r7, #4]
 8002816:	681b      	ldr	r3, [r3, #0]
 8002818:	f003 0308 	and.w	r3, r3, #8
 800281c:	2b00      	cmp	r3, #0
 800281e:	d005      	beq.n	800282c <HAL_RCC_ClockConfig+0x78>
    {
      MODIFY_REG(RCC->CFGR, RCC_CFGR_PPRE2, (RCC_HCLK_DIV16 << 3));
 8002820:	4b53      	ldr	r3, [pc, #332]	@ (8002970 <HAL_RCC_ClockConfig+0x1bc>)
 8002822:	689b      	ldr	r3, [r3, #8]
 8002824:	4a52      	ldr	r2, [pc, #328]	@ (8002970 <HAL_RCC_ClockConfig+0x1bc>)
 8002826:	f443 4360 	orr.w	r3, r3, #57344	@ 0xe000
 800282a:	6093      	str	r3, [r2, #8]
    }

    assert_param(IS_RCC_HCLK(RCC_ClkInitStruct->AHBCLKDivider));
    MODIFY_REG(RCC->CFGR, RCC_CFGR_HPRE, RCC_ClkInitStruct->AHBCLKDivider);
 800282c:	4b50      	ldr	r3, [pc, #320]	@ (8002970 <HAL_RCC_ClockConfig+0x1bc>)
 800282e:	689b      	ldr	r3, [r3, #8]
 8002830:	f023 02f0 	bic.w	r2, r3, #240	@ 0xf0
 8002834:	687b      	ldr	r3, [r7, #4]
 8002836:	689b      	ldr	r3, [r3, #8]
 8002838:	494d      	ldr	r1, [pc, #308]	@ (8002970 <HAL_RCC_ClockConfig+0x1bc>)
 800283a:	4313      	orrs	r3, r2
 800283c:	608b      	str	r3, [r1, #8]
  }

  /*------------------------- SYSCLK Configuration ---------------------------*/
  if (((RCC_ClkInitStruct->ClockType) & RCC_CLOCKTYPE_SYSCLK) == RCC_CLOCKTYPE_SYSCLK)
 800283e:	687b      	ldr	r3, [r7, #4]
 8002840:	681b      	ldr	r3, [r3, #0]
 8002842:	f003 0301 	and.w	r3, r3, #1
 8002846:	2b00      	cmp	r3, #0
 8002848:	d044      	beq.n	80028d4 <HAL_RCC_ClockConfig+0x120>
  {
    assert_param(IS_RCC_SYSCLKSOURCE(RCC_ClkInitStruct->SYSCLKSource));

    /* HSE is selected as System Clock Source */
    if (RCC_ClkInitStruct->SYSCLKSource == RCC_SYSCLKSOURCE_HSE)
 800284a:	687b      	ldr	r3, [r7, #4]
 800284c:	685b      	ldr	r3, [r3, #4]
 800284e:	2b01      	cmp	r3, #1
 8002850:	d107      	bne.n	8002862 <HAL_RCC_ClockConfig+0xae>
    {
      /* Check the HSE ready flag */
      if (__HAL_RCC_GET_FLAG(RCC_FLAG_HSERDY) == RESET)
 8002852:	4b47      	ldr	r3, [pc, #284]	@ (8002970 <HAL_RCC_ClockConfig+0x1bc>)
 8002854:	681b      	ldr	r3, [r3, #0]
 8002856:	f403 3300 	and.w	r3, r3, #131072	@ 0x20000
 800285a:	2b00      	cmp	r3, #0
 800285c:	d119      	bne.n	8002892 <HAL_RCC_ClockConfig+0xde>
      {
        return HAL_ERROR;
 800285e:	2301      	movs	r3, #1
 8002860:	e07f      	b.n	8002962 <HAL_RCC_ClockConfig+0x1ae>
      }
    }
    /* PLL is selected as System Clock Source */
    else if ((RCC_ClkInitStruct->SYSCLKSource == RCC_SYSCLKSOURCE_PLLCLK)   ||
 8002862:	687b      	ldr	r3, [r7, #4]
 8002864:	685b      	ldr	r3, [r3, #4]
 8002866:	2b02      	cmp	r3, #2
 8002868:	d003      	beq.n	8002872 <HAL_RCC_ClockConfig+0xbe>
             (RCC_ClkInitStruct->SYSCLKSource == RCC_SYSCLKSOURCE_PLLRCLK))
 800286a:	687b      	ldr	r3, [r7, #4]
 800286c:	685b      	ldr	r3, [r3, #4]
    else if ((RCC_ClkInitStruct->SYSCLKSource == RCC_SYSCLKSOURCE_PLLCLK)   ||
 800286e:	2b03      	cmp	r3, #3
 8002870:	d107      	bne.n	8002882 <HAL_RCC_ClockConfig+0xce>
    {
      /* Check the PLL ready flag */
      if (__HAL_RCC_GET_FLAG(RCC_FLAG_PLLRDY) == RESET)
 8002872:	4b3f      	ldr	r3, [pc, #252]	@ (8002970 <HAL_RCC_ClockConfig+0x1bc>)
 8002874:	681b      	ldr	r3, [r3, #0]
 8002876:	f003 7300 	and.w	r3, r3, #33554432	@ 0x2000000
 800287a:	2b00      	cmp	r3, #0
 800287c:	d109      	bne.n	8002892 <HAL_RCC_ClockConfig+0xde>
      {
        return HAL_ERROR;
 800287e:	2301      	movs	r3, #1
 8002880:	e06f      	b.n	8002962 <HAL_RCC_ClockConfig+0x1ae>
    }
    /* HSI is selected as System Clock Source */
    else
    {
      /* Check the HSI ready flag */
      if (__HAL_RCC_GET_FLAG(RCC_FLAG_HSIRDY) == RESET)
 8002882:	4b3b      	ldr	r3, [pc, #236]	@ (8002970 <HAL_RCC_ClockConfig+0x1bc>)
 8002884:	681b      	ldr	r3, [r3, #0]
 8002886:	f003 0302 	and.w	r3, r3, #2
 800288a:	2b00      	cmp	r3, #0
 800288c:	d101      	bne.n	8002892 <HAL_RCC_ClockConfig+0xde>
      {
        return HAL_ERROR;
 800288e:	2301      	movs	r3, #1
 8002890:	e067      	b.n	8002962 <HAL_RCC_ClockConfig+0x1ae>
      }
    }

    __HAL_RCC_SYSCLK_CONFIG(RCC_ClkInitStruct->SYSCLKSource);
 8002892:	4b37      	ldr	r3, [pc, #220]	@ (8002970 <HAL_RCC_ClockConfig+0x1bc>)
 8002894:	689b      	ldr	r3, [r3, #8]
 8002896:	f023 0203 	bic.w	r2, r3, #3
 800289a:	687b      	ldr	r3, [r7, #4]
 800289c:	685b      	ldr	r3, [r3, #4]
 800289e:	4934      	ldr	r1, [pc, #208]	@ (8002970 <HAL_RCC_ClockConfig+0x1bc>)
 80028a0:	4313      	orrs	r3, r2
 80028a2:	608b      	str	r3, [r1, #8]

    /* Get Start Tick */
    tickstart = HAL_GetTick();
 80028a4:	f7fe fa1c 	bl	8000ce0 <HAL_GetTick>
 80028a8:	60f8      	str	r0, [r7, #12]

    while (__HAL_RCC_GET_SYSCLK_SOURCE() != (RCC_ClkInitStruct->SYSCLKSource << RCC_CFGR_SWS_Pos))
 80028aa:	e00a      	b.n	80028c2 <HAL_RCC_ClockConfig+0x10e>
    {
      if ((HAL_GetTick() - tickstart) > CLOCKSWITCH_TIMEOUT_VALUE)
 80028ac:	f7fe fa18 	bl	8000ce0 <HAL_GetTick>
 80028b0:	4602      	mov	r2, r0
 80028b2:	68fb      	ldr	r3, [r7, #12]
 80028b4:	1ad3      	subs	r3, r2, r3
 80028b6:	f241 3288 	movw	r2, #5000	@ 0x1388
 80028ba:	4293      	cmp	r3, r2
 80028bc:	d901      	bls.n	80028c2 <HAL_RCC_ClockConfig+0x10e>
      {
        return HAL_TIMEOUT;
 80028be:	2303      	movs	r3, #3
 80028c0:	e04f      	b.n	8002962 <HAL_RCC_ClockConfig+0x1ae>
    while (__HAL_RCC_GET_SYSCLK_SOURCE() != (RCC_ClkInitStruct->SYSCLKSource << RCC_CFGR_SWS_Pos))
 80028c2:	4b2b      	ldr	r3, [pc, #172]	@ (8002970 <HAL_RCC_ClockConfig+0x1bc>)
 80028c4:	689b      	ldr	r3, [r3, #8]
 80028c6:	f003 020c 	and.w	r2, r3, #12
 80028ca:	687b      	ldr	r3, [r7, #4]
 80028cc:	685b      	ldr	r3, [r3, #4]
 80028ce:	009b      	lsls	r3, r3, #2
 80028d0:	429a      	cmp	r2, r3
 80028d2:	d1eb      	bne.n	80028ac <HAL_RCC_ClockConfig+0xf8>
      }
    }
  }

  /* Decreasing the number of wait states because of lower CPU frequency */
  if (FLatency < __HAL_FLASH_GET_LATENCY())
 80028d4:	4b25      	ldr	r3, [pc, #148]	@ (800296c <HAL_RCC_ClockConfig+0x1b8>)
 80028d6:	681b      	ldr	r3, [r3, #0]
 80028d8:	f003 0307 	and.w	r3, r3, #7
 80028dc:	683a      	ldr	r2, [r7, #0]
 80028de:	429a      	cmp	r2, r3
 80028e0:	d20c      	bcs.n	80028fc <HAL_RCC_ClockConfig+0x148>
  {
    /* Program the new number of wait states to the LATENCY bits in the FLASH_ACR register */
    __HAL_FLASH_SET_LATENCY(FLatency);
 80028e2:	4b22      	ldr	r3, [pc, #136]	@ (800296c <HAL_RCC_ClockConfig+0x1b8>)
 80028e4:	683a      	ldr	r2, [r7, #0]
 80028e6:	b2d2      	uxtb	r2, r2
 80028e8:	701a      	strb	r2, [r3, #0]

    /* Check that the new number of wait states is taken into account to access the Flash
    memory by reading the FLASH_ACR register */
    if (__HAL_FLASH_GET_LATENCY() != FLatency)
 80028ea:	4b20      	ldr	r3, [pc, #128]	@ (800296c <HAL_RCC_ClockConfig+0x1b8>)
 80028ec:	681b      	ldr	r3, [r3, #0]
 80028ee:	f003 0307 	and.w	r3, r3, #7
 80028f2:	683a      	ldr	r2, [r7, #0]
 80028f4:	429a      	cmp	r2, r3
 80028f6:	d001      	beq.n	80028fc <HAL_RCC_ClockConfig+0x148>
    {
      return HAL_ERROR;
 80028f8:	2301      	movs	r3, #1
 80028fa:	e032      	b.n	8002962 <HAL_RCC_ClockConfig+0x1ae>
    }
  }

  /*-------------------------- PCLK1 Configuration ---------------------------*/
  if (((RCC_ClkInitStruct->ClockType) & RCC_CLOCKTYPE_PCLK1) == RCC_CLOCKTYPE_PCLK1)
 80028fc:	687b      	ldr	r3, [r7, #4]
 80028fe:	681b      	ldr	r3, [r3, #0]
 8002900:	f003 0304 	and.w	r3, r3, #4
 8002904:	2b00      	cmp	r3, #0
 8002906:	d008      	beq.n	800291a <HAL_RCC_ClockConfig+0x166>
  {
    assert_param(IS_RCC_PCLK(RCC_ClkInitStruct->APB1CLKDivider));
    MODIFY_REG(RCC->CFGR, RCC_CFGR_PPRE1, RCC_ClkInitStruct->APB1CLKDivider);
 8002908:	4b19      	ldr	r3, [pc, #100]	@ (8002970 <HAL_RCC_ClockConfig+0x1bc>)
 800290a:	689b      	ldr	r3, [r3, #8]
 800290c:	f423 52e0 	bic.w	r2, r3, #7168	@ 0x1c00
 8002910:	687b      	ldr	r3, [r7, #4]
 8002912:	68db      	ldr	r3, [r3, #12]
 8002914:	4916      	ldr	r1, [pc, #88]	@ (8002970 <HAL_RCC_ClockConfig+0x1bc>)
 8002916:	4313      	orrs	r3, r2
 8002918:	608b      	str	r3, [r1, #8]
  }

  /*-------------------------- PCLK2 Configuration ---------------------------*/
  if (((RCC_ClkInitStruct->ClockType) & RCC_CLOCKTYPE_PCLK2) == RCC_CLOCKTYPE_PCLK2)
 800291a:	687b      	ldr	r3, [r7, #4]
 800291c:	681b      	ldr	r3, [r3, #0]
 800291e:	f003 0308 	and.w	r3, r3, #8
 8002922:	2b00      	cmp	r3, #0
 8002924:	d009      	beq.n	800293a <HAL_RCC_ClockConfig+0x186>
  {
    assert_param(IS_RCC_PCLK(RCC_ClkInitStruct->APB2CLKDivider));
    MODIFY_REG(RCC->CFGR, RCC_CFGR_PPRE2, ((RCC_ClkInitStruct->APB2CLKDivider) << 3U));
 8002926:	4b12      	ldr	r3, [pc, #72]	@ (8002970 <HAL_RCC_ClockConfig+0x1bc>)
 8002928:	689b      	ldr	r3, [r3, #8]
 800292a:	f423 4260 	bic.w	r2, r3, #57344	@ 0xe000
 800292e:	687b      	ldr	r3, [r7, #4]
 8002930:	691b      	ldr	r3, [r3, #16]
 8002932:	00db      	lsls	r3, r3, #3
 8002934:	490e      	ldr	r1, [pc, #56]	@ (8002970 <HAL_RCC_ClockConfig+0x1bc>)
 8002936:	4313      	orrs	r3, r2
 8002938:	608b      	str	r3, [r1, #8]
  }

  /* Update the SystemCoreClock global variable */
  SystemCoreClock = HAL_RCC_GetSysClockFreq() >> AHBPrescTable[(RCC->CFGR & RCC_CFGR_HPRE) >> RCC_CFGR_HPRE_Pos];
 800293a:	f000 f821 	bl	8002980 <HAL_RCC_GetSysClockFreq>
 800293e:	4602      	mov	r2, r0
 8002940:	4b0b      	ldr	r3, [pc, #44]	@ (8002970 <HAL_RCC_ClockConfig+0x1bc>)
 8002942:	689b      	ldr	r3, [r3, #8]
 8002944:	091b      	lsrs	r3, r3, #4
 8002946:	f003 030f 	and.w	r3, r3, #15
 800294a:	490a      	ldr	r1, [pc, #40]	@ (8002974 <HAL_RCC_ClockConfig+0x1c0>)
 800294c:	5ccb      	ldrb	r3, [r1, r3]
 800294e:	fa22 f303 	lsr.w	r3, r2, r3
 8002952:	4a09      	ldr	r2, [pc, #36]	@ (8002978 <HAL_RCC_ClockConfig+0x1c4>)
 8002954:	6013      	str	r3, [r2, #0]

  /* Configure the source of time base considering new system clocks settings */
  HAL_InitTick(uwTickPrio);
 8002956:	4b09      	ldr	r3, [pc, #36]	@ (800297c <HAL_RCC_ClockConfig+0x1c8>)
 8002958:	681b      	ldr	r3, [r3, #0]
 800295a:	4618      	mov	r0, r3
 800295c:	f7fe f97c 	bl	8000c58 <HAL_InitTick>

  return HAL_OK;
 8002960:	2300      	movs	r3, #0
}
 8002962:	4618      	mov	r0, r3
 8002964:	3710      	adds	r7, #16
 8002966:	46bd      	mov	sp, r7
 8002968:	bd80      	pop	{r7, pc}
 800296a:	bf00      	nop
 800296c:	40023c00 	.word	0x40023c00
 8002970:	40023800 	.word	0x40023800
 8002974:	08003cf8 	.word	0x08003cf8
 8002978:	20000000 	.word	0x20000000
 800297c:	20000004 	.word	0x20000004

08002980 <HAL_RCC_GetSysClockFreq>:
  *
  *
  * @retval SYSCLK frequency
  */
__weak uint32_t HAL_RCC_GetSysClockFreq(void)
{
 8002980:	e92d 4fb0 	stmdb	sp!, {r4, r5, r7, r8, r9, sl, fp, lr}
 8002984:	b090      	sub	sp, #64	@ 0x40
 8002986:	af00      	add	r7, sp, #0
  uint32_t pllm = 0U;
 8002988:	2300      	movs	r3, #0
 800298a:	637b      	str	r3, [r7, #52]	@ 0x34
  uint32_t pllvco = 0U;
 800298c:	2300      	movs	r3, #0
 800298e:	63fb      	str	r3, [r7, #60]	@ 0x3c
  uint32_t pllp = 0U;
 8002990:	2300      	movs	r3, #0
 8002992:	633b      	str	r3, [r7, #48]	@ 0x30
  uint32_t sysclockfreq = 0U;
 8002994:	2300      	movs	r3, #0
 8002996:	63bb      	str	r3, [r7, #56]	@ 0x38

  /* Get SYSCLK source -------------------------------------------------------*/
  switch (RCC->CFGR & RCC_CFGR_SWS)
 8002998:	4b59      	ldr	r3, [pc, #356]	@ (8002b00 <HAL_RCC_GetSysClockFreq+0x180>)
 800299a:	689b      	ldr	r3, [r3, #8]
 800299c:	f003 030c 	and.w	r3, r3, #12
 80029a0:	2b08      	cmp	r3, #8
 80029a2:	d00d      	beq.n	80029c0 <HAL_RCC_GetSysClockFreq+0x40>
 80029a4:	2b08      	cmp	r3, #8
 80029a6:	f200 80a1 	bhi.w	8002aec <HAL_RCC_GetSysClockFreq+0x16c>
 80029aa:	2b00      	cmp	r3, #0
 80029ac:	d002      	beq.n	80029b4 <HAL_RCC_GetSysClockFreq+0x34>
 80029ae:	2b04      	cmp	r3, #4
 80029b0:	d003      	beq.n	80029ba <HAL_RCC_GetSysClockFreq+0x3a>
 80029b2:	e09b      	b.n	8002aec <HAL_RCC_GetSysClockFreq+0x16c>
  {
    case RCC_CFGR_SWS_HSI:  /* HSI used as system clock source */
    {
      sysclockfreq = HSI_VALUE;
 80029b4:	4b53      	ldr	r3, [pc, #332]	@ (8002b04 <HAL_RCC_GetSysClockFreq+0x184>)
 80029b6:	63bb      	str	r3, [r7, #56]	@ 0x38
      break;
 80029b8:	e09b      	b.n	8002af2 <HAL_RCC_GetSysClockFreq+0x172>
    }
    case RCC_CFGR_SWS_HSE:  /* HSE used as system clock  source */
    {
      sysclockfreq = HSE_VALUE;
 80029ba:	4b53      	ldr	r3, [pc, #332]	@ (8002b08 <HAL_RCC_GetSysClockFreq+0x188>)
 80029bc:	63bb      	str	r3, [r7, #56]	@ 0x38
      break;
 80029be:	e098      	b.n	8002af2 <HAL_RCC_GetSysClockFreq+0x172>
    }
    case RCC_CFGR_SWS_PLL:  /* PLL used as system clock  source */
    {
      /* PLL_VCO = (HSE_VALUE or HSI_VALUE / PLLM) * PLLN
      SYSCLK = PLL_VCO / PLLP */
      pllm = RCC->PLLCFGR & RCC_PLLCFGR_PLLM;
 80029c0:	4b4f      	ldr	r3, [pc, #316]	@ (8002b00 <HAL_RCC_GetSysClockFreq+0x180>)
 80029c2:	685b      	ldr	r3, [r3, #4]
 80029c4:	f003 033f 	and.w	r3, r3, #63	@ 0x3f
 80029c8:	637b      	str	r3, [r7, #52]	@ 0x34
      if (__HAL_RCC_GET_PLL_OSCSOURCE() != RCC_PLLSOURCE_HSI)
 80029ca:	4b4d      	ldr	r3, [pc, #308]	@ (8002b00 <HAL_RCC_GetSysClockFreq+0x180>)
 80029cc:	685b      	ldr	r3, [r3, #4]
 80029ce:	f403 0380 	and.w	r3, r3, #4194304	@ 0x400000
 80029d2:	2b00      	cmp	r3, #0
 80029d4:	d028      	beq.n	8002a28 <HAL_RCC_GetSysClockFreq+0xa8>
      {
        /* HSE used as PLL clock source */
        pllvco = (uint32_t)((((uint64_t) HSE_VALUE * ((uint64_t)((RCC->PLLCFGR & RCC_PLLCFGR_PLLN) >> RCC_PLLCFGR_PLLN_Pos)))) / (uint64_t)pllm);
 80029d6:	4b4a      	ldr	r3, [pc, #296]	@ (8002b00 <HAL_RCC_GetSysClockFreq+0x180>)
 80029d8:	685b      	ldr	r3, [r3, #4]
 80029da:	099b      	lsrs	r3, r3, #6
 80029dc:	2200      	movs	r2, #0
 80029de:	623b      	str	r3, [r7, #32]
 80029e0:	627a      	str	r2, [r7, #36]	@ 0x24
 80029e2:	6a3b      	ldr	r3, [r7, #32]
 80029e4:	f3c3 0008 	ubfx	r0, r3, #0, #9
 80029e8:	2100      	movs	r1, #0
 80029ea:	4b47      	ldr	r3, [pc, #284]	@ (8002b08 <HAL_RCC_GetSysClockFreq+0x188>)
 80029ec:	fb03 f201 	mul.w	r2, r3, r1
 80029f0:	2300      	movs	r3, #0
 80029f2:	fb00 f303 	mul.w	r3, r0, r3
 80029f6:	4413      	add	r3, r2
 80029f8:	4a43      	ldr	r2, [pc, #268]	@ (8002b08 <HAL_RCC_GetSysClockFreq+0x188>)
 80029fa:	fba0 1202 	umull	r1, r2, r0, r2
 80029fe:	62fa      	str	r2, [r7, #44]	@ 0x2c
 8002a00:	460a      	mov	r2, r1
 8002a02:	62ba      	str	r2, [r7, #40]	@ 0x28
 8002a04:	6afa      	ldr	r2, [r7, #44]	@ 0x2c
 8002a06:	4413      	add	r3, r2
 8002a08:	62fb      	str	r3, [r7, #44]	@ 0x2c
 8002a0a:	6b7b      	ldr	r3, [r7, #52]	@ 0x34
 8002a0c:	2200      	movs	r2, #0
 8002a0e:	61bb      	str	r3, [r7, #24]
 8002a10:	61fa      	str	r2, [r7, #28]
 8002a12:	e9d7 2306 	ldrd	r2, r3, [r7, #24]
 8002a16:	e9d7 010a 	ldrd	r0, r1, [r7, #40]	@ 0x28
 8002a1a:	f7fd fc31 	bl	8000280 <__aeabi_uldivmod>
 8002a1e:	4602      	mov	r2, r0
 8002a20:	460b      	mov	r3, r1
 8002a22:	4613      	mov	r3, r2
 8002a24:	63fb      	str	r3, [r7, #60]	@ 0x3c
 8002a26:	e053      	b.n	8002ad0 <HAL_RCC_GetSysClockFreq+0x150>
      }
      else
      {
        /* HSI used as PLL clock source */
        pllvco = (uint32_t)((((uint64_t) HSI_VALUE * ((uint64_t)((RCC->PLLCFGR & RCC_PLLCFGR_PLLN) >> RCC_PLLCFGR_PLLN_Pos)))) / (uint64_t)pllm);
 8002a28:	4b35      	ldr	r3, [pc, #212]	@ (8002b00 <HAL_RCC_GetSysClockFreq+0x180>)
 8002a2a:	685b      	ldr	r3, [r3, #4]
 8002a2c:	099b      	lsrs	r3, r3, #6
 8002a2e:	2200      	movs	r2, #0
 8002a30:	613b      	str	r3, [r7, #16]
 8002a32:	617a      	str	r2, [r7, #20]
 8002a34:	693b      	ldr	r3, [r7, #16]
 8002a36:	f3c3 0a08 	ubfx	sl, r3, #0, #9
 8002a3a:	f04f 0b00 	mov.w	fp, #0
 8002a3e:	4652      	mov	r2, sl
 8002a40:	465b      	mov	r3, fp
 8002a42:	f04f 0000 	mov.w	r0, #0
 8002a46:	f04f 0100 	mov.w	r1, #0
 8002a4a:	0159      	lsls	r1, r3, #5
 8002a4c:	ea41 61d2 	orr.w	r1, r1, r2, lsr #27
 8002a50:	0150      	lsls	r0, r2, #5
 8002a52:	4602      	mov	r2, r0
 8002a54:	460b      	mov	r3, r1
 8002a56:	ebb2 080a 	subs.w	r8, r2, sl
 8002a5a:	eb63 090b 	sbc.w	r9, r3, fp
 8002a5e:	f04f 0200 	mov.w	r2, #0
 8002a62:	f04f 0300 	mov.w	r3, #0
 8002a66:	ea4f 1389 	mov.w	r3, r9, lsl #6
 8002a6a:	ea43 6398 	orr.w	r3, r3, r8, lsr #26
 8002a6e:	ea4f 1288 	mov.w	r2, r8, lsl #6
 8002a72:	ebb2 0408 	subs.w	r4, r2, r8
 8002a76:	eb63 0509 	sbc.w	r5, r3, r9
 8002a7a:	f04f 0200 	mov.w	r2, #0
 8002a7e:	f04f 0300 	mov.w	r3, #0
 8002a82:	00eb      	lsls	r3, r5, #3
 8002a84:	ea43 7354 	orr.w	r3, r3, r4, lsr #29
 8002a88:	00e2      	lsls	r2, r4, #3
 8002a8a:	4614      	mov	r4, r2
 8002a8c:	461d      	mov	r5, r3
 8002a8e:	eb14 030a 	adds.w	r3, r4, sl
 8002a92:	603b      	str	r3, [r7, #0]
 8002a94:	eb45 030b 	adc.w	r3, r5, fp
 8002a98:	607b      	str	r3, [r7, #4]
 8002a9a:	f04f 0200 	mov.w	r2, #0
 8002a9e:	f04f 0300 	mov.w	r3, #0
 8002aa2:	e9d7 4500 	ldrd	r4, r5, [r7]
 8002aa6:	4629      	mov	r1, r5
 8002aa8:	028b      	lsls	r3, r1, #10
 8002aaa:	4621      	mov	r1, r4
 8002aac:	ea43 5391 	orr.w	r3, r3, r1, lsr #22
 8002ab0:	4621      	mov	r1, r4
 8002ab2:	028a      	lsls	r2, r1, #10
 8002ab4:	4610      	mov	r0, r2
 8002ab6:	4619      	mov	r1, r3
 8002ab8:	6b7b      	ldr	r3, [r7, #52]	@ 0x34
 8002aba:	2200      	movs	r2, #0
 8002abc:	60bb      	str	r3, [r7, #8]
 8002abe:	60fa      	str	r2, [r7, #12]
 8002ac0:	e9d7 2302 	ldrd	r2, r3, [r7, #8]
 8002ac4:	f7fd fbdc 	bl	8000280 <__aeabi_uldivmod>
 8002ac8:	4602      	mov	r2, r0
 8002aca:	460b      	mov	r3, r1
 8002acc:	4613      	mov	r3, r2
 8002ace:	63fb      	str	r3, [r7, #60]	@ 0x3c
      }
      pllp = ((((RCC->PLLCFGR & RCC_PLLCFGR_PLLP) >> RCC_PLLCFGR_PLLP_Pos) + 1U) * 2U);
 8002ad0:	4b0b      	ldr	r3, [pc, #44]	@ (8002b00 <HAL_RCC_GetSysClockFreq+0x180>)
 8002ad2:	685b      	ldr	r3, [r3, #4]
 8002ad4:	0c1b      	lsrs	r3, r3, #16
 8002ad6:	f003 0303 	and.w	r3, r3, #3
 8002ada:	3301      	adds	r3, #1
 8002adc:	005b      	lsls	r3, r3, #1
 8002ade:	633b      	str	r3, [r7, #48]	@ 0x30

      sysclockfreq = pllvco / pllp;
 8002ae0:	6bfa      	ldr	r2, [r7, #60]	@ 0x3c
 8002ae2:	6b3b      	ldr	r3, [r7, #48]	@ 0x30
 8002ae4:	fbb2 f3f3 	udiv	r3, r2, r3
 8002ae8:	63bb      	str	r3, [r7, #56]	@ 0x38
      break;
 8002aea:	e002      	b.n	8002af2 <HAL_RCC_GetSysClockFreq+0x172>
    }
    default:
    {
      sysclockfreq = HSI_VALUE;
 8002aec:	4b05      	ldr	r3, [pc, #20]	@ (8002b04 <HAL_RCC_GetSysClockFreq+0x184>)
 8002aee:	63bb      	str	r3, [r7, #56]	@ 0x38
      break;
 8002af0:	bf00      	nop
    }
  }
  return sysclockfreq;
 8002af2:	6bbb      	ldr	r3, [r7, #56]	@ 0x38
}
 8002af4:	4618      	mov	r0, r3
 8002af6:	3740      	adds	r7, #64	@ 0x40
 8002af8:	46bd      	mov	sp, r7
 8002afa:	e8bd 8fb0 	ldmia.w	sp!, {r4, r5, r7, r8, r9, sl, fp, pc}
 8002afe:	bf00      	nop
 8002b00:	40023800 	.word	0x40023800
 8002b04:	00f42400 	.word	0x00f42400
 8002b08:	017d7840 	.word	0x017d7840

08002b0c <HAL_RCC_GetHCLKFreq>:
  * @note   The SystemCoreClock CMSIS variable is used to store System Clock Frequency
  *         and updated within this function
  * @retval HCLK frequency
  */
uint32_t HAL_RCC_GetHCLKFreq(void)
{
 8002b0c:	b480      	push	{r7}
 8002b0e:	af00      	add	r7, sp, #0
  return SystemCoreClock;
 8002b10:	4b03      	ldr	r3, [pc, #12]	@ (8002b20 <HAL_RCC_GetHCLKFreq+0x14>)
 8002b12:	681b      	ldr	r3, [r3, #0]
}
 8002b14:	4618      	mov	r0, r3
 8002b16:	46bd      	mov	sp, r7
 8002b18:	f85d 7b04 	ldr.w	r7, [sp], #4
 8002b1c:	4770      	bx	lr
 8002b1e:	bf00      	nop
 8002b20:	20000000 	.word	0x20000000

08002b24 <HAL_RCC_GetPCLK1Freq>:
  * @note   Each time PCLK1 changes, this function must be called to update the
  *         right PCLK1 value. Otherwise, any configuration based on this function will be incorrect.
  * @retval PCLK1 frequency
  */
uint32_t HAL_RCC_GetPCLK1Freq(void)
{
 8002b24:	b580      	push	{r7, lr}
 8002b26:	af00      	add	r7, sp, #0
  /* Get HCLK source and Compute PCLK1 frequency ---------------------------*/
  return (HAL_RCC_GetHCLKFreq() >> APBPrescTable[(RCC->CFGR & RCC_CFGR_PPRE1) >> RCC_CFGR_PPRE1_Pos]);
 8002b28:	f7ff fff0 	bl	8002b0c <HAL_RCC_GetHCLKFreq>
 8002b2c:	4602      	mov	r2, r0
 8002b2e:	4b05      	ldr	r3, [pc, #20]	@ (8002b44 <HAL_RCC_GetPCLK1Freq+0x20>)
 8002b30:	689b      	ldr	r3, [r3, #8]
 8002b32:	0a9b      	lsrs	r3, r3, #10
 8002b34:	f003 0307 	and.w	r3, r3, #7
 8002b38:	4903      	ldr	r1, [pc, #12]	@ (8002b48 <HAL_RCC_GetPCLK1Freq+0x24>)
 8002b3a:	5ccb      	ldrb	r3, [r1, r3]
 8002b3c:	fa22 f303 	lsr.w	r3, r2, r3
}
 8002b40:	4618      	mov	r0, r3
 8002b42:	bd80      	pop	{r7, pc}
 8002b44:	40023800 	.word	0x40023800
 8002b48:	08003d08 	.word	0x08003d08

08002b4c <HAL_RCC_GetPCLK2Freq>:
  * @note   Each time PCLK2 changes, this function must be called to update the
  *         right PCLK2 value. Otherwise, any configuration based on this function will be incorrect.
  * @retval PCLK2 frequency
  */
uint32_t HAL_RCC_GetPCLK2Freq(void)
{
 8002b4c:	b580      	push	{r7, lr}
 8002b4e:	af00      	add	r7, sp, #0
  /* Get HCLK source and Compute PCLK2 frequency ---------------------------*/
  return (HAL_RCC_GetHCLKFreq() >> APBPrescTable[(RCC->CFGR & RCC_CFGR_PPRE2) >> RCC_CFGR_PPRE2_Pos]);
 8002b50:	f7ff ffdc 	bl	8002b0c <HAL_RCC_GetHCLKFreq>
 8002b54:	4602      	mov	r2, r0
 8002b56:	4b05      	ldr	r3, [pc, #20]	@ (8002b6c <HAL_RCC_GetPCLK2Freq+0x20>)
 8002b58:	689b      	ldr	r3, [r3, #8]
 8002b5a:	0b5b      	lsrs	r3, r3, #13
 8002b5c:	f003 0307 	and.w	r3, r3, #7
 8002b60:	4903      	ldr	r1, [pc, #12]	@ (8002b70 <HAL_RCC_GetPCLK2Freq+0x24>)
 8002b62:	5ccb      	ldrb	r3, [r1, r3]
 8002b64:	fa22 f303 	lsr.w	r3, r2, r3
}
 8002b68:	4618      	mov	r0, r3
 8002b6a:	bd80      	pop	{r7, pc}
 8002b6c:	40023800 	.word	0x40023800
 8002b70:	08003d08 	.word	0x08003d08

08002b74 <HAL_UART_Init>:
  * @param  huart  Pointer to a UART_HandleTypeDef structure that contains
  *                the configuration information for the specified UART module.
  * @retval HAL status
  */
HAL_StatusTypeDef HAL_UART_Init(UART_HandleTypeDef *huart)
{
 8002b74:	b580      	push	{r7, lr}
 8002b76:	b082      	sub	sp, #8
 8002b78:	af00      	add	r7, sp, #0
 8002b7a:	6078      	str	r0, [r7, #4]
  /* Check the UART handle allocation */
  if (huart == NULL)
 8002b7c:	687b      	ldr	r3, [r7, #4]
 8002b7e:	2b00      	cmp	r3, #0
 8002b80:	d101      	bne.n	8002b86 <HAL_UART_Init+0x12>
  {
    return HAL_ERROR;
 8002b82:	2301      	movs	r3, #1
 8002b84:	e042      	b.n	8002c0c <HAL_UART_Init+0x98>
    assert_param(IS_UART_INSTANCE(huart->Instance));
  }
  assert_param(IS_UART_WORD_LENGTH(huart->Init.WordLength));
  assert_param(IS_UART_OVERSAMPLING(huart->Init.OverSampling));

  if (huart->gState == HAL_UART_STATE_RESET)
 8002b86:	687b      	ldr	r3, [r7, #4]
 8002b88:	f893 3041 	ldrb.w	r3, [r3, #65]	@ 0x41
 8002b8c:	b2db      	uxtb	r3, r3
 8002b8e:	2b00      	cmp	r3, #0
 8002b90:	d106      	bne.n	8002ba0 <HAL_UART_Init+0x2c>
  {
    /* Allocate lock resource and initialize it */
    huart->Lock = HAL_UNLOCKED;
 8002b92:	687b      	ldr	r3, [r7, #4]
 8002b94:	2200      	movs	r2, #0
 8002b96:	f883 2040 	strb.w	r2, [r3, #64]	@ 0x40

    /* Init the low level hardware */
    huart->MspInitCallback(huart);
#else
    /* Init the low level hardware : GPIO, CLOCK */
    HAL_UART_MspInit(huart);
 8002b9a:	6878      	ldr	r0, [r7, #4]
 8002b9c:	f7fd ff50 	bl	8000a40 <HAL_UART_MspInit>
#endif /* (USE_HAL_UART_REGISTER_CALLBACKS) */
  }

  huart->gState = HAL_UART_STATE_BUSY;
 8002ba0:	687b      	ldr	r3, [r7, #4]
 8002ba2:	2224      	movs	r2, #36	@ 0x24
 8002ba4:	f883 2041 	strb.w	r2, [r3, #65]	@ 0x41

  /* Disable the peripheral */
  __HAL_UART_DISABLE(huart);
 8002ba8:	687b      	ldr	r3, [r7, #4]
 8002baa:	681b      	ldr	r3, [r3, #0]
 8002bac:	68da      	ldr	r2, [r3, #12]
 8002bae:	687b      	ldr	r3, [r7, #4]
 8002bb0:	681b      	ldr	r3, [r3, #0]
 8002bb2:	f422 5200 	bic.w	r2, r2, #8192	@ 0x2000
 8002bb6:	60da      	str	r2, [r3, #12]

  /* Set the UART Communication parameters */
  UART_SetConfig(huart);
 8002bb8:	6878      	ldr	r0, [r7, #4]
 8002bba:	f000 f973 	bl	8002ea4 <UART_SetConfig>

  /* In asynchronous mode, the following bits must be kept cleared:
     - LINEN and CLKEN bits in the USART_CR2 register,
     - SCEN, HDSEL and IREN  bits in the USART_CR3 register.*/
  CLEAR_BIT(huart->Instance->CR2, (USART_CR2_LINEN | USART_CR2_CLKEN));
 8002bbe:	687b      	ldr	r3, [r7, #4]
 8002bc0:	681b      	ldr	r3, [r3, #0]
 8002bc2:	691a      	ldr	r2, [r3, #16]
 8002bc4:	687b      	ldr	r3, [r7, #4]
 8002bc6:	681b      	ldr	r3, [r3, #0]
 8002bc8:	f422 4290 	bic.w	r2, r2, #18432	@ 0x4800
 8002bcc:	611a      	str	r2, [r3, #16]
  CLEAR_BIT(huart->Instance->CR3, (USART_CR3_SCEN | USART_CR3_HDSEL | USART_CR3_IREN));
 8002bce:	687b      	ldr	r3, [r7, #4]
 8002bd0:	681b      	ldr	r3, [r3, #0]
 8002bd2:	695a      	ldr	r2, [r3, #20]
 8002bd4:	687b      	ldr	r3, [r7, #4]
 8002bd6:	681b      	ldr	r3, [r3, #0]
 8002bd8:	f022 022a 	bic.w	r2, r2, #42	@ 0x2a
 8002bdc:	615a      	str	r2, [r3, #20]

  /* Enable the peripheral */
  __HAL_UART_ENABLE(huart);
 8002bde:	687b      	ldr	r3, [r7, #4]
 8002be0:	681b      	ldr	r3, [r3, #0]
 8002be2:	68da      	ldr	r2, [r3, #12]
 8002be4:	687b      	ldr	r3, [r7, #4]
 8002be6:	681b      	ldr	r3, [r3, #0]
 8002be8:	f442 5200 	orr.w	r2, r2, #8192	@ 0x2000
 8002bec:	60da      	str	r2, [r3, #12]

  /* Initialize the UART state */
  huart->ErrorCode = HAL_UART_ERROR_NONE;
 8002bee:	687b      	ldr	r3, [r7, #4]
 8002bf0:	2200      	movs	r2, #0
 8002bf2:	645a      	str	r2, [r3, #68]	@ 0x44
  huart->gState = HAL_UART_STATE_READY;
 8002bf4:	687b      	ldr	r3, [r7, #4]
 8002bf6:	2220      	movs	r2, #32
 8002bf8:	f883 2041 	strb.w	r2, [r3, #65]	@ 0x41
  huart->RxState = HAL_UART_STATE_READY;
 8002bfc:	687b      	ldr	r3, [r7, #4]
 8002bfe:	2220      	movs	r2, #32
 8002c00:	f883 2042 	strb.w	r2, [r3, #66]	@ 0x42
  huart->RxEventType = HAL_UART_RXEVENT_TC;
 8002c04:	687b      	ldr	r3, [r7, #4]
 8002c06:	2200      	movs	r2, #0
 8002c08:	635a      	str	r2, [r3, #52]	@ 0x34

  return HAL_OK;
 8002c0a:	2300      	movs	r3, #0
}
 8002c0c:	4618      	mov	r0, r3
 8002c0e:	3708      	adds	r7, #8
 8002c10:	46bd      	mov	sp, r7
 8002c12:	bd80      	pop	{r7, pc}

08002c14 <HAL_UART_Transmit>:
  * @param  Size  Amount of data elements (u8 or u16) to be sent
  * @param  Timeout Timeout duration
  * @retval HAL status
  */
HAL_StatusTypeDef HAL_UART_Transmit(UART_HandleTypeDef *huart, const uint8_t *pData, uint16_t Size, uint32_t Timeout)
{
 8002c14:	b580      	push	{r7, lr}
 8002c16:	b08a      	sub	sp, #40	@ 0x28
 8002c18:	af02      	add	r7, sp, #8
 8002c1a:	60f8      	str	r0, [r7, #12]
 8002c1c:	60b9      	str	r1, [r7, #8]
 8002c1e:	603b      	str	r3, [r7, #0]
 8002c20:	4613      	mov	r3, r2
 8002c22:	80fb      	strh	r3, [r7, #6]
  const uint8_t  *pdata8bits;
  const uint16_t *pdata16bits;
  uint32_t tickstart = 0U;
 8002c24:	2300      	movs	r3, #0
 8002c26:	617b      	str	r3, [r7, #20]

  /* Check that a Tx process is not already ongoing */
  if (huart->gState == HAL_UART_STATE_READY)
 8002c28:	68fb      	ldr	r3, [r7, #12]
 8002c2a:	f893 3041 	ldrb.w	r3, [r3, #65]	@ 0x41
 8002c2e:	b2db      	uxtb	r3, r3
 8002c30:	2b20      	cmp	r3, #32
 8002c32:	d175      	bne.n	8002d20 <HAL_UART_Transmit+0x10c>
  {
    if ((pData == NULL) || (Size == 0U))
 8002c34:	68bb      	ldr	r3, [r7, #8]
 8002c36:	2b00      	cmp	r3, #0
 8002c38:	d002      	beq.n	8002c40 <HAL_UART_Transmit+0x2c>
 8002c3a:	88fb      	ldrh	r3, [r7, #6]
 8002c3c:	2b00      	cmp	r3, #0
 8002c3e:	d101      	bne.n	8002c44 <HAL_UART_Transmit+0x30>
    {
      return  HAL_ERROR;
 8002c40:	2301      	movs	r3, #1
 8002c42:	e06e      	b.n	8002d22 <HAL_UART_Transmit+0x10e>
    }

    huart->ErrorCode = HAL_UART_ERROR_NONE;
 8002c44:	68fb      	ldr	r3, [r7, #12]
 8002c46:	2200      	movs	r2, #0
 8002c48:	645a      	str	r2, [r3, #68]	@ 0x44
    huart->gState = HAL_UART_STATE_BUSY_TX;
 8002c4a:	68fb      	ldr	r3, [r7, #12]
 8002c4c:	2221      	movs	r2, #33	@ 0x21
 8002c4e:	f883 2041 	strb.w	r2, [r3, #65]	@ 0x41

    /* Init tickstart for timeout management */
    tickstart = HAL_GetTick();
 8002c52:	f7fe f845 	bl	8000ce0 <HAL_GetTick>
 8002c56:	6178      	str	r0, [r7, #20]

    huart->TxXferSize = Size;
 8002c58:	68fb      	ldr	r3, [r7, #12]
 8002c5a:	88fa      	ldrh	r2, [r7, #6]
 8002c5c:	849a      	strh	r2, [r3, #36]	@ 0x24
    huart->TxXferCount = Size;
 8002c5e:	68fb      	ldr	r3, [r7, #12]
 8002c60:	88fa      	ldrh	r2, [r7, #6]
 8002c62:	84da      	strh	r2, [r3, #38]	@ 0x26

    /* In case of 9bits/No Parity transfer, pData needs to be handled as a uint16_t pointer */
    if ((huart->Init.WordLength == UART_WORDLENGTH_9B) && (huart->Init.Parity == UART_PARITY_NONE))
 8002c64:	68fb      	ldr	r3, [r7, #12]
 8002c66:	689b      	ldr	r3, [r3, #8]
 8002c68:	f5b3 5f80 	cmp.w	r3, #4096	@ 0x1000
 8002c6c:	d108      	bne.n	8002c80 <HAL_UART_Transmit+0x6c>
 8002c6e:	68fb      	ldr	r3, [r7, #12]
 8002c70:	691b      	ldr	r3, [r3, #16]
 8002c72:	2b00      	cmp	r3, #0
 8002c74:	d104      	bne.n	8002c80 <HAL_UART_Transmit+0x6c>
    {
      pdata8bits  = NULL;
 8002c76:	2300      	movs	r3, #0
 8002c78:	61fb      	str	r3, [r7, #28]
      pdata16bits = (const uint16_t *) pData;
 8002c7a:	68bb      	ldr	r3, [r7, #8]
 8002c7c:	61bb      	str	r3, [r7, #24]
 8002c7e:	e003      	b.n	8002c88 <HAL_UART_Transmit+0x74>
    }
    else
    {
      pdata8bits  = pData;
 8002c80:	68bb      	ldr	r3, [r7, #8]
 8002c82:	61fb      	str	r3, [r7, #28]
      pdata16bits = NULL;
 8002c84:	2300      	movs	r3, #0
 8002c86:	61bb      	str	r3, [r7, #24]
    }

    while (huart->TxXferCount > 0U)
 8002c88:	e02e      	b.n	8002ce8 <HAL_UART_Transmit+0xd4>
    {
      if (UART_WaitOnFlagUntilTimeout(huart, UART_FLAG_TXE, RESET, tickstart, Timeout) != HAL_OK)
 8002c8a:	683b      	ldr	r3, [r7, #0]
 8002c8c:	9300      	str	r3, [sp, #0]
 8002c8e:	697b      	ldr	r3, [r7, #20]
 8002c90:	2200      	movs	r2, #0
 8002c92:	2180      	movs	r1, #128	@ 0x80
 8002c94:	68f8      	ldr	r0, [r7, #12]
 8002c96:	f000 f848 	bl	8002d2a <UART_WaitOnFlagUntilTimeout>
 8002c9a:	4603      	mov	r3, r0
 8002c9c:	2b00      	cmp	r3, #0
 8002c9e:	d005      	beq.n	8002cac <HAL_UART_Transmit+0x98>
      {
        huart->gState = HAL_UART_STATE_READY;
 8002ca0:	68fb      	ldr	r3, [r7, #12]
 8002ca2:	2220      	movs	r2, #32
 8002ca4:	f883 2041 	strb.w	r2, [r3, #65]	@ 0x41

        return HAL_TIMEOUT;
 8002ca8:	2303      	movs	r3, #3
 8002caa:	e03a      	b.n	8002d22 <HAL_UART_Transmit+0x10e>
      }
      if (pdata8bits == NULL)
 8002cac:	69fb      	ldr	r3, [r7, #28]
 8002cae:	2b00      	cmp	r3, #0
 8002cb0:	d10b      	bne.n	8002cca <HAL_UART_Transmit+0xb6>
      {
        huart->Instance->DR = (uint16_t)(*pdata16bits & 0x01FFU);
 8002cb2:	69bb      	ldr	r3, [r7, #24]
 8002cb4:	881b      	ldrh	r3, [r3, #0]
 8002cb6:	461a      	mov	r2, r3
 8002cb8:	68fb      	ldr	r3, [r7, #12]
 8002cba:	681b      	ldr	r3, [r3, #0]
 8002cbc:	f3c2 0208 	ubfx	r2, r2, #0, #9
 8002cc0:	605a      	str	r2, [r3, #4]
        pdata16bits++;
 8002cc2:	69bb      	ldr	r3, [r7, #24]
 8002cc4:	3302      	adds	r3, #2
 8002cc6:	61bb      	str	r3, [r7, #24]
 8002cc8:	e007      	b.n	8002cda <HAL_UART_Transmit+0xc6>
      }
      else
      {
        huart->Instance->DR = (uint8_t)(*pdata8bits & 0xFFU);
 8002cca:	69fb      	ldr	r3, [r7, #28]
 8002ccc:	781a      	ldrb	r2, [r3, #0]
 8002cce:	68fb      	ldr	r3, [r7, #12]
 8002cd0:	681b      	ldr	r3, [r3, #0]
 8002cd2:	605a      	str	r2, [r3, #4]
        pdata8bits++;
 8002cd4:	69fb      	ldr	r3, [r7, #28]
 8002cd6:	3301      	adds	r3, #1
 8002cd8:	61fb      	str	r3, [r7, #28]
      }
      huart->TxXferCount--;
 8002cda:	68fb      	ldr	r3, [r7, #12]
 8002cdc:	8cdb      	ldrh	r3, [r3, #38]	@ 0x26
 8002cde:	b29b      	uxth	r3, r3
 8002ce0:	3b01      	subs	r3, #1
 8002ce2:	b29a      	uxth	r2, r3
 8002ce4:	68fb      	ldr	r3, [r7, #12]
 8002ce6:	84da      	strh	r2, [r3, #38]	@ 0x26
    while (huart->TxXferCount > 0U)
 8002ce8:	68fb      	ldr	r3, [r7, #12]
 8002cea:	8cdb      	ldrh	r3, [r3, #38]	@ 0x26
 8002cec:	b29b      	uxth	r3, r3
 8002cee:	2b00      	cmp	r3, #0
 8002cf0:	d1cb      	bne.n	8002c8a <HAL_UART_Transmit+0x76>
    }

    if (UART_WaitOnFlagUntilTimeout(huart, UART_FLAG_TC, RESET, tickstart, Timeout) != HAL_OK)
 8002cf2:	683b      	ldr	r3, [r7, #0]
 8002cf4:	9300      	str	r3, [sp, #0]
 8002cf6:	697b      	ldr	r3, [r7, #20]
 8002cf8:	2200      	movs	r2, #0
 8002cfa:	2140      	movs	r1, #64	@ 0x40
 8002cfc:	68f8      	ldr	r0, [r7, #12]
 8002cfe:	f000 f814 	bl	8002d2a <UART_WaitOnFlagUntilTimeout>
 8002d02:	4603      	mov	r3, r0
 8002d04:	2b00      	cmp	r3, #0
 8002d06:	d005      	beq.n	8002d14 <HAL_UART_Transmit+0x100>
    {
      huart->gState = HAL_UART_STATE_READY;
 8002d08:	68fb      	ldr	r3, [r7, #12]
 8002d0a:	2220      	movs	r2, #32
 8002d0c:	f883 2041 	strb.w	r2, [r3, #65]	@ 0x41

      return HAL_TIMEOUT;
 8002d10:	2303      	movs	r3, #3
 8002d12:	e006      	b.n	8002d22 <HAL_UART_Transmit+0x10e>
    }

    /* At end of Tx process, restore huart->gState to Ready */
    huart->gState = HAL_UART_STATE_READY;
 8002d14:	68fb      	ldr	r3, [r7, #12]
 8002d16:	2220      	movs	r2, #32
 8002d18:	f883 2041 	strb.w	r2, [r3, #65]	@ 0x41

    return HAL_OK;
 8002d1c:	2300      	movs	r3, #0
 8002d1e:	e000      	b.n	8002d22 <HAL_UART_Transmit+0x10e>
  }
  else
  {
    return HAL_BUSY;
 8002d20:	2302      	movs	r3, #2
  }
}
 8002d22:	4618      	mov	r0, r3
 8002d24:	3720      	adds	r7, #32
 8002d26:	46bd      	mov	sp, r7
 8002d28:	bd80      	pop	{r7, pc}

08002d2a <UART_WaitOnFlagUntilTimeout>:
  * @param  Timeout Timeout duration
  * @retval HAL status
  */
static HAL_StatusTypeDef UART_WaitOnFlagUntilTimeout(UART_HandleTypeDef *huart, uint32_t Flag, FlagStatus Status,
                                                     uint32_t Tickstart, uint32_t Timeout)
{
 8002d2a:	b580      	push	{r7, lr}
 8002d2c:	b086      	sub	sp, #24
 8002d2e:	af00      	add	r7, sp, #0
 8002d30:	60f8      	str	r0, [r7, #12]
 8002d32:	60b9      	str	r1, [r7, #8]
 8002d34:	603b      	str	r3, [r7, #0]
 8002d36:	4613      	mov	r3, r2
 8002d38:	71fb      	strb	r3, [r7, #7]
  /* Wait until flag is set */
  while ((__HAL_UART_GET_FLAG(huart, Flag) ? SET : RESET) == Status)
 8002d3a:	e03b      	b.n	8002db4 <UART_WaitOnFlagUntilTimeout+0x8a>
  {
    /* Check for the Timeout */
    if (Timeout != HAL_MAX_DELAY)
 8002d3c:	6a3b      	ldr	r3, [r7, #32]
 8002d3e:	f1b3 3fff 	cmp.w	r3, #4294967295
 8002d42:	d037      	beq.n	8002db4 <UART_WaitOnFlagUntilTimeout+0x8a>
    {
      if (((HAL_GetTick() - Tickstart) > Timeout) || (Timeout == 0U))
 8002d44:	f7fd ffcc 	bl	8000ce0 <HAL_GetTick>
 8002d48:	4602      	mov	r2, r0
 8002d4a:	683b      	ldr	r3, [r7, #0]
 8002d4c:	1ad3      	subs	r3, r2, r3
 8002d4e:	6a3a      	ldr	r2, [r7, #32]
 8002d50:	429a      	cmp	r2, r3
 8002d52:	d302      	bcc.n	8002d5a <UART_WaitOnFlagUntilTimeout+0x30>
 8002d54:	6a3b      	ldr	r3, [r7, #32]
 8002d56:	2b00      	cmp	r3, #0
 8002d58:	d101      	bne.n	8002d5e <UART_WaitOnFlagUntilTimeout+0x34>
      {

        return HAL_TIMEOUT;
 8002d5a:	2303      	movs	r3, #3
 8002d5c:	e03a      	b.n	8002dd4 <UART_WaitOnFlagUntilTimeout+0xaa>
      }

      if ((READ_BIT(huart->Instance->CR1, USART_CR1_RE) != 0U) && (Flag != UART_FLAG_TXE) && (Flag != UART_FLAG_TC))
 8002d5e:	68fb      	ldr	r3, [r7, #12]
 8002d60:	681b      	ldr	r3, [r3, #0]
 8002d62:	68db      	ldr	r3, [r3, #12]
 8002d64:	f003 0304 	and.w	r3, r3, #4
 8002d68:	2b00      	cmp	r3, #0
 8002d6a:	d023      	beq.n	8002db4 <UART_WaitOnFlagUntilTimeout+0x8a>
 8002d6c:	68bb      	ldr	r3, [r7, #8]
 8002d6e:	2b80      	cmp	r3, #128	@ 0x80
 8002d70:	d020      	beq.n	8002db4 <UART_WaitOnFlagUntilTimeout+0x8a>
 8002d72:	68bb      	ldr	r3, [r7, #8]
 8002d74:	2b40      	cmp	r3, #64	@ 0x40
 8002d76:	d01d      	beq.n	8002db4 <UART_WaitOnFlagUntilTimeout+0x8a>
      {
        if (__HAL_UART_GET_FLAG(huart, UART_FLAG_ORE) == SET)
 8002d78:	68fb      	ldr	r3, [r7, #12]
 8002d7a:	681b      	ldr	r3, [r3, #0]
 8002d7c:	681b      	ldr	r3, [r3, #0]
 8002d7e:	f003 0308 	and.w	r3, r3, #8
 8002d82:	2b08      	cmp	r3, #8
 8002d84:	d116      	bne.n	8002db4 <UART_WaitOnFlagUntilTimeout+0x8a>
        {
          /* Clear Overrun Error flag*/
          __HAL_UART_CLEAR_OREFLAG(huart);
 8002d86:	2300      	movs	r3, #0
 8002d88:	617b      	str	r3, [r7, #20]
 8002d8a:	68fb      	ldr	r3, [r7, #12]
 8002d8c:	681b      	ldr	r3, [r3, #0]
 8002d8e:	681b      	ldr	r3, [r3, #0]
 8002d90:	617b      	str	r3, [r7, #20]
 8002d92:	68fb      	ldr	r3, [r7, #12]
 8002d94:	681b      	ldr	r3, [r3, #0]
 8002d96:	685b      	ldr	r3, [r3, #4]
 8002d98:	617b      	str	r3, [r7, #20]
 8002d9a:	697b      	ldr	r3, [r7, #20]

          /* Blocking error : transfer is aborted
          Set the UART state ready to be able to start again the process,
          Disable Rx Interrupts if ongoing */
          UART_EndRxTransfer(huart);
 8002d9c:	68f8      	ldr	r0, [r7, #12]
 8002d9e:	f000 f81d 	bl	8002ddc <UART_EndRxTransfer>

          huart->ErrorCode = HAL_UART_ERROR_ORE;
 8002da2:	68fb      	ldr	r3, [r7, #12]
 8002da4:	2208      	movs	r2, #8
 8002da6:	645a      	str	r2, [r3, #68]	@ 0x44

          /* Process Unlocked */
          __HAL_UNLOCK(huart);
 8002da8:	68fb      	ldr	r3, [r7, #12]
 8002daa:	2200      	movs	r2, #0
 8002dac:	f883 2040 	strb.w	r2, [r3, #64]	@ 0x40

          return HAL_ERROR;
 8002db0:	2301      	movs	r3, #1
 8002db2:	e00f      	b.n	8002dd4 <UART_WaitOnFlagUntilTimeout+0xaa>
  while ((__HAL_UART_GET_FLAG(huart, Flag) ? SET : RESET) == Status)
 8002db4:	68fb      	ldr	r3, [r7, #12]
 8002db6:	681b      	ldr	r3, [r3, #0]
 8002db8:	681a      	ldr	r2, [r3, #0]
 8002dba:	68bb      	ldr	r3, [r7, #8]
 8002dbc:	4013      	ands	r3, r2
 8002dbe:	68ba      	ldr	r2, [r7, #8]
 8002dc0:	429a      	cmp	r2, r3
 8002dc2:	bf0c      	ite	eq
 8002dc4:	2301      	moveq	r3, #1
 8002dc6:	2300      	movne	r3, #0
 8002dc8:	b2db      	uxtb	r3, r3
 8002dca:	461a      	mov	r2, r3
 8002dcc:	79fb      	ldrb	r3, [r7, #7]
 8002dce:	429a      	cmp	r2, r3
 8002dd0:	d0b4      	beq.n	8002d3c <UART_WaitOnFlagUntilTimeout+0x12>
        }
      }
    }
  }
  return HAL_OK;
 8002dd2:	2300      	movs	r3, #0
}
 8002dd4:	4618      	mov	r0, r3
 8002dd6:	3718      	adds	r7, #24
 8002dd8:	46bd      	mov	sp, r7
 8002dda:	bd80      	pop	{r7, pc}

08002ddc <UART_EndRxTransfer>:
  * @brief  End ongoing Rx transfer on UART peripheral (following error detection or Reception completion).
  * @param  huart UART handle.
  * @retval None
  */
static void UART_EndRxTransfer(UART_HandleTypeDef *huart)
{
 8002ddc:	b480      	push	{r7}
 8002dde:	b095      	sub	sp, #84	@ 0x54
 8002de0:	af00      	add	r7, sp, #0
 8002de2:	6078      	str	r0, [r7, #4]
  /* Disable RXNE, PE and ERR (Frame error, noise error, overrun error) interrupts */
  ATOMIC_CLEAR_BIT(huart->Instance->CR1, (USART_CR1_RXNEIE | USART_CR1_PEIE));
 8002de4:	687b      	ldr	r3, [r7, #4]
 8002de6:	681b      	ldr	r3, [r3, #0]
 8002de8:	330c      	adds	r3, #12
 8002dea:	637b      	str	r3, [r7, #52]	@ 0x34
   __ASM volatile ("ldrex %0, %1" : "=r" (result) : "Q" (*addr) );
 8002dec:	6b7b      	ldr	r3, [r7, #52]	@ 0x34
 8002dee:	e853 3f00 	ldrex	r3, [r3]
 8002df2:	633b      	str	r3, [r7, #48]	@ 0x30
   return(result);
 8002df4:	6b3b      	ldr	r3, [r7, #48]	@ 0x30
 8002df6:	f423 7390 	bic.w	r3, r3, #288	@ 0x120
 8002dfa:	64fb      	str	r3, [r7, #76]	@ 0x4c
 8002dfc:	687b      	ldr	r3, [r7, #4]
 8002dfe:	681b      	ldr	r3, [r3, #0]
 8002e00:	330c      	adds	r3, #12
 8002e02:	6cfa      	ldr	r2, [r7, #76]	@ 0x4c
 8002e04:	643a      	str	r2, [r7, #64]	@ 0x40
 8002e06:	63fb      	str	r3, [r7, #60]	@ 0x3c
   __ASM volatile ("strex %0, %2, %1" : "=&r" (result), "=Q" (*addr) : "r" (value) );
 8002e08:	6bf9      	ldr	r1, [r7, #60]	@ 0x3c
 8002e0a:	6c3a      	ldr	r2, [r7, #64]	@ 0x40
 8002e0c:	e841 2300 	strex	r3, r2, [r1]
 8002e10:	63bb      	str	r3, [r7, #56]	@ 0x38
   return(result);
 8002e12:	6bbb      	ldr	r3, [r7, #56]	@ 0x38
 8002e14:	2b00      	cmp	r3, #0
 8002e16:	d1e5      	bne.n	8002de4 <UART_EndRxTransfer+0x8>
  ATOMIC_CLEAR_BIT(huart->Instance->CR3, USART_CR3_EIE);
 8002e18:	687b      	ldr	r3, [r7, #4]
 8002e1a:	681b      	ldr	r3, [r3, #0]
 8002e1c:	3314      	adds	r3, #20
 8002e1e:	623b      	str	r3, [r7, #32]
   __ASM volatile ("ldrex %0, %1" : "=r" (result) : "Q" (*addr) );
 8002e20:	6a3b      	ldr	r3, [r7, #32]
 8002e22:	e853 3f00 	ldrex	r3, [r3]
 8002e26:	61fb      	str	r3, [r7, #28]
   return(result);
 8002e28:	69fb      	ldr	r3, [r7, #28]
 8002e2a:	f023 0301 	bic.w	r3, r3, #1
 8002e2e:	64bb      	str	r3, [r7, #72]	@ 0x48
 8002e30:	687b      	ldr	r3, [r7, #4]
 8002e32:	681b      	ldr	r3, [r3, #0]
 8002e34:	3314      	adds	r3, #20
 8002e36:	6cba      	ldr	r2, [r7, #72]	@ 0x48
 8002e38:	62fa      	str	r2, [r7, #44]	@ 0x2c
 8002e3a:	62bb      	str	r3, [r7, #40]	@ 0x28
   __ASM volatile ("strex %0, %2, %1" : "=&r" (result), "=Q" (*addr) : "r" (value) );
 8002e3c:	6ab9      	ldr	r1, [r7, #40]	@ 0x28
 8002e3e:	6afa      	ldr	r2, [r7, #44]	@ 0x2c
 8002e40:	e841 2300 	strex	r3, r2, [r1]
 8002e44:	627b      	str	r3, [r7, #36]	@ 0x24
   return(result);
 8002e46:	6a7b      	ldr	r3, [r7, #36]	@ 0x24
 8002e48:	2b00      	cmp	r3, #0
 8002e4a:	d1e5      	bne.n	8002e18 <UART_EndRxTransfer+0x3c>

  /* In case of reception waiting for IDLE event, disable also the IDLE IE interrupt source */
  if (huart->ReceptionType == HAL_UART_RECEPTION_TOIDLE)
 8002e4c:	687b      	ldr	r3, [r7, #4]
 8002e4e:	6b1b      	ldr	r3, [r3, #48]	@ 0x30
 8002e50:	2b01      	cmp	r3, #1
 8002e52:	d119      	bne.n	8002e88 <UART_EndRxTransfer+0xac>
  {
    ATOMIC_CLEAR_BIT(huart->Instance->CR1, USART_CR1_IDLEIE);
 8002e54:	687b      	ldr	r3, [r7, #4]
 8002e56:	681b      	ldr	r3, [r3, #0]
 8002e58:	330c      	adds	r3, #12
 8002e5a:	60fb      	str	r3, [r7, #12]
   __ASM volatile ("ldrex %0, %1" : "=r" (result) : "Q" (*addr) );
 8002e5c:	68fb      	ldr	r3, [r7, #12]
 8002e5e:	e853 3f00 	ldrex	r3, [r3]
 8002e62:	60bb      	str	r3, [r7, #8]
   return(result);
 8002e64:	68bb      	ldr	r3, [r7, #8]
 8002e66:	f023 0310 	bic.w	r3, r3, #16
 8002e6a:	647b      	str	r3, [r7, #68]	@ 0x44
 8002e6c:	687b      	ldr	r3, [r7, #4]
 8002e6e:	681b      	ldr	r3, [r3, #0]
 8002e70:	330c      	adds	r3, #12
 8002e72:	6c7a      	ldr	r2, [r7, #68]	@ 0x44
 8002e74:	61ba      	str	r2, [r7, #24]
 8002e76:	617b      	str	r3, [r7, #20]
   __ASM volatile ("strex %0, %2, %1" : "=&r" (result), "=Q" (*addr) : "r" (value) );
 8002e78:	6979      	ldr	r1, [r7, #20]
 8002e7a:	69ba      	ldr	r2, [r7, #24]
 8002e7c:	e841 2300 	strex	r3, r2, [r1]
 8002e80:	613b      	str	r3, [r7, #16]
   return(result);
 8002e82:	693b      	ldr	r3, [r7, #16]
 8002e84:	2b00      	cmp	r3, #0
 8002e86:	d1e5      	bne.n	8002e54 <UART_EndRxTransfer+0x78>
  }

  /* At end of Rx process, restore huart->RxState to Ready */
  huart->RxState = HAL_UART_STATE_READY;
 8002e88:	687b      	ldr	r3, [r7, #4]
 8002e8a:	2220      	movs	r2, #32
 8002e8c:	f883 2042 	strb.w	r2, [r3, #66]	@ 0x42
  huart->ReceptionType = HAL_UART_RECEPTION_STANDARD;
 8002e90:	687b      	ldr	r3, [r7, #4]
 8002e92:	2200      	movs	r2, #0
 8002e94:	631a      	str	r2, [r3, #48]	@ 0x30
}
 8002e96:	bf00      	nop
 8002e98:	3754      	adds	r7, #84	@ 0x54
 8002e9a:	46bd      	mov	sp, r7
 8002e9c:	f85d 7b04 	ldr.w	r7, [sp], #4
 8002ea0:	4770      	bx	lr
	...

08002ea4 <UART_SetConfig>:
  * @param  huart  Pointer to a UART_HandleTypeDef structure that contains
  *                the configuration information for the specified UART module.
  * @retval None
  */
static void UART_SetConfig(UART_HandleTypeDef *huart)
{
 8002ea4:	e92d 4fb0 	stmdb	sp!, {r4, r5, r7, r8, r9, sl, fp, lr}
 8002ea8:	b0c0      	sub	sp, #256	@ 0x100
 8002eaa:	af00      	add	r7, sp, #0
 8002eac:	f8c7 00f4 	str.w	r0, [r7, #244]	@ 0xf4
  assert_param(IS_UART_MODE(huart->Init.Mode));

  /*-------------------------- USART CR2 Configuration -----------------------*/
  /* Configure the UART Stop Bits: Set STOP[13:12] bits
     according to huart->Init.StopBits value */
  MODIFY_REG(huart->Instance->CR2, USART_CR2_STOP, huart->Init.StopBits);
 8002eb0:	f8d7 30f4 	ldr.w	r3, [r7, #244]	@ 0xf4
 8002eb4:	681b      	ldr	r3, [r3, #0]
 8002eb6:	691b      	ldr	r3, [r3, #16]
 8002eb8:	f423 5040 	bic.w	r0, r3, #12288	@ 0x3000
 8002ebc:	f8d7 30f4 	ldr.w	r3, [r7, #244]	@ 0xf4
 8002ec0:	68d9      	ldr	r1, [r3, #12]
 8002ec2:	f8d7 30f4 	ldr.w	r3, [r7, #244]	@ 0xf4
 8002ec6:	681a      	ldr	r2, [r3, #0]
 8002ec8:	ea40 0301 	orr.w	r3, r0, r1
 8002ecc:	6113      	str	r3, [r2, #16]
     Set the M bits according to huart->Init.WordLength value
     Set PCE and PS bits according to huart->Init.Parity value
     Set TE and RE bits according to huart->Init.Mode value
     Set OVER8 bit according to huart->Init.OverSampling value */

  tmpreg = (uint32_t)huart->Init.WordLength | huart->Init.Parity | huart->Init.Mode | huart->Init.OverSampling;
 8002ece:	f8d7 30f4 	ldr.w	r3, [r7, #244]	@ 0xf4
 8002ed2:	689a      	ldr	r2, [r3, #8]
 8002ed4:	f8d7 30f4 	ldr.w	r3, [r7, #244]	@ 0xf4
 8002ed8:	691b      	ldr	r3, [r3, #16]
 8002eda:	431a      	orrs	r2, r3
 8002edc:	f8d7 30f4 	ldr.w	r3, [r7, #244]	@ 0xf4
 8002ee0:	695b      	ldr	r3, [r3, #20]
 8002ee2:	431a      	orrs	r2, r3
 8002ee4:	f8d7 30f4 	ldr.w	r3, [r7, #244]	@ 0xf4
 8002ee8:	69db      	ldr	r3, [r3, #28]
 8002eea:	4313      	orrs	r3, r2
 8002eec:	f8c7 30f8 	str.w	r3, [r7, #248]	@ 0xf8
  MODIFY_REG(huart->Instance->CR1,
 8002ef0:	f8d7 30f4 	ldr.w	r3, [r7, #244]	@ 0xf4
 8002ef4:	681b      	ldr	r3, [r3, #0]
 8002ef6:	68db      	ldr	r3, [r3, #12]
 8002ef8:	f423 4116 	bic.w	r1, r3, #38400	@ 0x9600
 8002efc:	f021 010c 	bic.w	r1, r1, #12
 8002f00:	f8d7 30f4 	ldr.w	r3, [r7, #244]	@ 0xf4
 8002f04:	681a      	ldr	r2, [r3, #0]
 8002f06:	f8d7 30f8 	ldr.w	r3, [r7, #248]	@ 0xf8
 8002f0a:	430b      	orrs	r3, r1
 8002f0c:	60d3      	str	r3, [r2, #12]
             (uint32_t)(USART_CR1_M | USART_CR1_PCE | USART_CR1_PS | USART_CR1_TE | USART_CR1_RE | USART_CR1_OVER8),
             tmpreg);

  /*-------------------------- USART CR3 Configuration -----------------------*/
  /* Configure the UART HFC: Set CTSE and RTSE bits according to huart->Init.HwFlowCtl value */
  MODIFY_REG(huart->Instance->CR3, (USART_CR3_RTSE | USART_CR3_CTSE), huart->Init.HwFlowCtl);
 8002f0e:	f8d7 30f4 	ldr.w	r3, [r7, #244]	@ 0xf4
 8002f12:	681b      	ldr	r3, [r3, #0]
 8002f14:	695b      	ldr	r3, [r3, #20]
 8002f16:	f423 7040 	bic.w	r0, r3, #768	@ 0x300
 8002f1a:	f8d7 30f4 	ldr.w	r3, [r7, #244]	@ 0xf4
 8002f1e:	6999      	ldr	r1, [r3, #24]
 8002f20:	f8d7 30f4 	ldr.w	r3, [r7, #244]	@ 0xf4
 8002f24:	681a      	ldr	r2, [r3, #0]
 8002f26:	ea40 0301 	orr.w	r3, r0, r1
 8002f2a:	6153      	str	r3, [r2, #20]
    if ((huart->Instance == USART1) || (huart->Instance == USART6) || (huart->Instance == UART9) || (huart->Instance == UART10))
    {
      pclk = HAL_RCC_GetPCLK2Freq();
    }
#elif defined(USART6)
    if ((huart->Instance == USART1) || (huart->Instance == USART6))
 8002f2c:	f8d7 30f4 	ldr.w	r3, [r7, #244]	@ 0xf4
 8002f30:	681a      	ldr	r2, [r3, #0]
 8002f32:	4b8f      	ldr	r3, [pc, #572]	@ (8003170 <UART_SetConfig+0x2cc>)
 8002f34:	429a      	cmp	r2, r3
 8002f36:	d005      	beq.n	8002f44 <UART_SetConfig+0xa0>
 8002f38:	f8d7 30f4 	ldr.w	r3, [r7, #244]	@ 0xf4
 8002f3c:	681a      	ldr	r2, [r3, #0]
 8002f3e:	4b8d      	ldr	r3, [pc, #564]	@ (8003174 <UART_SetConfig+0x2d0>)
 8002f40:	429a      	cmp	r2, r3
 8002f42:	d104      	bne.n	8002f4e <UART_SetConfig+0xaa>
    {
      pclk = HAL_RCC_GetPCLK2Freq();
 8002f44:	f7ff fe02 	bl	8002b4c <HAL_RCC_GetPCLK2Freq>
 8002f48:	f8c7 00fc 	str.w	r0, [r7, #252]	@ 0xfc
 8002f4c:	e003      	b.n	8002f56 <UART_SetConfig+0xb2>
      pclk = HAL_RCC_GetPCLK2Freq();
    }
#endif /* USART6 */
    else
    {
      pclk = HAL_RCC_GetPCLK1Freq();
 8002f4e:	f7ff fde9 	bl	8002b24 <HAL_RCC_GetPCLK1Freq>
 8002f52:	f8c7 00fc 	str.w	r0, [r7, #252]	@ 0xfc
    }
  /*-------------------------- USART BRR Configuration ---------------------*/
  if (huart->Init.OverSampling == UART_OVERSAMPLING_8)
 8002f56:	f8d7 30f4 	ldr.w	r3, [r7, #244]	@ 0xf4
 8002f5a:	69db      	ldr	r3, [r3, #28]
 8002f5c:	f5b3 4f00 	cmp.w	r3, #32768	@ 0x8000
 8002f60:	f040 810c 	bne.w	800317c <UART_SetConfig+0x2d8>
  {
    huart->Instance->BRR = UART_BRR_SAMPLING8(pclk, huart->Init.BaudRate);
 8002f64:	f8d7 30fc 	ldr.w	r3, [r7, #252]	@ 0xfc
 8002f68:	2200      	movs	r2, #0
 8002f6a:	f8c7 30e8 	str.w	r3, [r7, #232]	@ 0xe8
 8002f6e:	f8c7 20ec 	str.w	r2, [r7, #236]	@ 0xec
 8002f72:	e9d7 453a 	ldrd	r4, r5, [r7, #232]	@ 0xe8
 8002f76:	4622      	mov	r2, r4
 8002f78:	462b      	mov	r3, r5
 8002f7a:	1891      	adds	r1, r2, r2
 8002f7c:	65b9      	str	r1, [r7, #88]	@ 0x58
 8002f7e:	415b      	adcs	r3, r3
 8002f80:	65fb      	str	r3, [r7, #92]	@ 0x5c
 8002f82:	e9d7 2316 	ldrd	r2, r3, [r7, #88]	@ 0x58
 8002f86:	4621      	mov	r1, r4
 8002f88:	eb12 0801 	adds.w	r8, r2, r1
 8002f8c:	4629      	mov	r1, r5
 8002f8e:	eb43 0901 	adc.w	r9, r3, r1
 8002f92:	f04f 0200 	mov.w	r2, #0
 8002f96:	f04f 0300 	mov.w	r3, #0
 8002f9a:	ea4f 03c9 	mov.w	r3, r9, lsl #3
 8002f9e:	ea43 7358 	orr.w	r3, r3, r8, lsr #29
 8002fa2:	ea4f 02c8 	mov.w	r2, r8, lsl #3
 8002fa6:	4690      	mov	r8, r2
 8002fa8:	4699      	mov	r9, r3
 8002faa:	4623      	mov	r3, r4
 8002fac:	eb18 0303 	adds.w	r3, r8, r3
 8002fb0:	f8c7 30e0 	str.w	r3, [r7, #224]	@ 0xe0
 8002fb4:	462b      	mov	r3, r5
 8002fb6:	eb49 0303 	adc.w	r3, r9, r3
 8002fba:	f8c7 30e4 	str.w	r3, [r7, #228]	@ 0xe4
 8002fbe:	f8d7 30f4 	ldr.w	r3, [r7, #244]	@ 0xf4
 8002fc2:	685b      	ldr	r3, [r3, #4]
 8002fc4:	2200      	movs	r2, #0
 8002fc6:	f8c7 30d8 	str.w	r3, [r7, #216]	@ 0xd8
 8002fca:	f8c7 20dc 	str.w	r2, [r7, #220]	@ 0xdc
 8002fce:	e9d7 1236 	ldrd	r1, r2, [r7, #216]	@ 0xd8
 8002fd2:	460b      	mov	r3, r1
 8002fd4:	18db      	adds	r3, r3, r3
 8002fd6:	653b      	str	r3, [r7, #80]	@ 0x50
 8002fd8:	4613      	mov	r3, r2
 8002fda:	eb42 0303 	adc.w	r3, r2, r3
 8002fde:	657b      	str	r3, [r7, #84]	@ 0x54
 8002fe0:	e9d7 2314 	ldrd	r2, r3, [r7, #80]	@ 0x50
 8002fe4:	e9d7 0138 	ldrd	r0, r1, [r7, #224]	@ 0xe0
 8002fe8:	f7fd f94a 	bl	8000280 <__aeabi_uldivmod>
 8002fec:	4602      	mov	r2, r0
 8002fee:	460b      	mov	r3, r1
 8002ff0:	4b61      	ldr	r3, [pc, #388]	@ (8003178 <UART_SetConfig+0x2d4>)
 8002ff2:	fba3 2302 	umull	r2, r3, r3, r2
 8002ff6:	095b      	lsrs	r3, r3, #5
 8002ff8:	011c      	lsls	r4, r3, #4
 8002ffa:	f8d7 30fc 	ldr.w	r3, [r7, #252]	@ 0xfc
 8002ffe:	2200      	movs	r2, #0
 8003000:	f8c7 30d0 	str.w	r3, [r7, #208]	@ 0xd0
 8003004:	f8c7 20d4 	str.w	r2, [r7, #212]	@ 0xd4
 8003008:	e9d7 8934 	ldrd	r8, r9, [r7, #208]	@ 0xd0
 800300c:	4642      	mov	r2, r8
 800300e:	464b      	mov	r3, r9
 8003010:	1891      	adds	r1, r2, r2
 8003012:	64b9      	str	r1, [r7, #72]	@ 0x48
 8003014:	415b      	adcs	r3, r3
 8003016:	64fb      	str	r3, [r7, #76]	@ 0x4c
 8003018:	e9d7 2312 	ldrd	r2, r3, [r7, #72]	@ 0x48
 800301c:	4641      	mov	r1, r8
 800301e:	eb12 0a01 	adds.w	sl, r2, r1
 8003022:	4649      	mov	r1, r9
 8003024:	eb43 0b01 	adc.w	fp, r3, r1
 8003028:	f04f 0200 	mov.w	r2, #0
 800302c:	f04f 0300 	mov.w	r3, #0
 8003030:	ea4f 03cb 	mov.w	r3, fp, lsl #3
 8003034:	ea43 735a 	orr.w	r3, r3, sl, lsr #29
 8003038:	ea4f 02ca 	mov.w	r2, sl, lsl #3
 800303c:	4692      	mov	sl, r2
 800303e:	469b      	mov	fp, r3
 8003040:	4643      	mov	r3, r8
 8003042:	eb1a 0303 	adds.w	r3, sl, r3
 8003046:	f8c7 30c8 	str.w	r3, [r7, #200]	@ 0xc8
 800304a:	464b      	mov	r3, r9
 800304c:	eb4b 0303 	adc.w	r3, fp, r3
 8003050:	f8c7 30cc 	str.w	r3, [r7, #204]	@ 0xcc
 8003054:	f8d7 30f4 	ldr.w	r3, [r7, #244]	@ 0xf4
 8003058:	685b      	ldr	r3, [r3, #4]
 800305a:	2200      	movs	r2, #0
 800305c:	f8c7 30c0 	str.w	r3, [r7, #192]	@ 0xc0
 8003060:	f8c7 20c4 	str.w	r2, [r7, #196]	@ 0xc4
 8003064:	e9d7 1230 	ldrd	r1, r2, [r7, #192]	@ 0xc0
 8003068:	460b      	mov	r3, r1
 800306a:	18db      	adds	r3, r3, r3
 800306c:	643b      	str	r3, [r7, #64]	@ 0x40
 800306e:	4613      	mov	r3, r2
 8003070:	eb42 0303 	adc.w	r3, r2, r3
 8003074:	647b      	str	r3, [r7, #68]	@ 0x44
 8003076:	e9d7 2310 	ldrd	r2, r3, [r7, #64]	@ 0x40
 800307a:	e9d7 0132 	ldrd	r0, r1, [r7, #200]	@ 0xc8
 800307e:	f7fd f8ff 	bl	8000280 <__aeabi_uldivmod>
 8003082:	4602      	mov	r2, r0
 8003084:	460b      	mov	r3, r1
 8003086:	4611      	mov	r1, r2
 8003088:	4b3b      	ldr	r3, [pc, #236]	@ (8003178 <UART_SetConfig+0x2d4>)
 800308a:	fba3 2301 	umull	r2, r3, r3, r1
 800308e:	095b      	lsrs	r3, r3, #5
 8003090:	2264      	movs	r2, #100	@ 0x64
 8003092:	fb02 f303 	mul.w	r3, r2, r3
 8003096:	1acb      	subs	r3, r1, r3
 8003098:	00db      	lsls	r3, r3, #3
 800309a:	f103 0232 	add.w	r2, r3, #50	@ 0x32
 800309e:	4b36      	ldr	r3, [pc, #216]	@ (8003178 <UART_SetConfig+0x2d4>)
 80030a0:	fba3 2302 	umull	r2, r3, r3, r2
 80030a4:	095b      	lsrs	r3, r3, #5
 80030a6:	005b      	lsls	r3, r3, #1
 80030a8:	f403 73f8 	and.w	r3, r3, #496	@ 0x1f0
 80030ac:	441c      	add	r4, r3
 80030ae:	f8d7 30fc 	ldr.w	r3, [r7, #252]	@ 0xfc
 80030b2:	2200      	movs	r2, #0
 80030b4:	f8c7 30b8 	str.w	r3, [r7, #184]	@ 0xb8
 80030b8:	f8c7 20bc 	str.w	r2, [r7, #188]	@ 0xbc
 80030bc:	e9d7 892e 	ldrd	r8, r9, [r7, #184]	@ 0xb8
 80030c0:	4642      	mov	r2, r8
 80030c2:	464b      	mov	r3, r9
 80030c4:	1891      	adds	r1, r2, r2
 80030c6:	63b9      	str	r1, [r7, #56]	@ 0x38
 80030c8:	415b      	adcs	r3, r3
 80030ca:	63fb      	str	r3, [r7, #60]	@ 0x3c
 80030cc:	e9d7 230e 	ldrd	r2, r3, [r7, #56]	@ 0x38
 80030d0:	4641      	mov	r1, r8
 80030d2:	1851      	adds	r1, r2, r1
 80030d4:	6339      	str	r1, [r7, #48]	@ 0x30
 80030d6:	4649      	mov	r1, r9
 80030d8:	414b      	adcs	r3, r1
 80030da:	637b      	str	r3, [r7, #52]	@ 0x34
 80030dc:	f04f 0200 	mov.w	r2, #0
 80030e0:	f04f 0300 	mov.w	r3, #0
 80030e4:	e9d7 ab0c 	ldrd	sl, fp, [r7, #48]	@ 0x30
 80030e8:	4659      	mov	r1, fp
 80030ea:	00cb      	lsls	r3, r1, #3
 80030ec:	4651      	mov	r1, sl
 80030ee:	ea43 7351 	orr.w	r3, r3, r1, lsr #29
 80030f2:	4651      	mov	r1, sl
 80030f4:	00ca      	lsls	r2, r1, #3
 80030f6:	4610      	mov	r0, r2
 80030f8:	4619      	mov	r1, r3
 80030fa:	4603      	mov	r3, r0
 80030fc:	4642      	mov	r2, r8
 80030fe:	189b      	adds	r3, r3, r2
 8003100:	f8c7 30b0 	str.w	r3, [r7, #176]	@ 0xb0
 8003104:	464b      	mov	r3, r9
 8003106:	460a      	mov	r2, r1
 8003108:	eb42 0303 	adc.w	r3, r2, r3
 800310c:	f8c7 30b4 	str.w	r3, [r7, #180]	@ 0xb4
 8003110:	f8d7 30f4 	ldr.w	r3, [r7, #244]	@ 0xf4
 8003114:	685b      	ldr	r3, [r3, #4]
 8003116:	2200      	movs	r2, #0
 8003118:	f8c7 30a8 	str.w	r3, [r7, #168]	@ 0xa8
 800311c:	f8c7 20ac 	str.w	r2, [r7, #172]	@ 0xac
 8003120:	e9d7 122a 	ldrd	r1, r2, [r7, #168]	@ 0xa8
 8003124:	460b      	mov	r3, r1
 8003126:	18db      	adds	r3, r3, r3
 8003128:	62bb      	str	r3, [r7, #40]	@ 0x28
 800312a:	4613      	mov	r3, r2
 800312c:	eb42 0303 	adc.w	r3, r2, r3
 8003130:	62fb      	str	r3, [r7, #44]	@ 0x2c
 8003132:	e9d7 230a 	ldrd	r2, r3, [r7, #40]	@ 0x28
 8003136:	e9d7 012c 	ldrd	r0, r1, [r7, #176]	@ 0xb0
 800313a:	f7fd f8a1 	bl	8000280 <__aeabi_uldivmod>
 800313e:	4602      	mov	r2, r0
 8003140:	460b      	mov	r3, r1
 8003142:	4b0d      	ldr	r3, [pc, #52]	@ (8003178 <UART_SetConfig+0x2d4>)
 8003144:	fba3 1302 	umull	r1, r3, r3, r2
 8003148:	095b      	lsrs	r3, r3, #5
 800314a:	2164      	movs	r1, #100	@ 0x64
 800314c:	fb01 f303 	mul.w	r3, r1, r3
 8003150:	1ad3      	subs	r3, r2, r3
 8003152:	00db      	lsls	r3, r3, #3
 8003154:	3332      	adds	r3, #50	@ 0x32
 8003156:	4a08      	ldr	r2, [pc, #32]	@ (8003178 <UART_SetConfig+0x2d4>)
 8003158:	fba2 2303 	umull	r2, r3, r2, r3
 800315c:	095b      	lsrs	r3, r3, #5
 800315e:	f003 0207 	and.w	r2, r3, #7
 8003162:	f8d7 30f4 	ldr.w	r3, [r7, #244]	@ 0xf4
 8003166:	681b      	ldr	r3, [r3, #0]
 8003168:	4422      	add	r2, r4
 800316a:	609a      	str	r2, [r3, #8]
  }
  else
  {
    huart->Instance->BRR = UART_BRR_SAMPLING16(pclk, huart->Init.BaudRate);
  }
}
 800316c:	e106      	b.n	800337c <UART_SetConfig+0x4d8>
 800316e:	bf00      	nop
 8003170:	40011000 	.word	0x40011000
 8003174:	40011400 	.word	0x40011400
 8003178:	51eb851f 	.word	0x51eb851f
    huart->Instance->BRR = UART_BRR_SAMPLING16(pclk, huart->Init.BaudRate);
 800317c:	f8d7 30fc 	ldr.w	r3, [r7, #252]	@ 0xfc
 8003180:	2200      	movs	r2, #0
 8003182:	f8c7 30a0 	str.w	r3, [r7, #160]	@ 0xa0
 8003186:	f8c7 20a4 	str.w	r2, [r7, #164]	@ 0xa4
 800318a:	e9d7 8928 	ldrd	r8, r9, [r7, #160]	@ 0xa0
 800318e:	4642      	mov	r2, r8
 8003190:	464b      	mov	r3, r9
 8003192:	1891      	adds	r1, r2, r2
 8003194:	6239      	str	r1, [r7, #32]
 8003196:	415b      	adcs	r3, r3
 8003198:	627b      	str	r3, [r7, #36]	@ 0x24
 800319a:	e9d7 2308 	ldrd	r2, r3, [r7, #32]
 800319e:	4641      	mov	r1, r8
 80031a0:	1854      	adds	r4, r2, r1
 80031a2:	4649      	mov	r1, r9
 80031a4:	eb43 0501 	adc.w	r5, r3, r1
 80031a8:	f04f 0200 	mov.w	r2, #0
 80031ac:	f04f 0300 	mov.w	r3, #0
 80031b0:	00eb      	lsls	r3, r5, #3
 80031b2:	ea43 7354 	orr.w	r3, r3, r4, lsr #29
 80031b6:	00e2      	lsls	r2, r4, #3
 80031b8:	4614      	mov	r4, r2
 80031ba:	461d      	mov	r5, r3
 80031bc:	4643      	mov	r3, r8
 80031be:	18e3      	adds	r3, r4, r3
 80031c0:	f8c7 3098 	str.w	r3, [r7, #152]	@ 0x98
 80031c4:	464b      	mov	r3, r9
 80031c6:	eb45 0303 	adc.w	r3, r5, r3
 80031ca:	f8c7 309c 	str.w	r3, [r7, #156]	@ 0x9c
 80031ce:	f8d7 30f4 	ldr.w	r3, [r7, #244]	@ 0xf4
 80031d2:	685b      	ldr	r3, [r3, #4]
 80031d4:	2200      	movs	r2, #0
 80031d6:	f8c7 3090 	str.w	r3, [r7, #144]	@ 0x90
 80031da:	f8c7 2094 	str.w	r2, [r7, #148]	@ 0x94
 80031de:	f04f 0200 	mov.w	r2, #0
 80031e2:	f04f 0300 	mov.w	r3, #0
 80031e6:	e9d7 4524 	ldrd	r4, r5, [r7, #144]	@ 0x90
 80031ea:	4629      	mov	r1, r5
 80031ec:	008b      	lsls	r3, r1, #2
 80031ee:	4621      	mov	r1, r4
 80031f0:	ea43 7391 	orr.w	r3, r3, r1, lsr #30
 80031f4:	4621      	mov	r1, r4
 80031f6:	008a      	lsls	r2, r1, #2
 80031f8:	e9d7 0126 	ldrd	r0, r1, [r7, #152]	@ 0x98
 80031fc:	f7fd f840 	bl	8000280 <__aeabi_uldivmod>
 8003200:	4602      	mov	r2, r0
 8003202:	460b      	mov	r3, r1
 8003204:	4b60      	ldr	r3, [pc, #384]	@ (8003388 <UART_SetConfig+0x4e4>)
 8003206:	fba3 2302 	umull	r2, r3, r3, r2
 800320a:	095b      	lsrs	r3, r3, #5
 800320c:	011c      	lsls	r4, r3, #4
 800320e:	f8d7 30fc 	ldr.w	r3, [r7, #252]	@ 0xfc
 8003212:	2200      	movs	r2, #0
 8003214:	f8c7 3088 	str.w	r3, [r7, #136]	@ 0x88
 8003218:	f8c7 208c 	str.w	r2, [r7, #140]	@ 0x8c
 800321c:	e9d7 8922 	ldrd	r8, r9, [r7, #136]	@ 0x88
 8003220:	4642      	mov	r2, r8
 8003222:	464b      	mov	r3, r9
 8003224:	1891      	adds	r1, r2, r2
 8003226:	61b9      	str	r1, [r7, #24]
 8003228:	415b      	adcs	r3, r3
 800322a:	61fb      	str	r3, [r7, #28]
 800322c:	e9d7 2306 	ldrd	r2, r3, [r7, #24]
 8003230:	4641      	mov	r1, r8
 8003232:	1851      	adds	r1, r2, r1
 8003234:	6139      	str	r1, [r7, #16]
 8003236:	4649      	mov	r1, r9
 8003238:	414b      	adcs	r3, r1
 800323a:	617b      	str	r3, [r7, #20]
 800323c:	f04f 0200 	mov.w	r2, #0
 8003240:	f04f 0300 	mov.w	r3, #0
 8003244:	e9d7 ab04 	ldrd	sl, fp, [r7, #16]
 8003248:	4659      	mov	r1, fp
 800324a:	00cb      	lsls	r3, r1, #3
 800324c:	4651      	mov	r1, sl
 800324e:	ea43 7351 	orr.w	r3, r3, r1, lsr #29
 8003252:	4651      	mov	r1, sl
 8003254:	00ca      	lsls	r2, r1, #3
 8003256:	4610      	mov	r0, r2
 8003258:	4619      	mov	r1, r3
 800325a:	4603      	mov	r3, r0
 800325c:	4642      	mov	r2, r8
 800325e:	189b      	adds	r3, r3, r2
 8003260:	f8c7 3080 	str.w	r3, [r7, #128]	@ 0x80
 8003264:	464b      	mov	r3, r9
 8003266:	460a      	mov	r2, r1
 8003268:	eb42 0303 	adc.w	r3, r2, r3
 800326c:	f8c7 3084 	str.w	r3, [r7, #132]	@ 0x84
 8003270:	f8d7 30f4 	ldr.w	r3, [r7, #244]	@ 0xf4
 8003274:	685b      	ldr	r3, [r3, #4]
 8003276:	2200      	movs	r2, #0
 8003278:	67bb      	str	r3, [r7, #120]	@ 0x78
 800327a:	67fa      	str	r2, [r7, #124]	@ 0x7c
 800327c:	f04f 0200 	mov.w	r2, #0
 8003280:	f04f 0300 	mov.w	r3, #0
 8003284:	e9d7 891e 	ldrd	r8, r9, [r7, #120]	@ 0x78
 8003288:	4649      	mov	r1, r9
 800328a:	008b      	lsls	r3, r1, #2
 800328c:	4641      	mov	r1, r8
 800328e:	ea43 7391 	orr.w	r3, r3, r1, lsr #30
 8003292:	4641      	mov	r1, r8
 8003294:	008a      	lsls	r2, r1, #2
 8003296:	e9d7 0120 	ldrd	r0, r1, [r7, #128]	@ 0x80
 800329a:	f7fc fff1 	bl	8000280 <__aeabi_uldivmod>
 800329e:	4602      	mov	r2, r0
 80032a0:	460b      	mov	r3, r1
 80032a2:	4611      	mov	r1, r2
 80032a4:	4b38      	ldr	r3, [pc, #224]	@ (8003388 <UART_SetConfig+0x4e4>)
 80032a6:	fba3 2301 	umull	r2, r3, r3, r1
 80032aa:	095b      	lsrs	r3, r3, #5
 80032ac:	2264      	movs	r2, #100	@ 0x64
 80032ae:	fb02 f303 	mul.w	r3, r2, r3
 80032b2:	1acb      	subs	r3, r1, r3
 80032b4:	011b      	lsls	r3, r3, #4
 80032b6:	3332      	adds	r3, #50	@ 0x32
 80032b8:	4a33      	ldr	r2, [pc, #204]	@ (8003388 <UART_SetConfig+0x4e4>)
 80032ba:	fba2 2303 	umull	r2, r3, r2, r3
 80032be:	095b      	lsrs	r3, r3, #5
 80032c0:	f003 03f0 	and.w	r3, r3, #240	@ 0xf0
 80032c4:	441c      	add	r4, r3
 80032c6:	f8d7 30fc 	ldr.w	r3, [r7, #252]	@ 0xfc
 80032ca:	2200      	movs	r2, #0
 80032cc:	673b      	str	r3, [r7, #112]	@ 0x70
 80032ce:	677a      	str	r2, [r7, #116]	@ 0x74
 80032d0:	e9d7 891c 	ldrd	r8, r9, [r7, #112]	@ 0x70
 80032d4:	4642      	mov	r2, r8
 80032d6:	464b      	mov	r3, r9
 80032d8:	1891      	adds	r1, r2, r2
 80032da:	60b9      	str	r1, [r7, #8]
 80032dc:	415b      	adcs	r3, r3
 80032de:	60fb      	str	r3, [r7, #12]
 80032e0:	e9d7 2302 	ldrd	r2, r3, [r7, #8]
 80032e4:	4641      	mov	r1, r8
 80032e6:	1851      	adds	r1, r2, r1
 80032e8:	6039      	str	r1, [r7, #0]
 80032ea:	4649      	mov	r1, r9
 80032ec:	414b      	adcs	r3, r1
 80032ee:	607b      	str	r3, [r7, #4]
 80032f0:	f04f 0200 	mov.w	r2, #0
 80032f4:	f04f 0300 	mov.w	r3, #0
 80032f8:	e9d7 ab00 	ldrd	sl, fp, [r7]
 80032fc:	4659      	mov	r1, fp
 80032fe:	00cb      	lsls	r3, r1, #3
 8003300:	4651      	mov	r1, sl
 8003302:	ea43 7351 	orr.w	r3, r3, r1, lsr #29
 8003306:	4651      	mov	r1, sl
 8003308:	00ca      	lsls	r2, r1, #3
 800330a:	4610      	mov	r0, r2
 800330c:	4619      	mov	r1, r3
 800330e:	4603      	mov	r3, r0
 8003310:	4642      	mov	r2, r8
 8003312:	189b      	adds	r3, r3, r2
 8003314:	66bb      	str	r3, [r7, #104]	@ 0x68
 8003316:	464b      	mov	r3, r9
 8003318:	460a      	mov	r2, r1
 800331a:	eb42 0303 	adc.w	r3, r2, r3
 800331e:	66fb      	str	r3, [r7, #108]	@ 0x6c
 8003320:	f8d7 30f4 	ldr.w	r3, [r7, #244]	@ 0xf4
 8003324:	685b      	ldr	r3, [r3, #4]
 8003326:	2200      	movs	r2, #0
 8003328:	663b      	str	r3, [r7, #96]	@ 0x60
 800332a:	667a      	str	r2, [r7, #100]	@ 0x64
 800332c:	f04f 0200 	mov.w	r2, #0
 8003330:	f04f 0300 	mov.w	r3, #0
 8003334:	e9d7 8918 	ldrd	r8, r9, [r7, #96]	@ 0x60
 8003338:	4649      	mov	r1, r9
 800333a:	008b      	lsls	r3, r1, #2
 800333c:	4641      	mov	r1, r8
 800333e:	ea43 7391 	orr.w	r3, r3, r1, lsr #30
 8003342:	4641      	mov	r1, r8
 8003344:	008a      	lsls	r2, r1, #2
 8003346:	e9d7 011a 	ldrd	r0, r1, [r7, #104]	@ 0x68
 800334a:	f7fc ff99 	bl	8000280 <__aeabi_uldivmod>
 800334e:	4602      	mov	r2, r0
 8003350:	460b      	mov	r3, r1
 8003352:	4b0d      	ldr	r3, [pc, #52]	@ (8003388 <UART_SetConfig+0x4e4>)
 8003354:	fba3 1302 	umull	r1, r3, r3, r2
 8003358:	095b      	lsrs	r3, r3, #5
 800335a:	2164      	movs	r1, #100	@ 0x64
 800335c:	fb01 f303 	mul.w	r3, r1, r3
 8003360:	1ad3      	subs	r3, r2, r3
 8003362:	011b      	lsls	r3, r3, #4
 8003364:	3332      	adds	r3, #50	@ 0x32
 8003366:	4a08      	ldr	r2, [pc, #32]	@ (8003388 <UART_SetConfig+0x4e4>)
 8003368:	fba2 2303 	umull	r2, r3, r2, r3
 800336c:	095b      	lsrs	r3, r3, #5
 800336e:	f003 020f 	and.w	r2, r3, #15
 8003372:	f8d7 30f4 	ldr.w	r3, [r7, #244]	@ 0xf4
 8003376:	681b      	ldr	r3, [r3, #0]
 8003378:	4422      	add	r2, r4
 800337a:	609a      	str	r2, [r3, #8]
}
 800337c:	bf00      	nop
 800337e:	f507 7780 	add.w	r7, r7, #256	@ 0x100
 8003382:	46bd      	mov	sp, r7
 8003384:	e8bd 8fb0 	ldmia.w	sp!, {r4, r5, r7, r8, r9, sl, fp, pc}
 8003388:	51eb851f 	.word	0x51eb851f

0800338c <siprintf>:
 800338c:	b40e      	push	{r1, r2, r3}
 800338e:	b500      	push	{lr}
 8003390:	b09c      	sub	sp, #112	@ 0x70
 8003392:	ab1d      	add	r3, sp, #116	@ 0x74
 8003394:	9002      	str	r0, [sp, #8]
 8003396:	9006      	str	r0, [sp, #24]
 8003398:	f06f 4100 	mvn.w	r1, #2147483648	@ 0x80000000
 800339c:	4809      	ldr	r0, [pc, #36]	@ (80033c4 <siprintf+0x38>)
 800339e:	9107      	str	r1, [sp, #28]
 80033a0:	9104      	str	r1, [sp, #16]
 80033a2:	4909      	ldr	r1, [pc, #36]	@ (80033c8 <siprintf+0x3c>)
 80033a4:	f853 2b04 	ldr.w	r2, [r3], #4
 80033a8:	9105      	str	r1, [sp, #20]
 80033aa:	6800      	ldr	r0, [r0, #0]
 80033ac:	9301      	str	r3, [sp, #4]
 80033ae:	a902      	add	r1, sp, #8
 80033b0:	f000 f994 	bl	80036dc <_svfiprintf_r>
 80033b4:	9b02      	ldr	r3, [sp, #8]
 80033b6:	2200      	movs	r2, #0
 80033b8:	701a      	strb	r2, [r3, #0]
 80033ba:	b01c      	add	sp, #112	@ 0x70
 80033bc:	f85d eb04 	ldr.w	lr, [sp], #4
 80033c0:	b003      	add	sp, #12
 80033c2:	4770      	bx	lr
 80033c4:	2000000c 	.word	0x2000000c
 80033c8:	ffff0208 	.word	0xffff0208

080033cc <memset>:
 80033cc:	4402      	add	r2, r0
 80033ce:	4603      	mov	r3, r0
 80033d0:	4293      	cmp	r3, r2
 80033d2:	d100      	bne.n	80033d6 <memset+0xa>
 80033d4:	4770      	bx	lr
 80033d6:	f803 1b01 	strb.w	r1, [r3], #1
 80033da:	e7f9      	b.n	80033d0 <memset+0x4>

080033dc <__errno>:
 80033dc:	4b01      	ldr	r3, [pc, #4]	@ (80033e4 <__errno+0x8>)
 80033de:	6818      	ldr	r0, [r3, #0]
 80033e0:	4770      	bx	lr
 80033e2:	bf00      	nop
 80033e4:	2000000c 	.word	0x2000000c

080033e8 <__libc_init_array>:
 80033e8:	b570      	push	{r4, r5, r6, lr}
 80033ea:	4d0d      	ldr	r5, [pc, #52]	@ (8003420 <__libc_init_array+0x38>)
 80033ec:	4c0d      	ldr	r4, [pc, #52]	@ (8003424 <__libc_init_array+0x3c>)
 80033ee:	1b64      	subs	r4, r4, r5
 80033f0:	10a4      	asrs	r4, r4, #2
 80033f2:	2600      	movs	r6, #0
 80033f4:	42a6      	cmp	r6, r4
 80033f6:	d109      	bne.n	800340c <__libc_init_array+0x24>
 80033f8:	4d0b      	ldr	r5, [pc, #44]	@ (8003428 <__libc_init_array+0x40>)
 80033fa:	4c0c      	ldr	r4, [pc, #48]	@ (800342c <__libc_init_array+0x44>)
 80033fc:	f000 fc66 	bl	8003ccc <_init>
 8003400:	1b64      	subs	r4, r4, r5
 8003402:	10a4      	asrs	r4, r4, #2
 8003404:	2600      	movs	r6, #0
 8003406:	42a6      	cmp	r6, r4
 8003408:	d105      	bne.n	8003416 <__libc_init_array+0x2e>
 800340a:	bd70      	pop	{r4, r5, r6, pc}
 800340c:	f855 3b04 	ldr.w	r3, [r5], #4
 8003410:	4798      	blx	r3
 8003412:	3601      	adds	r6, #1
 8003414:	e7ee      	b.n	80033f4 <__libc_init_array+0xc>
 8003416:	f855 3b04 	ldr.w	r3, [r5], #4
 800341a:	4798      	blx	r3
 800341c:	3601      	adds	r6, #1
 800341e:	e7f2      	b.n	8003406 <__libc_init_array+0x1e>
 8003420:	08003d4c 	.word	0x08003d4c
 8003424:	08003d4c 	.word	0x08003d4c
 8003428:	08003d4c 	.word	0x08003d4c
 800342c:	08003d50 	.word	0x08003d50

08003430 <__retarget_lock_acquire_recursive>:
 8003430:	4770      	bx	lr

08003432 <__retarget_lock_release_recursive>:
 8003432:	4770      	bx	lr

08003434 <_free_r>:
 8003434:	b538      	push	{r3, r4, r5, lr}
 8003436:	4605      	mov	r5, r0
 8003438:	2900      	cmp	r1, #0
 800343a:	d041      	beq.n	80034c0 <_free_r+0x8c>
 800343c:	f851 3c04 	ldr.w	r3, [r1, #-4]
 8003440:	1f0c      	subs	r4, r1, #4
 8003442:	2b00      	cmp	r3, #0
 8003444:	bfb8      	it	lt
 8003446:	18e4      	addlt	r4, r4, r3
 8003448:	f000 f8e0 	bl	800360c <__malloc_lock>
 800344c:	4a1d      	ldr	r2, [pc, #116]	@ (80034c4 <_free_r+0x90>)
 800344e:	6813      	ldr	r3, [r2, #0]
 8003450:	b933      	cbnz	r3, 8003460 <_free_r+0x2c>
 8003452:	6063      	str	r3, [r4, #4]
 8003454:	6014      	str	r4, [r2, #0]
 8003456:	4628      	mov	r0, r5
 8003458:	e8bd 4038 	ldmia.w	sp!, {r3, r4, r5, lr}
 800345c:	f000 b8dc 	b.w	8003618 <__malloc_unlock>
 8003460:	42a3      	cmp	r3, r4
 8003462:	d908      	bls.n	8003476 <_free_r+0x42>
 8003464:	6820      	ldr	r0, [r4, #0]
 8003466:	1821      	adds	r1, r4, r0
 8003468:	428b      	cmp	r3, r1
 800346a:	bf01      	itttt	eq
 800346c:	6819      	ldreq	r1, [r3, #0]
 800346e:	685b      	ldreq	r3, [r3, #4]
 8003470:	1809      	addeq	r1, r1, r0
 8003472:	6021      	streq	r1, [r4, #0]
 8003474:	e7ed      	b.n	8003452 <_free_r+0x1e>
 8003476:	461a      	mov	r2, r3
 8003478:	685b      	ldr	r3, [r3, #4]
 800347a:	b10b      	cbz	r3, 8003480 <_free_r+0x4c>
 800347c:	42a3      	cmp	r3, r4
 800347e:	d9fa      	bls.n	8003476 <_free_r+0x42>
 8003480:	6811      	ldr	r1, [r2, #0]
 8003482:	1850      	adds	r0, r2, r1
 8003484:	42a0      	cmp	r0, r4
 8003486:	d10b      	bne.n	80034a0 <_free_r+0x6c>
 8003488:	6820      	ldr	r0, [r4, #0]
 800348a:	4401      	add	r1, r0
 800348c:	1850      	adds	r0, r2, r1
 800348e:	4283      	cmp	r3, r0
 8003490:	6011      	str	r1, [r2, #0]
 8003492:	d1e0      	bne.n	8003456 <_free_r+0x22>
 8003494:	6818      	ldr	r0, [r3, #0]
 8003496:	685b      	ldr	r3, [r3, #4]
 8003498:	6053      	str	r3, [r2, #4]
 800349a:	4408      	add	r0, r1
 800349c:	6010      	str	r0, [r2, #0]
 800349e:	e7da      	b.n	8003456 <_free_r+0x22>
 80034a0:	d902      	bls.n	80034a8 <_free_r+0x74>
 80034a2:	230c      	movs	r3, #12
 80034a4:	602b      	str	r3, [r5, #0]
 80034a6:	e7d6      	b.n	8003456 <_free_r+0x22>
 80034a8:	6820      	ldr	r0, [r4, #0]
 80034aa:	1821      	adds	r1, r4, r0
 80034ac:	428b      	cmp	r3, r1
 80034ae:	bf04      	itt	eq
 80034b0:	6819      	ldreq	r1, [r3, #0]
 80034b2:	685b      	ldreq	r3, [r3, #4]
 80034b4:	6063      	str	r3, [r4, #4]
 80034b6:	bf04      	itt	eq
 80034b8:	1809      	addeq	r1, r1, r0
 80034ba:	6021      	streq	r1, [r4, #0]
 80034bc:	6054      	str	r4, [r2, #4]
 80034be:	e7ca      	b.n	8003456 <_free_r+0x22>
 80034c0:	bd38      	pop	{r3, r4, r5, pc}
 80034c2:	bf00      	nop
 80034c4:	20000268 	.word	0x20000268

080034c8 <sbrk_aligned>:
 80034c8:	b570      	push	{r4, r5, r6, lr}
 80034ca:	4e0f      	ldr	r6, [pc, #60]	@ (8003508 <sbrk_aligned+0x40>)
 80034cc:	460c      	mov	r4, r1
 80034ce:	6831      	ldr	r1, [r6, #0]
 80034d0:	4605      	mov	r5, r0
 80034d2:	b911      	cbnz	r1, 80034da <sbrk_aligned+0x12>
 80034d4:	f000 fba6 	bl	8003c24 <_sbrk_r>
 80034d8:	6030      	str	r0, [r6, #0]
 80034da:	4621      	mov	r1, r4
 80034dc:	4628      	mov	r0, r5
 80034de:	f000 fba1 	bl	8003c24 <_sbrk_r>
 80034e2:	1c43      	adds	r3, r0, #1
 80034e4:	d103      	bne.n	80034ee <sbrk_aligned+0x26>
 80034e6:	f04f 34ff 	mov.w	r4, #4294967295
 80034ea:	4620      	mov	r0, r4
 80034ec:	bd70      	pop	{r4, r5, r6, pc}
 80034ee:	1cc4      	adds	r4, r0, #3
 80034f0:	f024 0403 	bic.w	r4, r4, #3
 80034f4:	42a0      	cmp	r0, r4
 80034f6:	d0f8      	beq.n	80034ea <sbrk_aligned+0x22>
 80034f8:	1a21      	subs	r1, r4, r0
 80034fa:	4628      	mov	r0, r5
 80034fc:	f000 fb92 	bl	8003c24 <_sbrk_r>
 8003500:	3001      	adds	r0, #1
 8003502:	d1f2      	bne.n	80034ea <sbrk_aligned+0x22>
 8003504:	e7ef      	b.n	80034e6 <sbrk_aligned+0x1e>
 8003506:	bf00      	nop
 8003508:	20000264 	.word	0x20000264

0800350c <_malloc_r>:
 800350c:	e92d 43f8 	stmdb	sp!, {r3, r4, r5, r6, r7, r8, r9, lr}
 8003510:	1ccd      	adds	r5, r1, #3
 8003512:	f025 0503 	bic.w	r5, r5, #3
 8003516:	3508      	adds	r5, #8
 8003518:	2d0c      	cmp	r5, #12
 800351a:	bf38      	it	cc
 800351c:	250c      	movcc	r5, #12
 800351e:	2d00      	cmp	r5, #0
 8003520:	4606      	mov	r6, r0
 8003522:	db01      	blt.n	8003528 <_malloc_r+0x1c>
 8003524:	42a9      	cmp	r1, r5
 8003526:	d904      	bls.n	8003532 <_malloc_r+0x26>
 8003528:	230c      	movs	r3, #12
 800352a:	6033      	str	r3, [r6, #0]
 800352c:	2000      	movs	r0, #0
 800352e:	e8bd 83f8 	ldmia.w	sp!, {r3, r4, r5, r6, r7, r8, r9, pc}
 8003532:	f8df 80d4 	ldr.w	r8, [pc, #212]	@ 8003608 <_malloc_r+0xfc>
 8003536:	f000 f869 	bl	800360c <__malloc_lock>
 800353a:	f8d8 3000 	ldr.w	r3, [r8]
 800353e:	461c      	mov	r4, r3
 8003540:	bb44      	cbnz	r4, 8003594 <_malloc_r+0x88>
 8003542:	4629      	mov	r1, r5
 8003544:	4630      	mov	r0, r6
 8003546:	f7ff ffbf 	bl	80034c8 <sbrk_aligned>
 800354a:	1c43      	adds	r3, r0, #1
 800354c:	4604      	mov	r4, r0
 800354e:	d158      	bne.n	8003602 <_malloc_r+0xf6>
 8003550:	f8d8 4000 	ldr.w	r4, [r8]
 8003554:	4627      	mov	r7, r4
 8003556:	2f00      	cmp	r7, #0
 8003558:	d143      	bne.n	80035e2 <_malloc_r+0xd6>
 800355a:	2c00      	cmp	r4, #0
 800355c:	d04b      	beq.n	80035f6 <_malloc_r+0xea>
 800355e:	6823      	ldr	r3, [r4, #0]
 8003560:	4639      	mov	r1, r7
 8003562:	4630      	mov	r0, r6
 8003564:	eb04 0903 	add.w	r9, r4, r3
 8003568:	f000 fb5c 	bl	8003c24 <_sbrk_r>
 800356c:	4581      	cmp	r9, r0
 800356e:	d142      	bne.n	80035f6 <_malloc_r+0xea>
 8003570:	6821      	ldr	r1, [r4, #0]
 8003572:	1a6d      	subs	r5, r5, r1
 8003574:	4629      	mov	r1, r5
 8003576:	4630      	mov	r0, r6
 8003578:	f7ff ffa6 	bl	80034c8 <sbrk_aligned>
 800357c:	3001      	adds	r0, #1
 800357e:	d03a      	beq.n	80035f6 <_malloc_r+0xea>
 8003580:	6823      	ldr	r3, [r4, #0]
 8003582:	442b      	add	r3, r5
 8003584:	6023      	str	r3, [r4, #0]
 8003586:	f8d8 3000 	ldr.w	r3, [r8]
 800358a:	685a      	ldr	r2, [r3, #4]
 800358c:	bb62      	cbnz	r2, 80035e8 <_malloc_r+0xdc>
 800358e:	f8c8 7000 	str.w	r7, [r8]
 8003592:	e00f      	b.n	80035b4 <_malloc_r+0xa8>
 8003594:	6822      	ldr	r2, [r4, #0]
 8003596:	1b52      	subs	r2, r2, r5
 8003598:	d420      	bmi.n	80035dc <_malloc_r+0xd0>
 800359a:	2a0b      	cmp	r2, #11
 800359c:	d917      	bls.n	80035ce <_malloc_r+0xc2>
 800359e:	1961      	adds	r1, r4, r5
 80035a0:	42a3      	cmp	r3, r4
 80035a2:	6025      	str	r5, [r4, #0]
 80035a4:	bf18      	it	ne
 80035a6:	6059      	strne	r1, [r3, #4]
 80035a8:	6863      	ldr	r3, [r4, #4]
 80035aa:	bf08      	it	eq
 80035ac:	f8c8 1000 	streq.w	r1, [r8]
 80035b0:	5162      	str	r2, [r4, r5]
 80035b2:	604b      	str	r3, [r1, #4]
 80035b4:	4630      	mov	r0, r6
 80035b6:	f000 f82f 	bl	8003618 <__malloc_unlock>
 80035ba:	f104 000b 	add.w	r0, r4, #11
 80035be:	1d23      	adds	r3, r4, #4
 80035c0:	f020 0007 	bic.w	r0, r0, #7
 80035c4:	1ac2      	subs	r2, r0, r3
 80035c6:	bf1c      	itt	ne
 80035c8:	1a1b      	subne	r3, r3, r0
 80035ca:	50a3      	strne	r3, [r4, r2]
 80035cc:	e7af      	b.n	800352e <_malloc_r+0x22>
 80035ce:	6862      	ldr	r2, [r4, #4]
 80035d0:	42a3      	cmp	r3, r4
 80035d2:	bf0c      	ite	eq
 80035d4:	f8c8 2000 	streq.w	r2, [r8]
 80035d8:	605a      	strne	r2, [r3, #4]
 80035da:	e7eb      	b.n	80035b4 <_malloc_r+0xa8>
 80035dc:	4623      	mov	r3, r4
 80035de:	6864      	ldr	r4, [r4, #4]
 80035e0:	e7ae      	b.n	8003540 <_malloc_r+0x34>
 80035e2:	463c      	mov	r4, r7
 80035e4:	687f      	ldr	r7, [r7, #4]
 80035e6:	e7b6      	b.n	8003556 <_malloc_r+0x4a>
 80035e8:	461a      	mov	r2, r3
 80035ea:	685b      	ldr	r3, [r3, #4]
 80035ec:	42a3      	cmp	r3, r4
 80035ee:	d1fb      	bne.n	80035e8 <_malloc_r+0xdc>
 80035f0:	2300      	movs	r3, #0
 80035f2:	6053      	str	r3, [r2, #4]
 80035f4:	e7de      	b.n	80035b4 <_malloc_r+0xa8>
 80035f6:	230c      	movs	r3, #12
 80035f8:	6033      	str	r3, [r6, #0]
 80035fa:	4630      	mov	r0, r6
 80035fc:	f000 f80c 	bl	8003618 <__malloc_unlock>
 8003600:	e794      	b.n	800352c <_malloc_r+0x20>
 8003602:	6005      	str	r5, [r0, #0]
 8003604:	e7d6      	b.n	80035b4 <_malloc_r+0xa8>
 8003606:	bf00      	nop
 8003608:	20000268 	.word	0x20000268

0800360c <__malloc_lock>:
 800360c:	4801      	ldr	r0, [pc, #4]	@ (8003614 <__malloc_lock+0x8>)
 800360e:	f7ff bf0f 	b.w	8003430 <__retarget_lock_acquire_recursive>
 8003612:	bf00      	nop
 8003614:	20000260 	.word	0x20000260

08003618 <__malloc_unlock>:
 8003618:	4801      	ldr	r0, [pc, #4]	@ (8003620 <__malloc_unlock+0x8>)
 800361a:	f7ff bf0a 	b.w	8003432 <__retarget_lock_release_recursive>
 800361e:	bf00      	nop
 8003620:	20000260 	.word	0x20000260

08003624 <__ssputs_r>:
 8003624:	e92d 47f0 	stmdb	sp!, {r4, r5, r6, r7, r8, r9, sl, lr}
 8003628:	688e      	ldr	r6, [r1, #8]
 800362a:	461f      	mov	r7, r3
 800362c:	42be      	cmp	r6, r7
 800362e:	680b      	ldr	r3, [r1, #0]
 8003630:	4682      	mov	sl, r0
 8003632:	460c      	mov	r4, r1
 8003634:	4690      	mov	r8, r2
 8003636:	d82d      	bhi.n	8003694 <__ssputs_r+0x70>
 8003638:	f9b1 200c 	ldrsh.w	r2, [r1, #12]
 800363c:	f412 6f90 	tst.w	r2, #1152	@ 0x480
 8003640:	d026      	beq.n	8003690 <__ssputs_r+0x6c>
 8003642:	6965      	ldr	r5, [r4, #20]
 8003644:	6909      	ldr	r1, [r1, #16]
 8003646:	eb05 0545 	add.w	r5, r5, r5, lsl #1
 800364a:	eba3 0901 	sub.w	r9, r3, r1
 800364e:	eb05 75d5 	add.w	r5, r5, r5, lsr #31
 8003652:	1c7b      	adds	r3, r7, #1
 8003654:	444b      	add	r3, r9
 8003656:	106d      	asrs	r5, r5, #1
 8003658:	429d      	cmp	r5, r3
 800365a:	bf38      	it	cc
 800365c:	461d      	movcc	r5, r3
 800365e:	0553      	lsls	r3, r2, #21
 8003660:	d527      	bpl.n	80036b2 <__ssputs_r+0x8e>
 8003662:	4629      	mov	r1, r5
 8003664:	f7ff ff52 	bl	800350c <_malloc_r>
 8003668:	4606      	mov	r6, r0
 800366a:	b360      	cbz	r0, 80036c6 <__ssputs_r+0xa2>
 800366c:	6921      	ldr	r1, [r4, #16]
 800366e:	464a      	mov	r2, r9
 8003670:	f000 fae8 	bl	8003c44 <memcpy>
 8003674:	89a3      	ldrh	r3, [r4, #12]
 8003676:	f423 6390 	bic.w	r3, r3, #1152	@ 0x480
 800367a:	f043 0380 	orr.w	r3, r3, #128	@ 0x80
 800367e:	81a3      	strh	r3, [r4, #12]
 8003680:	6126      	str	r6, [r4, #16]
 8003682:	6165      	str	r5, [r4, #20]
 8003684:	444e      	add	r6, r9
 8003686:	eba5 0509 	sub.w	r5, r5, r9
 800368a:	6026      	str	r6, [r4, #0]
 800368c:	60a5      	str	r5, [r4, #8]
 800368e:	463e      	mov	r6, r7
 8003690:	42be      	cmp	r6, r7
 8003692:	d900      	bls.n	8003696 <__ssputs_r+0x72>
 8003694:	463e      	mov	r6, r7
 8003696:	6820      	ldr	r0, [r4, #0]
 8003698:	4632      	mov	r2, r6
 800369a:	4641      	mov	r1, r8
 800369c:	f000 faa8 	bl	8003bf0 <memmove>
 80036a0:	68a3      	ldr	r3, [r4, #8]
 80036a2:	1b9b      	subs	r3, r3, r6
 80036a4:	60a3      	str	r3, [r4, #8]
 80036a6:	6823      	ldr	r3, [r4, #0]
 80036a8:	4433      	add	r3, r6
 80036aa:	6023      	str	r3, [r4, #0]
 80036ac:	2000      	movs	r0, #0
 80036ae:	e8bd 87f0 	ldmia.w	sp!, {r4, r5, r6, r7, r8, r9, sl, pc}
 80036b2:	462a      	mov	r2, r5
 80036b4:	f000 fad4 	bl	8003c60 <_realloc_r>
 80036b8:	4606      	mov	r6, r0
 80036ba:	2800      	cmp	r0, #0
 80036bc:	d1e0      	bne.n	8003680 <__ssputs_r+0x5c>
 80036be:	6921      	ldr	r1, [r4, #16]
 80036c0:	4650      	mov	r0, sl
 80036c2:	f7ff feb7 	bl	8003434 <_free_r>
 80036c6:	230c      	movs	r3, #12
 80036c8:	f8ca 3000 	str.w	r3, [sl]
 80036cc:	89a3      	ldrh	r3, [r4, #12]
 80036ce:	f043 0340 	orr.w	r3, r3, #64	@ 0x40
 80036d2:	81a3      	strh	r3, [r4, #12]
 80036d4:	f04f 30ff 	mov.w	r0, #4294967295
 80036d8:	e7e9      	b.n	80036ae <__ssputs_r+0x8a>
	...

080036dc <_svfiprintf_r>:
 80036dc:	e92d 4ff0 	stmdb	sp!, {r4, r5, r6, r7, r8, r9, sl, fp, lr}
 80036e0:	4698      	mov	r8, r3
 80036e2:	898b      	ldrh	r3, [r1, #12]
 80036e4:	061b      	lsls	r3, r3, #24
 80036e6:	b09d      	sub	sp, #116	@ 0x74
 80036e8:	4607      	mov	r7, r0
 80036ea:	460d      	mov	r5, r1
 80036ec:	4614      	mov	r4, r2
 80036ee:	d510      	bpl.n	8003712 <_svfiprintf_r+0x36>
 80036f0:	690b      	ldr	r3, [r1, #16]
 80036f2:	b973      	cbnz	r3, 8003712 <_svfiprintf_r+0x36>
 80036f4:	2140      	movs	r1, #64	@ 0x40
 80036f6:	f7ff ff09 	bl	800350c <_malloc_r>
 80036fa:	6028      	str	r0, [r5, #0]
 80036fc:	6128      	str	r0, [r5, #16]
 80036fe:	b930      	cbnz	r0, 800370e <_svfiprintf_r+0x32>
 8003700:	230c      	movs	r3, #12
 8003702:	603b      	str	r3, [r7, #0]
 8003704:	f04f 30ff 	mov.w	r0, #4294967295
 8003708:	b01d      	add	sp, #116	@ 0x74
 800370a:	e8bd 8ff0 	ldmia.w	sp!, {r4, r5, r6, r7, r8, r9, sl, fp, pc}
 800370e:	2340      	movs	r3, #64	@ 0x40
 8003710:	616b      	str	r3, [r5, #20]
 8003712:	2300      	movs	r3, #0
 8003714:	9309      	str	r3, [sp, #36]	@ 0x24
 8003716:	2320      	movs	r3, #32
 8003718:	f88d 3029 	strb.w	r3, [sp, #41]	@ 0x29
 800371c:	f8cd 800c 	str.w	r8, [sp, #12]
 8003720:	2330      	movs	r3, #48	@ 0x30
 8003722:	f8df 819c 	ldr.w	r8, [pc, #412]	@ 80038c0 <_svfiprintf_r+0x1e4>
 8003726:	f88d 302a 	strb.w	r3, [sp, #42]	@ 0x2a
 800372a:	f04f 0901 	mov.w	r9, #1
 800372e:	4623      	mov	r3, r4
 8003730:	469a      	mov	sl, r3
 8003732:	f813 2b01 	ldrb.w	r2, [r3], #1
 8003736:	b10a      	cbz	r2, 800373c <_svfiprintf_r+0x60>
 8003738:	2a25      	cmp	r2, #37	@ 0x25
 800373a:	d1f9      	bne.n	8003730 <_svfiprintf_r+0x54>
 800373c:	ebba 0b04 	subs.w	fp, sl, r4
 8003740:	d00b      	beq.n	800375a <_svfiprintf_r+0x7e>
 8003742:	465b      	mov	r3, fp
 8003744:	4622      	mov	r2, r4
 8003746:	4629      	mov	r1, r5
 8003748:	4638      	mov	r0, r7
 800374a:	f7ff ff6b 	bl	8003624 <__ssputs_r>
 800374e:	3001      	adds	r0, #1
 8003750:	f000 80a7 	beq.w	80038a2 <_svfiprintf_r+0x1c6>
 8003754:	9a09      	ldr	r2, [sp, #36]	@ 0x24
 8003756:	445a      	add	r2, fp
 8003758:	9209      	str	r2, [sp, #36]	@ 0x24
 800375a:	f89a 3000 	ldrb.w	r3, [sl]
 800375e:	2b00      	cmp	r3, #0
 8003760:	f000 809f 	beq.w	80038a2 <_svfiprintf_r+0x1c6>
 8003764:	2300      	movs	r3, #0
 8003766:	f04f 32ff 	mov.w	r2, #4294967295
 800376a:	e9cd 2305 	strd	r2, r3, [sp, #20]
 800376e:	f10a 0a01 	add.w	sl, sl, #1
 8003772:	9304      	str	r3, [sp, #16]
 8003774:	9307      	str	r3, [sp, #28]
 8003776:	f88d 3053 	strb.w	r3, [sp, #83]	@ 0x53
 800377a:	931a      	str	r3, [sp, #104]	@ 0x68
 800377c:	4654      	mov	r4, sl
 800377e:	2205      	movs	r2, #5
 8003780:	f814 1b01 	ldrb.w	r1, [r4], #1
 8003784:	484e      	ldr	r0, [pc, #312]	@ (80038c0 <_svfiprintf_r+0x1e4>)
 8003786:	f7fc fd2b 	bl	80001e0 <memchr>
 800378a:	9a04      	ldr	r2, [sp, #16]
 800378c:	b9d8      	cbnz	r0, 80037c6 <_svfiprintf_r+0xea>
 800378e:	06d0      	lsls	r0, r2, #27
 8003790:	bf44      	itt	mi
 8003792:	2320      	movmi	r3, #32
 8003794:	f88d 3053 	strbmi.w	r3, [sp, #83]	@ 0x53
 8003798:	0711      	lsls	r1, r2, #28
 800379a:	bf44      	itt	mi
 800379c:	232b      	movmi	r3, #43	@ 0x2b
 800379e:	f88d 3053 	strbmi.w	r3, [sp, #83]	@ 0x53
 80037a2:	f89a 3000 	ldrb.w	r3, [sl]
 80037a6:	2b2a      	cmp	r3, #42	@ 0x2a
 80037a8:	d015      	beq.n	80037d6 <_svfiprintf_r+0xfa>
 80037aa:	9a07      	ldr	r2, [sp, #28]
 80037ac:	4654      	mov	r4, sl
 80037ae:	2000      	movs	r0, #0
 80037b0:	f04f 0c0a 	mov.w	ip, #10
 80037b4:	4621      	mov	r1, r4
 80037b6:	f811 3b01 	ldrb.w	r3, [r1], #1
 80037ba:	3b30      	subs	r3, #48	@ 0x30
 80037bc:	2b09      	cmp	r3, #9
 80037be:	d94b      	bls.n	8003858 <_svfiprintf_r+0x17c>
 80037c0:	b1b0      	cbz	r0, 80037f0 <_svfiprintf_r+0x114>
 80037c2:	9207      	str	r2, [sp, #28]
 80037c4:	e014      	b.n	80037f0 <_svfiprintf_r+0x114>
 80037c6:	eba0 0308 	sub.w	r3, r0, r8
 80037ca:	fa09 f303 	lsl.w	r3, r9, r3
 80037ce:	4313      	orrs	r3, r2
 80037d0:	9304      	str	r3, [sp, #16]
 80037d2:	46a2      	mov	sl, r4
 80037d4:	e7d2      	b.n	800377c <_svfiprintf_r+0xa0>
 80037d6:	9b03      	ldr	r3, [sp, #12]
 80037d8:	1d19      	adds	r1, r3, #4
 80037da:	681b      	ldr	r3, [r3, #0]
 80037dc:	9103      	str	r1, [sp, #12]
 80037de:	2b00      	cmp	r3, #0
 80037e0:	bfbb      	ittet	lt
 80037e2:	425b      	neglt	r3, r3
 80037e4:	f042 0202 	orrlt.w	r2, r2, #2
 80037e8:	9307      	strge	r3, [sp, #28]
 80037ea:	9307      	strlt	r3, [sp, #28]
 80037ec:	bfb8      	it	lt
 80037ee:	9204      	strlt	r2, [sp, #16]
 80037f0:	7823      	ldrb	r3, [r4, #0]
 80037f2:	2b2e      	cmp	r3, #46	@ 0x2e
 80037f4:	d10a      	bne.n	800380c <_svfiprintf_r+0x130>
 80037f6:	7863      	ldrb	r3, [r4, #1]
 80037f8:	2b2a      	cmp	r3, #42	@ 0x2a
 80037fa:	d132      	bne.n	8003862 <_svfiprintf_r+0x186>
 80037fc:	9b03      	ldr	r3, [sp, #12]
 80037fe:	1d1a      	adds	r2, r3, #4
 8003800:	681b      	ldr	r3, [r3, #0]
 8003802:	9203      	str	r2, [sp, #12]
 8003804:	ea43 73e3 	orr.w	r3, r3, r3, asr #31
 8003808:	3402      	adds	r4, #2
 800380a:	9305      	str	r3, [sp, #20]
 800380c:	f8df a0c0 	ldr.w	sl, [pc, #192]	@ 80038d0 <_svfiprintf_r+0x1f4>
 8003810:	7821      	ldrb	r1, [r4, #0]
 8003812:	2203      	movs	r2, #3
 8003814:	4650      	mov	r0, sl
 8003816:	f7fc fce3 	bl	80001e0 <memchr>
 800381a:	b138      	cbz	r0, 800382c <_svfiprintf_r+0x150>
 800381c:	9b04      	ldr	r3, [sp, #16]
 800381e:	eba0 000a 	sub.w	r0, r0, sl
 8003822:	2240      	movs	r2, #64	@ 0x40
 8003824:	4082      	lsls	r2, r0
 8003826:	4313      	orrs	r3, r2
 8003828:	3401      	adds	r4, #1
 800382a:	9304      	str	r3, [sp, #16]
 800382c:	f814 1b01 	ldrb.w	r1, [r4], #1
 8003830:	4824      	ldr	r0, [pc, #144]	@ (80038c4 <_svfiprintf_r+0x1e8>)
 8003832:	f88d 1028 	strb.w	r1, [sp, #40]	@ 0x28
 8003836:	2206      	movs	r2, #6
 8003838:	f7fc fcd2 	bl	80001e0 <memchr>
 800383c:	2800      	cmp	r0, #0
 800383e:	d036      	beq.n	80038ae <_svfiprintf_r+0x1d2>
 8003840:	4b21      	ldr	r3, [pc, #132]	@ (80038c8 <_svfiprintf_r+0x1ec>)
 8003842:	bb1b      	cbnz	r3, 800388c <_svfiprintf_r+0x1b0>
 8003844:	9b03      	ldr	r3, [sp, #12]
 8003846:	3307      	adds	r3, #7
 8003848:	f023 0307 	bic.w	r3, r3, #7
 800384c:	3308      	adds	r3, #8
 800384e:	9303      	str	r3, [sp, #12]
 8003850:	9b09      	ldr	r3, [sp, #36]	@ 0x24
 8003852:	4433      	add	r3, r6
 8003854:	9309      	str	r3, [sp, #36]	@ 0x24
 8003856:	e76a      	b.n	800372e <_svfiprintf_r+0x52>
 8003858:	fb0c 3202 	mla	r2, ip, r2, r3
 800385c:	460c      	mov	r4, r1
 800385e:	2001      	movs	r0, #1
 8003860:	e7a8      	b.n	80037b4 <_svfiprintf_r+0xd8>
 8003862:	2300      	movs	r3, #0
 8003864:	3401      	adds	r4, #1
 8003866:	9305      	str	r3, [sp, #20]
 8003868:	4619      	mov	r1, r3
 800386a:	f04f 0c0a 	mov.w	ip, #10
 800386e:	4620      	mov	r0, r4
 8003870:	f810 2b01 	ldrb.w	r2, [r0], #1
 8003874:	3a30      	subs	r2, #48	@ 0x30
 8003876:	2a09      	cmp	r2, #9
 8003878:	d903      	bls.n	8003882 <_svfiprintf_r+0x1a6>
 800387a:	2b00      	cmp	r3, #0
 800387c:	d0c6      	beq.n	800380c <_svfiprintf_r+0x130>
 800387e:	9105      	str	r1, [sp, #20]
 8003880:	e7c4      	b.n	800380c <_svfiprintf_r+0x130>
 8003882:	fb0c 2101 	mla	r1, ip, r1, r2
 8003886:	4604      	mov	r4, r0
 8003888:	2301      	movs	r3, #1
 800388a:	e7f0      	b.n	800386e <_svfiprintf_r+0x192>
 800388c:	ab03      	add	r3, sp, #12
 800388e:	9300      	str	r3, [sp, #0]
 8003890:	462a      	mov	r2, r5
 8003892:	4b0e      	ldr	r3, [pc, #56]	@ (80038cc <_svfiprintf_r+0x1f0>)
 8003894:	a904      	add	r1, sp, #16
 8003896:	4638      	mov	r0, r7
 8003898:	f3af 8000 	nop.w
 800389c:	1c42      	adds	r2, r0, #1
 800389e:	4606      	mov	r6, r0
 80038a0:	d1d6      	bne.n	8003850 <_svfiprintf_r+0x174>
 80038a2:	89ab      	ldrh	r3, [r5, #12]
 80038a4:	065b      	lsls	r3, r3, #25
 80038a6:	f53f af2d 	bmi.w	8003704 <_svfiprintf_r+0x28>
 80038aa:	9809      	ldr	r0, [sp, #36]	@ 0x24
 80038ac:	e72c      	b.n	8003708 <_svfiprintf_r+0x2c>
 80038ae:	ab03      	add	r3, sp, #12
 80038b0:	9300      	str	r3, [sp, #0]
 80038b2:	462a      	mov	r2, r5
 80038b4:	4b05      	ldr	r3, [pc, #20]	@ (80038cc <_svfiprintf_r+0x1f0>)
 80038b6:	a904      	add	r1, sp, #16
 80038b8:	4638      	mov	r0, r7
 80038ba:	f000 f879 	bl	80039b0 <_printf_i>
 80038be:	e7ed      	b.n	800389c <_svfiprintf_r+0x1c0>
 80038c0:	08003d10 	.word	0x08003d10
 80038c4:	08003d1a 	.word	0x08003d1a
 80038c8:	00000000 	.word	0x00000000
 80038cc:	08003625 	.word	0x08003625
 80038d0:	08003d16 	.word	0x08003d16

080038d4 <_printf_common>:
 80038d4:	e92d 47f0 	stmdb	sp!, {r4, r5, r6, r7, r8, r9, sl, lr}
 80038d8:	4616      	mov	r6, r2
 80038da:	4698      	mov	r8, r3
 80038dc:	688a      	ldr	r2, [r1, #8]
 80038de:	690b      	ldr	r3, [r1, #16]
 80038e0:	f8dd 9020 	ldr.w	r9, [sp, #32]
 80038e4:	4293      	cmp	r3, r2
 80038e6:	bfb8      	it	lt
 80038e8:	4613      	movlt	r3, r2
 80038ea:	6033      	str	r3, [r6, #0]
 80038ec:	f891 2043 	ldrb.w	r2, [r1, #67]	@ 0x43
 80038f0:	4607      	mov	r7, r0
 80038f2:	460c      	mov	r4, r1
 80038f4:	b10a      	cbz	r2, 80038fa <_printf_common+0x26>
 80038f6:	3301      	adds	r3, #1
 80038f8:	6033      	str	r3, [r6, #0]
 80038fa:	6823      	ldr	r3, [r4, #0]
 80038fc:	0699      	lsls	r1, r3, #26
 80038fe:	bf42      	ittt	mi
 8003900:	6833      	ldrmi	r3, [r6, #0]
 8003902:	3302      	addmi	r3, #2
 8003904:	6033      	strmi	r3, [r6, #0]
 8003906:	6825      	ldr	r5, [r4, #0]
 8003908:	f015 0506 	ands.w	r5, r5, #6
 800390c:	d106      	bne.n	800391c <_printf_common+0x48>
 800390e:	f104 0a19 	add.w	sl, r4, #25
 8003912:	68e3      	ldr	r3, [r4, #12]
 8003914:	6832      	ldr	r2, [r6, #0]
 8003916:	1a9b      	subs	r3, r3, r2
 8003918:	42ab      	cmp	r3, r5
 800391a:	dc26      	bgt.n	800396a <_printf_common+0x96>
 800391c:	f894 3043 	ldrb.w	r3, [r4, #67]	@ 0x43
 8003920:	6822      	ldr	r2, [r4, #0]
 8003922:	3b00      	subs	r3, #0
 8003924:	bf18      	it	ne
 8003926:	2301      	movne	r3, #1
 8003928:	0692      	lsls	r2, r2, #26
 800392a:	d42b      	bmi.n	8003984 <_printf_common+0xb0>
 800392c:	f104 0243 	add.w	r2, r4, #67	@ 0x43
 8003930:	4641      	mov	r1, r8
 8003932:	4638      	mov	r0, r7
 8003934:	47c8      	blx	r9
 8003936:	3001      	adds	r0, #1
 8003938:	d01e      	beq.n	8003978 <_printf_common+0xa4>
 800393a:	6823      	ldr	r3, [r4, #0]
 800393c:	6922      	ldr	r2, [r4, #16]
 800393e:	f003 0306 	and.w	r3, r3, #6
 8003942:	2b04      	cmp	r3, #4
 8003944:	bf02      	ittt	eq
 8003946:	68e5      	ldreq	r5, [r4, #12]
 8003948:	6833      	ldreq	r3, [r6, #0]
 800394a:	1aed      	subeq	r5, r5, r3
 800394c:	68a3      	ldr	r3, [r4, #8]
 800394e:	bf0c      	ite	eq
 8003950:	ea25 75e5 	biceq.w	r5, r5, r5, asr #31
 8003954:	2500      	movne	r5, #0
 8003956:	4293      	cmp	r3, r2
 8003958:	bfc4      	itt	gt
 800395a:	1a9b      	subgt	r3, r3, r2
 800395c:	18ed      	addgt	r5, r5, r3
 800395e:	2600      	movs	r6, #0
 8003960:	341a      	adds	r4, #26
 8003962:	42b5      	cmp	r5, r6
 8003964:	d11a      	bne.n	800399c <_printf_common+0xc8>
 8003966:	2000      	movs	r0, #0
 8003968:	e008      	b.n	800397c <_printf_common+0xa8>
 800396a:	2301      	movs	r3, #1
 800396c:	4652      	mov	r2, sl
 800396e:	4641      	mov	r1, r8
 8003970:	4638      	mov	r0, r7
 8003972:	47c8      	blx	r9
 8003974:	3001      	adds	r0, #1
 8003976:	d103      	bne.n	8003980 <_printf_common+0xac>
 8003978:	f04f 30ff 	mov.w	r0, #4294967295
 800397c:	e8bd 87f0 	ldmia.w	sp!, {r4, r5, r6, r7, r8, r9, sl, pc}
 8003980:	3501      	adds	r5, #1
 8003982:	e7c6      	b.n	8003912 <_printf_common+0x3e>
 8003984:	18e1      	adds	r1, r4, r3
 8003986:	1c5a      	adds	r2, r3, #1
 8003988:	2030      	movs	r0, #48	@ 0x30
 800398a:	f881 0043 	strb.w	r0, [r1, #67]	@ 0x43
 800398e:	4422      	add	r2, r4
 8003990:	f894 1045 	ldrb.w	r1, [r4, #69]	@ 0x45
 8003994:	f882 1043 	strb.w	r1, [r2, #67]	@ 0x43
 8003998:	3302      	adds	r3, #2
 800399a:	e7c7      	b.n	800392c <_printf_common+0x58>
 800399c:	2301      	movs	r3, #1
 800399e:	4622      	mov	r2, r4
 80039a0:	4641      	mov	r1, r8
 80039a2:	4638      	mov	r0, r7
 80039a4:	47c8      	blx	r9
 80039a6:	3001      	adds	r0, #1
 80039a8:	d0e6      	beq.n	8003978 <_printf_common+0xa4>
 80039aa:	3601      	adds	r6, #1
 80039ac:	e7d9      	b.n	8003962 <_printf_common+0x8e>
	...

080039b0 <_printf_i>:
 80039b0:	e92d 47ff 	stmdb	sp!, {r0, r1, r2, r3, r4, r5, r6, r7, r8, r9, sl, lr}
 80039b4:	7e0f      	ldrb	r7, [r1, #24]
 80039b6:	9e0c      	ldr	r6, [sp, #48]	@ 0x30
 80039b8:	2f78      	cmp	r7, #120	@ 0x78
 80039ba:	4691      	mov	r9, r2
 80039bc:	4680      	mov	r8, r0
 80039be:	460c      	mov	r4, r1
 80039c0:	469a      	mov	sl, r3
 80039c2:	f101 0243 	add.w	r2, r1, #67	@ 0x43
 80039c6:	d807      	bhi.n	80039d8 <_printf_i+0x28>
 80039c8:	2f62      	cmp	r7, #98	@ 0x62
 80039ca:	d80a      	bhi.n	80039e2 <_printf_i+0x32>
 80039cc:	2f00      	cmp	r7, #0
 80039ce:	f000 80d2 	beq.w	8003b76 <_printf_i+0x1c6>
 80039d2:	2f58      	cmp	r7, #88	@ 0x58
 80039d4:	f000 80b9 	beq.w	8003b4a <_printf_i+0x19a>
 80039d8:	f104 0642 	add.w	r6, r4, #66	@ 0x42
 80039dc:	f884 7042 	strb.w	r7, [r4, #66]	@ 0x42
 80039e0:	e03a      	b.n	8003a58 <_printf_i+0xa8>
 80039e2:	f1a7 0363 	sub.w	r3, r7, #99	@ 0x63
 80039e6:	2b15      	cmp	r3, #21
 80039e8:	d8f6      	bhi.n	80039d8 <_printf_i+0x28>
 80039ea:	a101      	add	r1, pc, #4	@ (adr r1, 80039f0 <_printf_i+0x40>)
 80039ec:	f851 f023 	ldr.w	pc, [r1, r3, lsl #2]
 80039f0:	08003a49 	.word	0x08003a49
 80039f4:	08003a5d 	.word	0x08003a5d
 80039f8:	080039d9 	.word	0x080039d9
 80039fc:	080039d9 	.word	0x080039d9
 8003a00:	080039d9 	.word	0x080039d9
 8003a04:	080039d9 	.word	0x080039d9
 8003a08:	08003a5d 	.word	0x08003a5d
 8003a0c:	080039d9 	.word	0x080039d9
 8003a10:	080039d9 	.word	0x080039d9
 8003a14:	080039d9 	.word	0x080039d9
 8003a18:	080039d9 	.word	0x080039d9
 8003a1c:	08003b5d 	.word	0x08003b5d
 8003a20:	08003a87 	.word	0x08003a87
 8003a24:	08003b17 	.word	0x08003b17
 8003a28:	080039d9 	.word	0x080039d9
 8003a2c:	080039d9 	.word	0x080039d9
 8003a30:	08003b7f 	.word	0x08003b7f
 8003a34:	080039d9 	.word	0x080039d9
 8003a38:	08003a87 	.word	0x08003a87
 8003a3c:	080039d9 	.word	0x080039d9
 8003a40:	080039d9 	.word	0x080039d9
 8003a44:	08003b1f 	.word	0x08003b1f
 8003a48:	6833      	ldr	r3, [r6, #0]
 8003a4a:	1d1a      	adds	r2, r3, #4
 8003a4c:	681b      	ldr	r3, [r3, #0]
 8003a4e:	6032      	str	r2, [r6, #0]
 8003a50:	f104 0642 	add.w	r6, r4, #66	@ 0x42
 8003a54:	f884 3042 	strb.w	r3, [r4, #66]	@ 0x42
 8003a58:	2301      	movs	r3, #1
 8003a5a:	e09d      	b.n	8003b98 <_printf_i+0x1e8>
 8003a5c:	6833      	ldr	r3, [r6, #0]
 8003a5e:	6820      	ldr	r0, [r4, #0]
 8003a60:	1d19      	adds	r1, r3, #4
 8003a62:	6031      	str	r1, [r6, #0]
 8003a64:	0606      	lsls	r6, r0, #24
 8003a66:	d501      	bpl.n	8003a6c <_printf_i+0xbc>
 8003a68:	681d      	ldr	r5, [r3, #0]
 8003a6a:	e003      	b.n	8003a74 <_printf_i+0xc4>
 8003a6c:	0645      	lsls	r5, r0, #25
 8003a6e:	d5fb      	bpl.n	8003a68 <_printf_i+0xb8>
 8003a70:	f9b3 5000 	ldrsh.w	r5, [r3]
 8003a74:	2d00      	cmp	r5, #0
 8003a76:	da03      	bge.n	8003a80 <_printf_i+0xd0>
 8003a78:	232d      	movs	r3, #45	@ 0x2d
 8003a7a:	426d      	negs	r5, r5
 8003a7c:	f884 3043 	strb.w	r3, [r4, #67]	@ 0x43
 8003a80:	4859      	ldr	r0, [pc, #356]	@ (8003be8 <_printf_i+0x238>)
 8003a82:	230a      	movs	r3, #10
 8003a84:	e011      	b.n	8003aaa <_printf_i+0xfa>
 8003a86:	6821      	ldr	r1, [r4, #0]
 8003a88:	6833      	ldr	r3, [r6, #0]
 8003a8a:	0608      	lsls	r0, r1, #24
 8003a8c:	f853 5b04 	ldr.w	r5, [r3], #4
 8003a90:	d402      	bmi.n	8003a98 <_printf_i+0xe8>
 8003a92:	0649      	lsls	r1, r1, #25
 8003a94:	bf48      	it	mi
 8003a96:	b2ad      	uxthmi	r5, r5
 8003a98:	2f6f      	cmp	r7, #111	@ 0x6f
 8003a9a:	4853      	ldr	r0, [pc, #332]	@ (8003be8 <_printf_i+0x238>)
 8003a9c:	6033      	str	r3, [r6, #0]
 8003a9e:	bf14      	ite	ne
 8003aa0:	230a      	movne	r3, #10
 8003aa2:	2308      	moveq	r3, #8
 8003aa4:	2100      	movs	r1, #0
 8003aa6:	f884 1043 	strb.w	r1, [r4, #67]	@ 0x43
 8003aaa:	6866      	ldr	r6, [r4, #4]
 8003aac:	60a6      	str	r6, [r4, #8]
 8003aae:	2e00      	cmp	r6, #0
 8003ab0:	bfa2      	ittt	ge
 8003ab2:	6821      	ldrge	r1, [r4, #0]
 8003ab4:	f021 0104 	bicge.w	r1, r1, #4
 8003ab8:	6021      	strge	r1, [r4, #0]
 8003aba:	b90d      	cbnz	r5, 8003ac0 <_printf_i+0x110>
 8003abc:	2e00      	cmp	r6, #0
 8003abe:	d04b      	beq.n	8003b58 <_printf_i+0x1a8>
 8003ac0:	4616      	mov	r6, r2
 8003ac2:	fbb5 f1f3 	udiv	r1, r5, r3
 8003ac6:	fb03 5711 	mls	r7, r3, r1, r5
 8003aca:	5dc7      	ldrb	r7, [r0, r7]
 8003acc:	f806 7d01 	strb.w	r7, [r6, #-1]!
 8003ad0:	462f      	mov	r7, r5
 8003ad2:	42bb      	cmp	r3, r7
 8003ad4:	460d      	mov	r5, r1
 8003ad6:	d9f4      	bls.n	8003ac2 <_printf_i+0x112>
 8003ad8:	2b08      	cmp	r3, #8
 8003ada:	d10b      	bne.n	8003af4 <_printf_i+0x144>
 8003adc:	6823      	ldr	r3, [r4, #0]
 8003ade:	07df      	lsls	r7, r3, #31
 8003ae0:	d508      	bpl.n	8003af4 <_printf_i+0x144>
 8003ae2:	6923      	ldr	r3, [r4, #16]
 8003ae4:	6861      	ldr	r1, [r4, #4]
 8003ae6:	4299      	cmp	r1, r3
 8003ae8:	bfde      	ittt	le
 8003aea:	2330      	movle	r3, #48	@ 0x30
 8003aec:	f806 3c01 	strble.w	r3, [r6, #-1]
 8003af0:	f106 36ff 	addle.w	r6, r6, #4294967295
 8003af4:	1b92      	subs	r2, r2, r6
 8003af6:	6122      	str	r2, [r4, #16]
 8003af8:	f8cd a000 	str.w	sl, [sp]
 8003afc:	464b      	mov	r3, r9
 8003afe:	aa03      	add	r2, sp, #12
 8003b00:	4621      	mov	r1, r4
 8003b02:	4640      	mov	r0, r8
 8003b04:	f7ff fee6 	bl	80038d4 <_printf_common>
 8003b08:	3001      	adds	r0, #1
 8003b0a:	d14a      	bne.n	8003ba2 <_printf_i+0x1f2>
 8003b0c:	f04f 30ff 	mov.w	r0, #4294967295
 8003b10:	b004      	add	sp, #16
 8003b12:	e8bd 87f0 	ldmia.w	sp!, {r4, r5, r6, r7, r8, r9, sl, pc}
 8003b16:	6823      	ldr	r3, [r4, #0]
 8003b18:	f043 0320 	orr.w	r3, r3, #32
 8003b1c:	6023      	str	r3, [r4, #0]
 8003b1e:	4833      	ldr	r0, [pc, #204]	@ (8003bec <_printf_i+0x23c>)
 8003b20:	2778      	movs	r7, #120	@ 0x78
 8003b22:	f884 7045 	strb.w	r7, [r4, #69]	@ 0x45
 8003b26:	6823      	ldr	r3, [r4, #0]
 8003b28:	6831      	ldr	r1, [r6, #0]
 8003b2a:	061f      	lsls	r7, r3, #24
 8003b2c:	f851 5b04 	ldr.w	r5, [r1], #4
 8003b30:	d402      	bmi.n	8003b38 <_printf_i+0x188>
 8003b32:	065f      	lsls	r7, r3, #25
 8003b34:	bf48      	it	mi
 8003b36:	b2ad      	uxthmi	r5, r5
 8003b38:	6031      	str	r1, [r6, #0]
 8003b3a:	07d9      	lsls	r1, r3, #31
 8003b3c:	bf44      	itt	mi
 8003b3e:	f043 0320 	orrmi.w	r3, r3, #32
 8003b42:	6023      	strmi	r3, [r4, #0]
 8003b44:	b11d      	cbz	r5, 8003b4e <_printf_i+0x19e>
 8003b46:	2310      	movs	r3, #16
 8003b48:	e7ac      	b.n	8003aa4 <_printf_i+0xf4>
 8003b4a:	4827      	ldr	r0, [pc, #156]	@ (8003be8 <_printf_i+0x238>)
 8003b4c:	e7e9      	b.n	8003b22 <_printf_i+0x172>
 8003b4e:	6823      	ldr	r3, [r4, #0]
 8003b50:	f023 0320 	bic.w	r3, r3, #32
 8003b54:	6023      	str	r3, [r4, #0]
 8003b56:	e7f6      	b.n	8003b46 <_printf_i+0x196>
 8003b58:	4616      	mov	r6, r2
 8003b5a:	e7bd      	b.n	8003ad8 <_printf_i+0x128>
 8003b5c:	6833      	ldr	r3, [r6, #0]
 8003b5e:	6825      	ldr	r5, [r4, #0]
 8003b60:	6961      	ldr	r1, [r4, #20]
 8003b62:	1d18      	adds	r0, r3, #4
 8003b64:	6030      	str	r0, [r6, #0]
 8003b66:	062e      	lsls	r6, r5, #24
 8003b68:	681b      	ldr	r3, [r3, #0]
 8003b6a:	d501      	bpl.n	8003b70 <_printf_i+0x1c0>
 8003b6c:	6019      	str	r1, [r3, #0]
 8003b6e:	e002      	b.n	8003b76 <_printf_i+0x1c6>
 8003b70:	0668      	lsls	r0, r5, #25
 8003b72:	d5fb      	bpl.n	8003b6c <_printf_i+0x1bc>
 8003b74:	8019      	strh	r1, [r3, #0]
 8003b76:	2300      	movs	r3, #0
 8003b78:	6123      	str	r3, [r4, #16]
 8003b7a:	4616      	mov	r6, r2
 8003b7c:	e7bc      	b.n	8003af8 <_printf_i+0x148>
 8003b7e:	6833      	ldr	r3, [r6, #0]
 8003b80:	1d1a      	adds	r2, r3, #4
 8003b82:	6032      	str	r2, [r6, #0]
 8003b84:	681e      	ldr	r6, [r3, #0]
 8003b86:	6862      	ldr	r2, [r4, #4]
 8003b88:	2100      	movs	r1, #0
 8003b8a:	4630      	mov	r0, r6
 8003b8c:	f7fc fb28 	bl	80001e0 <memchr>
 8003b90:	b108      	cbz	r0, 8003b96 <_printf_i+0x1e6>
 8003b92:	1b80      	subs	r0, r0, r6
 8003b94:	6060      	str	r0, [r4, #4]
 8003b96:	6863      	ldr	r3, [r4, #4]
 8003b98:	6123      	str	r3, [r4, #16]
 8003b9a:	2300      	movs	r3, #0
 8003b9c:	f884 3043 	strb.w	r3, [r4, #67]	@ 0x43
 8003ba0:	e7aa      	b.n	8003af8 <_printf_i+0x148>
 8003ba2:	6923      	ldr	r3, [r4, #16]
 8003ba4:	4632      	mov	r2, r6
 8003ba6:	4649      	mov	r1, r9
 8003ba8:	4640      	mov	r0, r8
 8003baa:	47d0      	blx	sl
 8003bac:	3001      	adds	r0, #1
 8003bae:	d0ad      	beq.n	8003b0c <_printf_i+0x15c>
 8003bb0:	6823      	ldr	r3, [r4, #0]
 8003bb2:	079b      	lsls	r3, r3, #30
 8003bb4:	d413      	bmi.n	8003bde <_printf_i+0x22e>
 8003bb6:	68e0      	ldr	r0, [r4, #12]
 8003bb8:	9b03      	ldr	r3, [sp, #12]
 8003bba:	4298      	cmp	r0, r3
 8003bbc:	bfb8      	it	lt
 8003bbe:	4618      	movlt	r0, r3
 8003bc0:	e7a6      	b.n	8003b10 <_printf_i+0x160>
 8003bc2:	2301      	movs	r3, #1
 8003bc4:	4632      	mov	r2, r6
 8003bc6:	4649      	mov	r1, r9
 8003bc8:	4640      	mov	r0, r8
 8003bca:	47d0      	blx	sl
 8003bcc:	3001      	adds	r0, #1
 8003bce:	d09d      	beq.n	8003b0c <_printf_i+0x15c>
 8003bd0:	3501      	adds	r5, #1
 8003bd2:	68e3      	ldr	r3, [r4, #12]
 8003bd4:	9903      	ldr	r1, [sp, #12]
 8003bd6:	1a5b      	subs	r3, r3, r1
 8003bd8:	42ab      	cmp	r3, r5
 8003bda:	dcf2      	bgt.n	8003bc2 <_printf_i+0x212>
 8003bdc:	e7eb      	b.n	8003bb6 <_printf_i+0x206>
 8003bde:	2500      	movs	r5, #0
 8003be0:	f104 0619 	add.w	r6, r4, #25
 8003be4:	e7f5      	b.n	8003bd2 <_printf_i+0x222>
 8003be6:	bf00      	nop
 8003be8:	08003d21 	.word	0x08003d21
 8003bec:	08003d32 	.word	0x08003d32

08003bf0 <memmove>:
 8003bf0:	4288      	cmp	r0, r1
 8003bf2:	b510      	push	{r4, lr}
 8003bf4:	eb01 0402 	add.w	r4, r1, r2
 8003bf8:	d902      	bls.n	8003c00 <memmove+0x10>
 8003bfa:	4284      	cmp	r4, r0
 8003bfc:	4623      	mov	r3, r4
 8003bfe:	d807      	bhi.n	8003c10 <memmove+0x20>
 8003c00:	1e43      	subs	r3, r0, #1
 8003c02:	42a1      	cmp	r1, r4
 8003c04:	d008      	beq.n	8003c18 <memmove+0x28>
 8003c06:	f811 2b01 	ldrb.w	r2, [r1], #1
 8003c0a:	f803 2f01 	strb.w	r2, [r3, #1]!
 8003c0e:	e7f8      	b.n	8003c02 <memmove+0x12>
 8003c10:	4402      	add	r2, r0
 8003c12:	4601      	mov	r1, r0
 8003c14:	428a      	cmp	r2, r1
 8003c16:	d100      	bne.n	8003c1a <memmove+0x2a>
 8003c18:	bd10      	pop	{r4, pc}
 8003c1a:	f813 4d01 	ldrb.w	r4, [r3, #-1]!
 8003c1e:	f802 4d01 	strb.w	r4, [r2, #-1]!
 8003c22:	e7f7      	b.n	8003c14 <memmove+0x24>

08003c24 <_sbrk_r>:
 8003c24:	b538      	push	{r3, r4, r5, lr}
 8003c26:	4d06      	ldr	r5, [pc, #24]	@ (8003c40 <_sbrk_r+0x1c>)
 8003c28:	2300      	movs	r3, #0
 8003c2a:	4604      	mov	r4, r0
 8003c2c:	4608      	mov	r0, r1
 8003c2e:	602b      	str	r3, [r5, #0]
 8003c30:	f7fc ff7e 	bl	8000b30 <_sbrk>
 8003c34:	1c43      	adds	r3, r0, #1
 8003c36:	d102      	bne.n	8003c3e <_sbrk_r+0x1a>
 8003c38:	682b      	ldr	r3, [r5, #0]
 8003c3a:	b103      	cbz	r3, 8003c3e <_sbrk_r+0x1a>
 8003c3c:	6023      	str	r3, [r4, #0]
 8003c3e:	bd38      	pop	{r3, r4, r5, pc}
 8003c40:	2000025c 	.word	0x2000025c

08003c44 <memcpy>:
 8003c44:	440a      	add	r2, r1
 8003c46:	4291      	cmp	r1, r2
 8003c48:	f100 33ff 	add.w	r3, r0, #4294967295
 8003c4c:	d100      	bne.n	8003c50 <memcpy+0xc>
 8003c4e:	4770      	bx	lr
 8003c50:	b510      	push	{r4, lr}
 8003c52:	f811 4b01 	ldrb.w	r4, [r1], #1
 8003c56:	f803 4f01 	strb.w	r4, [r3, #1]!
 8003c5a:	4291      	cmp	r1, r2
 8003c5c:	d1f9      	bne.n	8003c52 <memcpy+0xe>
 8003c5e:	bd10      	pop	{r4, pc}

08003c60 <_realloc_r>:
 8003c60:	e92d 41f0 	stmdb	sp!, {r4, r5, r6, r7, r8, lr}
 8003c64:	4680      	mov	r8, r0
 8003c66:	4615      	mov	r5, r2
 8003c68:	460c      	mov	r4, r1
 8003c6a:	b921      	cbnz	r1, 8003c76 <_realloc_r+0x16>
 8003c6c:	e8bd 41f0 	ldmia.w	sp!, {r4, r5, r6, r7, r8, lr}
 8003c70:	4611      	mov	r1, r2
 8003c72:	f7ff bc4b 	b.w	800350c <_malloc_r>
 8003c76:	b92a      	cbnz	r2, 8003c84 <_realloc_r+0x24>
 8003c78:	f7ff fbdc 	bl	8003434 <_free_r>
 8003c7c:	2400      	movs	r4, #0
 8003c7e:	4620      	mov	r0, r4
 8003c80:	e8bd 81f0 	ldmia.w	sp!, {r4, r5, r6, r7, r8, pc}
 8003c84:	f000 f81a 	bl	8003cbc <_malloc_usable_size_r>
 8003c88:	4285      	cmp	r5, r0
 8003c8a:	4606      	mov	r6, r0
 8003c8c:	d802      	bhi.n	8003c94 <_realloc_r+0x34>
 8003c8e:	ebb5 0f50 	cmp.w	r5, r0, lsr #1
 8003c92:	d8f4      	bhi.n	8003c7e <_realloc_r+0x1e>
 8003c94:	4629      	mov	r1, r5
 8003c96:	4640      	mov	r0, r8
 8003c98:	f7ff fc38 	bl	800350c <_malloc_r>
 8003c9c:	4607      	mov	r7, r0
 8003c9e:	2800      	cmp	r0, #0
 8003ca0:	d0ec      	beq.n	8003c7c <_realloc_r+0x1c>
 8003ca2:	42b5      	cmp	r5, r6
 8003ca4:	462a      	mov	r2, r5
 8003ca6:	4621      	mov	r1, r4
 8003ca8:	bf28      	it	cs
 8003caa:	4632      	movcs	r2, r6
 8003cac:	f7ff ffca 	bl	8003c44 <memcpy>
 8003cb0:	4621      	mov	r1, r4
 8003cb2:	4640      	mov	r0, r8
 8003cb4:	f7ff fbbe 	bl	8003434 <_free_r>
 8003cb8:	463c      	mov	r4, r7
 8003cba:	e7e0      	b.n	8003c7e <_realloc_r+0x1e>

08003cbc <_malloc_usable_size_r>:
 8003cbc:	f851 3c04 	ldr.w	r3, [r1, #-4]
 8003cc0:	1f18      	subs	r0, r3, #4
 8003cc2:	2b00      	cmp	r3, #0
 8003cc4:	bfbc      	itt	lt
 8003cc6:	580b      	ldrlt	r3, [r1, r0]
 8003cc8:	18c0      	addlt	r0, r0, r3
 8003cca:	4770      	bx	lr

08003ccc <_init>:
 8003ccc:	b5f8      	push	{r3, r4, r5, r6, r7, lr}
 8003cce:	bf00      	nop
 8003cd0:	bcf8      	pop	{r3, r4, r5, r6, r7}
 8003cd2:	bc08      	pop	{r3}
 8003cd4:	469e      	mov	lr, r3
 8003cd6:	4770      	bx	lr

08003cd8 <_fini>:
 8003cd8:	b5f8      	push	{r3, r4, r5, r6, r7, lr}
 8003cda:	bf00      	nop
 8003cdc:	bcf8      	pop	{r3, r4, r5, r6, r7}
 8003cde:	bc08      	pop	{r3}
 8003ce0:	469e      	mov	lr, r3
 8003ce2:	4770      	bx	lr
